(lp1
(iandrea.events
WeatherEvent
p2
(dp3
S'src'
p4
I0
sS't_i'
p5
F0.15145631700000001
sS'level'
p6
I0
sS'res'
p7
NsS'inv'
p8
I00
sS't_f'
p9
F0.151463825
sS'etc'
p10
(dp11
S'workers_idle'
p12
I0
sS'workers_busy'
p13
I0
sS'tasks_busy'
p14
I0
sS'MEMOUT'
p15
I0
sS'UNSAT'
p16
I0
sS'TIMEOUT'
p17
I0
sS'ERROR'
p18
I0
sS'tasks_done'
p19
I0
sS'tasks_idle'
p20
I0
sS'SAT'
p21
I0
ssS'gid'
p22
S'wrep'
p23
sS'eid'
p24
S'preinit'
p25
sS'timeout'
p26
I0
sS'max'
p27
I0
sS'tid'
p28
NsS'dur'
p29
F7.507999999989412e-06
sba(iandrea.events
Event
p30
(dp31
g4
I0
sg5
F0.15164187300000001
sg6
I0
sg7
S'1 tasks'
p32
sg8
I00
sg9
F54.205385626000002
sg10
(dp33
sg22
S'main'
p34
sg24
S'queue.create'
p35
sg26
I0
sg27
I0
sg28
Nsg29
F54.053743752999999
sba(iandrea.events
WeatherEvent
p36
(dp37
g4
I0
sg5
F54.205811576000002
sg6
I0
sg7
Nsg8
I00
sg9
F54.205818927999999
sg10
(dp38
g12
I0
sg13
I0
sg14
I0
sg15
I0
sg16
I0
sg17
I0
sg18
I0
sg19
I0
sg20
I1
sg21
I0
ssg22
g23
sg24
S'initial'
p39
sg26
I0
sg27
I0
sg28
Nsg29
F7.3519999972404548e-06
sba(iandrea.events
WeatherEvent
p40
(dp41
g4
I0
sg5
F64.207636359999995
sg6
I0
sg7
Nsg8
I00
sg9
F64.207647265000006
sg10
(dp42
g12
I0
sg13
I3
sg14
I3
sg15
I0
sg16
I0
sg17
I0
sg18
I0
sg19
I0
sg20
I17
sg21
I0
ssg22
g23
sg24
S'update'
p43
sg26
I0
sg27
I0
sg28
Nsg29
F1.0905000010552612e-05
sba(iandrea.events
WeatherEvent
p44
(dp45
g4
I0
sg5
F74.209621764999994
sg6
I0
sg7
Nsg8
I00
sg9
F74.209632749999997
sg10
(dp46
g12
I0
sg13
I3
sg14
I3
sg15
I0
sg16
I0
sg17
I0
sg18
I0
sg19
I0
sg20
I17
sg21
I0
ssg22
g23
sg24
g43
sg26
I0
sg27
I0
sg28
Nsg29
F1.0985000002960987e-05
sba(iandrea.events
WeatherEvent
p47
(dp48
g4
I0
sg5
F84.210664898999994
sg6
I0
sg7
Nsg8
I00
sg9
F84.210678095000006
sg10
(dp49
g12
I0
sg13
I3
sg14
I3
sg15
I0
sg16
I0
sg17
I0
sg18
I0
sg19
I0
sg20
I17
sg21
I0
ssg22
g23
sg24
g43
sg26
I0
sg27
I0
sg28
Nsg29
F1.3196000011816977e-05
sba(iandrea.events
WeatherEvent
p50
(dp51
g4
I0
sg5
F94.211577259999999
sg6
I0
sg7
Nsg8
I00
sg9
F94.211586159000007
sg10
(dp52
g12
I0
sg13
I3
sg14
I3
sg15
I0
sg16
I0
sg17
I0
sg18
I0
sg19
I0
sg20
I17
sg21
I0
ssg22
g23
sg24
g43
sg26
I0
sg27
I0
sg28
Nsg29
F8.8990000080002574e-06
sba(iandrea.events
WeatherEvent
p53
(dp54
g4
I0
sg5
F104.211963303
sg6
I0
sg7
Nsg8
I00
sg9
F104.211973011
sg10
(dp55
g12
I0
sg13
I3
sg14
I3
sg15
I0
sg16
I0
sg17
I0
sg18
I0
sg19
I0
sg20
I17
sg21
I0
ssg22
g23
sg24
g43
sg26
I0
sg27
I0
sg28
Nsg29
F9.7079999932248029e-06
sba(iandrea.events
WeatherEvent
p56
(dp57
g4
I0
sg5
F114.21366376500001
sg6
I0
sg7
Nsg8
I00
sg9
F114.21367508500001
sg10
(dp58
g12
I0
sg13
I3
sg14
I3
sg15
I0
sg16
I0
sg17
I0
sg18
I0
sg19
I0
sg20
I17
sg21
I0
ssg22
g23
sg24
g43
sg26
I0
sg27
I0
sg28
Nsg29
F1.1319999998704589e-05
sba(iandrea.events
WeatherEvent
p59
(dp60
g4
I0
sg5
F124.214279546
sg6
I0
sg7
Nsg8
I00
sg9
F124.214289214
sg10
(dp61
g12
I0
sg13
I3
sg14
I3
sg15
I0
sg16
I0
sg17
I0
sg18
I0
sg19
I0
sg20
I17
sg21
I0
ssg22
g23
sg24
g43
sg26
I0
sg27
I0
sg28
Nsg29
F9.6680000041260428e-06
sba(iandrea.events
WeatherEvent
p62
(dp63
g4
I0
sg5
F134.21580677899999
sg6
I0
sg7
Nsg8
I00
sg9
F134.21582259300001
sg10
(dp64
g12
I0
sg13
I3
sg14
I3
sg15
I0
sg16
I0
sg17
I0
sg18
I0
sg19
I0
sg20
I17
sg21
I0
ssg22
g23
sg24
g43
sg26
I0
sg27
I0
sg28
Nsg29
F1.5814000022373875e-05
sba(iandrea.events
WeatherEvent
p65
(dp66
g4
I0
sg5
F144.217124114
sg6
I0
sg7
Nsg8
I00
sg9
F144.217135501
sg10
(dp67
g12
I0
sg13
I3
sg14
I3
sg15
I0
sg16
I0
sg17
I0
sg18
I0
sg19
I0
sg20
I17
sg21
I0
ssg22
g23
sg24
g43
sg26
I0
sg27
I0
sg28
Nsg29
F1.138700000069548e-05
sba(iandrea.events
WeatherEvent
p68
(dp69
g4
I0
sg5
F154.217374374
sg6
I0
sg7
Nsg8
I00
sg9
F154.21738361000001
sg10
(dp70
g12
I0
sg13
I3
sg14
I3
sg15
I0
sg16
I0
sg17
I0
sg18
I0
sg19
I0
sg20
I17
sg21
I0
ssg22
g23
sg24
g43
sg26
I0
sg27
I0
sg28
Nsg29
F9.2360000110147666e-06
sba(iandrea.events
WeatherEvent
p71
(dp72
g4
I0
sg5
F164.21753925799999
sg6
I0
sg7
Nsg8
I00
sg9
F164.217555393
sg10
(dp73
g12
I0
sg13
I3
sg14
I3
sg15
I0
sg16
I0
sg17
I0
sg18
I0
sg19
I0
sg20
I17
sg21
I0
ssg22
g23
sg24
g43
sg26
I0
sg27
I0
sg28
Nsg29
F1.6135000009853684e-05
sba(iandrea.events
WeatherEvent
p74
(dp75
g4
I0
sg5
F174.21822218599999
sg6
I0
sg7
Nsg8
I00
sg9
F174.21823300400001
sg10
(dp76
g12
I0
sg13
I3
sg14
I3
sg15
I0
sg16
I0
sg17
I0
sg18
I0
sg19
I0
sg20
I17
sg21
I0
ssg22
g23
sg24
g43
sg26
I0
sg27
I0
sg28
Nsg29
F1.0818000021117768e-05
sba(iandrea.events
WeatherEvent
p77
(dp78
g4
I0
sg5
F184.220112793
sg6
I0
sg7
Nsg8
I00
sg9
F184.22012242100001
sg10
(dp79
g12
I0
sg13
I3
sg14
I3
sg15
I0
sg16
I0
sg17
I0
sg18
I0
sg19
I0
sg20
I17
sg21
I0
ssg22
g23
sg24
g43
sg26
I0
sg27
I0
sg28
Nsg29
F9.6280000150272826e-06
sba(iandrea.events
WeatherEvent
p80
(dp81
g4
I0
sg5
F194.22120671499999
sg6
I0
sg7
Nsg8
I00
sg9
F194.22122192200001
sg10
(dp82
g12
I0
sg13
I3
sg14
I3
sg15
I0
sg16
I0
sg17
I0
sg18
I0
sg19
I0
sg20
I17
sg21
I0
ssg22
g23
sg24
g43
sg26
I0
sg27
I0
sg28
Nsg29
F1.5207000018335748e-05
sba(iandrea.events
WeatherEvent
p83
(dp84
g4
I0
sg5
F204.221869903
sg6
I0
sg7
Nsg8
I00
sg9
F204.22187952100001
sg10
(dp85
g12
I0
sg13
I3
sg14
I3
sg15
I0
sg16
I0
sg17
I0
sg18
I0
sg19
I0
sg20
I17
sg21
I0
ssg22
g23
sg24
g43
sg26
I0
sg27
I0
sg28
Nsg29
F9.6180000070944516e-06
sba(iandrea.events
WeatherEvent
p86
(dp87
g4
I0
sg5
F214.22322740800001
sg6
I0
sg7
Nsg8
I00
sg9
F214.22324255300001
sg10
(dp88
g12
I0
sg13
I3
sg14
I3
sg15
I0
sg16
I0
sg17
I0
sg18
I0
sg19
I0
sg20
I17
sg21
I0
ssg22
g23
sg24
g43
sg26
I0
sg27
I0
sg28
Nsg29
F1.5144999991889563e-05
sba(iandrea.events
WeatherEvent
p89
(dp90
g4
I0
sg5
F224.224088524
sg6
I0
sg7
Nsg8
I00
sg9
F224.22409790500001
sg10
(dp91
g12
I0
sg13
I3
sg14
I3
sg15
I0
sg16
I0
sg17
I0
sg18
I0
sg19
I0
sg20
I17
sg21
I0
ssg22
g23
sg24
g43
sg26
I0
sg27
I0
sg28
Nsg29
F9.3810000123539794e-06
sba(iandrea.events
WeatherEvent
p92
(dp93
g4
I0
sg5
F234.22598135600001
sg6
I0
sg7
Nsg8
I00
sg9
F234.225990532
sg10
(dp94
g12
I0
sg13
I3
sg14
I3
sg15
I0
sg16
I0
sg17
I0
sg18
I0
sg19
I0
sg20
I17
sg21
I0
ssg22
g23
sg24
g43
sg26
I0
sg27
I0
sg28
Nsg29
F9.1759999918394897e-06
sba.(lp1
(iandrea.events
WeatherEvent
p2
(dp3
S'src'
p4
I0
sS't_i'
p5
F244.226132549
sS'level'
p6
I0
sS'res'
p7
NsS'inv'
p8
I00
sS't_f'
p9
F244.22614135699999
sS'etc'
p10
(dp11
S'workers_idle'
p12
I0
sS'workers_busy'
p13
I3
sS'tasks_busy'
p14
I3
sS'MEMOUT'
p15
I0
sS'UNSAT'
p16
I0
sS'TIMEOUT'
p17
I0
sS'ERROR'
p18
I0
sS'tasks_done'
p19
I0
sS'tasks_idle'
p20
I17
sS'SAT'
p21
I0
ssS'gid'
p22
S'wrep'
p23
sS'eid'
p24
S'update'
p25
sS'timeout'
p26
I0
sS'max'
p27
I0
sS'tid'
p28
NsS'dur'
p29
F8.8079999898127426e-06
sba(iandrea.events
WeatherEvent
p30
(dp31
g4
I0
sg5
F254.22791645699999
sg6
I0
sg7
Nsg8
I00
sg9
F254.22793006800001
sg10
(dp32
g12
I0
sg13
I3
sg14
I3
sg15
I0
sg16
I0
sg17
I0
sg18
I0
sg19
I0
sg20
I17
sg21
I0
ssg22
g23
sg24
g25
sg26
I0
sg27
I0
sg28
Nsg29
F1.3611000014179808e-05
sba(iandrea.events
WeatherEvent
p33
(dp34
g4
I0
sg5
F264.22998365500001
sg6
I0
sg7
Nsg8
I00
sg9
F264.229992842
sg10
(dp35
g12
I0
sg13
I3
sg14
I3
sg15
I0
sg16
I0
sg17
I0
sg18
I0
sg19
I0
sg20
I17
sg21
I0
ssg22
g23
sg24
g25
sg26
I0
sg27
I0
sg28
Nsg29
F9.1869999891969201e-06
sba(iandrea.events
WeatherEvent
p36
(dp37
g4
I0
sg5
F274.23054267999999
sg6
I0
sg7
Nsg8
I00
sg9
F274.230559357
sg10
(dp38
g12
I0
sg13
I3
sg14
I3
sg15
I0
sg16
I0
sg17
I0
sg18
I0
sg19
I0
sg20
I17
sg21
I0
ssg22
g23
sg24
g25
sg26
I0
sg27
I0
sg28
Nsg29
F1.6677000019171828e-05
sba(iandrea.events
WeatherEvent
p39
(dp40
g4
I0
sg5
F284.232572871
sg6
I0
sg7
Nsg8
I00
sg9
F284.23258487599998
sg10
(dp41
g12
I0
sg13
I3
sg14
I3
sg15
I0
sg16
I0
sg17
I0
sg18
I0
sg19
I0
sg20
I17
sg21
I0
ssg22
g23
sg24
g25
sg26
I0
sg27
I0
sg28
Nsg29
F1.2004999973669328e-05
sba(iandrea.events
WeatherEvent
p42
(dp43
g4
I0
sg5
F294.23261745999997
sg6
I0
sg7
Nsg8
I00
sg9
F294.23262777600002
sg10
(dp44
g12
I0
sg13
I3
sg14
I3
sg15
I0
sg16
I0
sg17
I0
sg18
I0
sg19
I0
sg20
I17
sg21
I0
ssg22
g23
sg24
g25
sg26
I0
sg27
I0
sg28
Nsg29
F1.0316000043530948e-05
sba(iandrea.events
WeatherEvent
p45
(dp46
g4
I0
sg5
F304.23364780700001
sg6
I0
sg7
Nsg8
I00
sg9
F304.23365822400001
sg10
(dp47
g12
I0
sg13
I3
sg14
I3
sg15
I0
sg16
I0
sg17
I0
sg18
I0
sg19
I0
sg20
I17
sg21
I0
ssg22
g23
sg24
g25
sg26
I0
sg27
I0
sg28
Nsg29
F1.0416999998597021e-05
sba(iandrea.events
WeatherEvent
p48
(dp49
g4
I0
sg5
F314.23542742199999
sg6
I0
sg7
Nsg8
I00
sg9
F314.235438585
sg10
(dp50
g12
I0
sg13
I3
sg14
I3
sg15
I0
sg16
I0
sg17
I0
sg18
I0
sg19
I0
sg20
I17
sg21
I0
ssg22
g23
sg24
g25
sg26
I0
sg27
I0
sg28
Nsg29
F1.1163000010583346e-05
sba(iandrea.events
WeatherEvent
p51
(dp52
g4
I0
sg5
F324.23714047099998
sg6
I0
sg7
Nsg8
I00
sg9
F324.237150423
sg10
(dp53
g12
I0
sg13
I3
sg14
I3
sg15
I0
sg16
I0
sg17
I0
sg18
I0
sg19
I0
sg20
I17
sg21
I0
ssg22
g23
sg24
g25
sg26
I0
sg27
I0
sg28
Nsg29
F9.9520000276243081e-06
sba(iandrea.events
WeatherEvent
p54
(dp55
g4
I0
sg5
F334.238184811
sg6
I0
sg7
Nsg8
I00
sg9
F334.23819397400001
sg10
(dp56
g12
I0
sg13
I3
sg14
I3
sg15
I0
sg16
I0
sg17
I0
sg18
I0
sg19
I0
sg20
I17
sg21
I0
ssg22
g23
sg24
g25
sg26
I0
sg27
I0
sg28
Nsg29
F9.1630000156328606e-06
sba(iandrea.events
WeatherEvent
p57
(dp58
g4
I0
sg5
F344.24009725500002
sg6
I0
sg7
Nsg8
I00
sg9
F344.24010684899997
sg10
(dp59
g12
I0
sg13
I3
sg14
I3
sg15
I0
sg16
I0
sg17
I0
sg18
I0
sg19
I0
sg20
I17
sg21
I0
ssg22
g23
sg24
g25
sg26
I0
sg27
I0
sg28
Nsg29
F9.5939999482652638e-06
sba(iandrea.events
WeatherEvent
p60
(dp61
g4
I0
sg5
F354.24061622599999
sg6
I0
sg7
Nsg8
I00
sg9
F354.24063327099998
sg10
(dp62
g12
I0
sg13
I3
sg14
I3
sg15
I0
sg16
I0
sg17
I0
sg18
I0
sg19
I0
sg20
I17
sg21
I0
ssg22
g23
sg24
g25
sg26
I0
sg27
I0
sg28
Nsg29
F1.7044999992776866e-05
sba(iandrea.events
WeatherEvent
p63
(dp64
g4
I0
sg5
F364.24144976500003
sg6
I0
sg7
Nsg8
I00
sg9
F364.24145942199999
sg10
(dp65
g12
I0
sg13
I3
sg14
I3
sg15
I0
sg16
I0
sg17
I0
sg18
I0
sg19
I0
sg20
I17
sg21
I0
ssg22
g23
sg24
g25
sg26
I0
sg27
I0
sg28
Nsg29
F9.6569999641360482e-06
sba(iandrea.events
WeatherEvent
p66
(dp67
g4
I0
sg5
F374.24184756400001
sg6
I0
sg7
Nsg8
I00
sg9
F374.24186230499998
sg10
(dp68
g12
I0
sg13
I3
sg14
I3
sg15
I0
sg16
I0
sg17
I0
sg18
I0
sg19
I0
sg20
I17
sg21
I0
ssg22
g23
sg24
g25
sg26
I0
sg27
I0
sg28
Nsg29
F1.4740999972673308e-05
sba(iandrea.events
WeatherEvent
p69
(dp70
g4
I0
sg5
F384.24281671
sg6
I0
sg7
Nsg8
I00
sg9
F384.24282606399998
sg10
(dp71
g12
I0
sg13
I3
sg14
I3
sg15
I0
sg16
I0
sg17
I0
sg18
I0
sg19
I0
sg20
I17
sg21
I0
ssg22
g23
sg24
g25
sg26
I0
sg27
I0
sg28
Nsg29
F9.3539999852509936e-06
sba(iandrea.events
WeatherEvent
p72
(dp73
g4
I0
sg5
F394.24334516900001
sg6
I0
sg7
Nsg8
I00
sg9
F394.24335699400001
sg10
(dp74
g12
I0
sg13
I3
sg14
I3
sg15
I0
sg16
I0
sg17
I0
sg18
I0
sg19
I0
sg20
I17
sg21
I0
ssg22
g23
sg24
g25
sg26
I0
sg27
I0
sg28
Nsg29
F1.1825000001408625e-05
sba(iandrea.events
WeatherEvent
p75
(dp76
g4
I0
sg5
F404.24418760700001
sg6
I0
sg7
Nsg8
I00
sg9
F404.24419748899999
sg10
(dp77
g12
I0
sg13
I3
sg14
I3
sg15
I0
sg16
I0
sg17
I0
sg18
I0
sg19
I0
sg20
I17
sg21
I0
ssg22
g23
sg24
g25
sg26
I0
sg27
I0
sg28
Nsg29
F9.8819999720944907e-06
sba(iandrea.events
WeatherEvent
p78
(dp79
g4
I0
sg5
F414.24494612900003
sg6
I0
sg7
Nsg8
I00
sg9
F414.24495735800002
sg10
(dp80
g12
I0
sg13
I3
sg14
I3
sg15
I0
sg16
I0
sg17
I0
sg18
I0
sg19
I0
sg20
I17
sg21
I0
ssg22
g23
sg24
g25
sg26
I0
sg27
I0
sg28
Nsg29
F1.1228999994727928e-05
sba(iandrea.events
WeatherEvent
p81
(dp82
g4
I0
sg5
F424.24576970099997
sg6
I0
sg7
Nsg8
I00
sg9
F424.245780927
sg10
(dp83
g12
I0
sg13
I3
sg14
I3
sg15
I0
sg16
I0
sg17
I0
sg18
I0
sg19
I0
sg20
I17
sg21
I0
ssg22
g23
sg24
g25
sg26
I0
sg27
I0
sg28
Nsg29
F1.122600002645413e-05
sba(iandrea.events
WeatherEvent
p84
(dp85
g4
I0
sg5
F434.24684756800002
sg6
I0
sg7
Nsg8
I00
sg9
F434.24685714899999
sg10
(dp86
g12
I0
sg13
I3
sg14
I3
sg15
I0
sg16
I0
sg17
I0
sg18
I0
sg19
I0
sg20
I17
sg21
I0
ssg22
g23
sg24
g25
sg26
I0
sg27
I0
sg28
Nsg29
F9.5809999720586347e-06
sba(iandrea.events
WeatherEvent
p87
(dp88
g4
I0
sg5
F444.24721317400002
sg6
I0
sg7
Nsg8
I00
sg9
F444.24722443399997
sg10
(dp89
g12
I0
sg13
I3
sg14
I3
sg15
I0
sg16
I0
sg17
I0
sg18
I0
sg19
I0
sg20
I17
sg21
I0
ssg22
g23
sg24
g25
sg26
I0
sg27
I0
sg28
Nsg29
F1.1259999951107602e-05
sba.(lp1
(iandrea.events
WeatherEvent
p2
(dp3
S'src'
p4
I0
sS't_i'
p5
F454.24879121200001
sS'level'
p6
I0
sS'res'
p7
NsS'inv'
p8
I00
sS't_f'
p9
F454.24880445399998
sS'etc'
p10
(dp11
S'workers_idle'
p12
I0
sS'workers_busy'
p13
I3
sS'tasks_busy'
p14
I3
sS'MEMOUT'
p15
I0
sS'UNSAT'
p16
I0
sS'TIMEOUT'
p17
I0
sS'ERROR'
p18
I0
sS'tasks_done'
p19
I0
sS'tasks_idle'
p20
I17
sS'SAT'
p21
I0
ssS'gid'
p22
S'wrep'
p23
sS'eid'
p24
S'update'
p25
sS'timeout'
p26
I0
sS'max'
p27
I0
sS'tid'
p28
NsS'dur'
p29
F1.3241999965885043e-05
sba(iandrea.events
WeatherEvent
p30
(dp31
g4
I0
sg5
F464.248990961
sg6
I0
sg7
Nsg8
I00
sg9
F464.24900498300002
sg10
(dp32
g12
I0
sg13
I3
sg14
I3
sg15
I0
sg16
I0
sg17
I0
sg18
I0
sg19
I0
sg20
I17
sg21
I0
ssg22
g23
sg24
g25
sg26
I0
sg27
I0
sg28
Nsg29
F1.4022000016211678e-05
sba(iandrea.events
WeatherEvent
p33
(dp34
g4
I0
sg5
F474.24976407399998
sg6
I0
sg7
Nsg8
I00
sg9
F474.24977342099999
sg10
(dp35
g12
I0
sg13
I3
sg14
I3
sg15
I0
sg16
I0
sg17
I0
sg18
I0
sg19
I0
sg20
I17
sg21
I0
ssg22
g23
sg24
g25
sg26
I0
sg27
I0
sg28
Nsg29
F9.3470000024353794e-06
sba(iandrea.events
WeatherEvent
p36
(dp37
g4
I0
sg5
F484.25051990100002
sg6
I0
sg7
Nsg8
I00
sg9
F484.25053009099997
sg10
(dp38
g12
I0
sg13
I3
sg14
I3
sg15
I0
sg16
I0
sg17
I0
sg18
I0
sg19
I0
sg20
I17
sg21
I0
ssg22
g23
sg24
g25
sg26
I0
sg27
I0
sg28
Nsg29
F1.0189999954945961e-05
sba(iandrea.events
WeatherEvent
p39
(dp40
g4
I0
sg5
F494.250759356
sg6
I0
sg7
Nsg8
I00
sg9
F494.25077135499998
sg10
(dp41
g12
I0
sg13
I3
sg14
I3
sg15
I0
sg16
I0
sg17
I0
sg18
I0
sg19
I0
sg20
I17
sg21
I0
ssg22
g23
sg24
g25
sg26
I0
sg27
I0
sg28
Nsg29
F1.1998999980278313e-05
sba(iandrea.events
WeatherEvent
p42
(dp43
g4
I0
sg5
F504.250782211
sg6
I0
sg7
Nsg8
I00
sg9
F504.25079884799999
sg10
(dp44
g12
I0
sg13
I3
sg14
I3
sg15
I0
sg16
I0
sg17
I0
sg18
I0
sg19
I0
sg20
I17
sg21
I0
ssg22
g23
sg24
g25
sg26
I0
sg27
I0
sg28
Nsg29
F1.6636999987440504e-05
sba(iandrea.events
WeatherEvent
p45
(dp46
g4
I0
sg5
F514.25110941699995
sg6
I0
sg7
Nsg8
I00
sg9
F514.25111960599997
sg10
(dp47
g12
I0
sg13
I3
sg14
I3
sg15
I0
sg16
I0
sg17
I0
sg18
I0
sg19
I0
sg20
I17
sg21
I0
ssg22
g23
sg24
g25
sg26
I0
sg27
I0
sg28
Nsg29
F1.018900002236478e-05
sba(iandrea.events
WeatherEvent
p48
(dp49
g4
I0
sg5
F524.25115058799997
sg6
I0
sg7
Nsg8
I00
sg9
F524.25116089799997
sg10
(dp50
g12
I0
sg13
I3
sg14
I3
sg15
I0
sg16
I0
sg17
I0
sg18
I0
sg19
I0
sg20
I17
sg21
I0
ssg22
g23
sg24
g25
sg26
I0
sg27
I0
sg28
Nsg29
F1.0309999993296515e-05
sba(iandrea.events
WeatherEvent
p51
(dp52
g4
I0
sg5
F534.25312675999999
sg6
I0
sg7
Nsg8
I00
sg9
F534.25314021099996
sg10
(dp53
g12
I0
sg13
I3
sg14
I3
sg15
I0
sg16
I0
sg17
I0
sg18
I0
sg19
I0
sg20
I17
sg21
I0
ssg22
g23
sg24
g25
sg26
I0
sg27
I0
sg28
Nsg29
F1.3450999972519639e-05
sba(iandrea.events
WeatherEvent
p54
(dp55
g4
I0
sg5
F544.25392433000002
sg6
I0
sg7
Nsg8
I00
sg9
F544.25394043200004
sg10
(dp56
g12
I0
sg13
I3
sg14
I3
sg15
I0
sg16
I0
sg17
I0
sg18
I0
sg19
I0
sg20
I17
sg21
I0
ssg22
g23
sg24
g25
sg26
I0
sg27
I0
sg28
Nsg29
F1.6102000017781393e-05
sba(iandrea.events
WeatherEvent
p57
(dp58
g4
I0
sg5
F554.25413305500001
sg6
I0
sg7
Nsg8
I00
sg9
F554.25414322500001
sg10
(dp59
g12
I0
sg13
I3
sg14
I3
sg15
I0
sg16
I0
sg17
I0
sg18
I0
sg19
I0
sg20
I17
sg21
I0
ssg22
g23
sg24
g25
sg26
I0
sg27
I0
sg28
Nsg29
F1.0169999995923718e-05
sba(iandrea.events
WeatherEvent
p60
(dp61
g4
I0
sg5
F564.25448241900006
sg6
I0
sg7
Nsg8
I00
sg9
F564.25449190899997
sg10
(dp62
g12
I0
sg13
I3
sg14
I3
sg15
I0
sg16
I0
sg17
I0
sg18
I0
sg19
I0
sg20
I17
sg21
I0
ssg22
g23
sg24
g25
sg26
I0
sg27
I0
sg28
Nsg29
F9.4899999112385558e-06
sba(iandrea.events
WeatherEvent
p63
(dp64
g4
I0
sg5
F574.25479421499995
sg6
I0
sg7
Nsg8
I00
sg9
F574.2548041
sg10
(dp65
g12
I0
sg13
I3
sg14
I3
sg15
I0
sg16
I0
sg17
I0
sg18
I0
sg19
I0
sg20
I17
sg21
I0
ssg22
g23
sg24
g25
sg26
I0
sg27
I0
sg28
Nsg29
F9.8850000540551264e-06
sba(iandrea.events
WeatherEvent
p66
(dp67
g4
I0
sg5
F584.25675183400006
sg6
I0
sg7
Nsg8
I00
sg9
F584.25676668200003
sg10
(dp68
g12
I0
sg13
I3
sg14
I3
sg15
I0
sg16
I0
sg17
I0
sg18
I0
sg19
I0
sg20
I17
sg21
I0
ssg22
g23
sg24
g25
sg26
I0
sg27
I0
sg28
Nsg29
F1.4847999977973814e-05
sba(iandrea.events
WeatherEvent
p69
(dp70
g4
I0
sg5
F594.25725983100006
sg6
I0
sg7
Nsg8
I00
sg9
F594.25728277799999
sg10
(dp71
g12
I0
sg13
I3
sg14
I3
sg15
I0
sg16
I0
sg17
I0
sg18
I0
sg19
I0
sg20
I17
sg21
I0
ssg22
g23
sg24
g25
sg26
I0
sg27
I0
sg28
Nsg29
F2.2946999933992629e-05
sba(iandrea.events
WeatherEvent
p72
(dp73
g4
I0
sg5
F604.25797182899998
sg6
I0
sg7
Nsg8
I00
sg9
F604.25798183899997
sg10
(dp74
g12
I0
sg13
I3
sg14
I3
sg15
I0
sg16
I0
sg17
I0
sg18
I0
sg19
I0
sg20
I17
sg21
I0
ssg22
g23
sg24
g25
sg26
I0
sg27
I0
sg28
Nsg29
F1.0009999982685258e-05
sba(iandrea.events
WeatherEvent
p75
(dp76
g4
I0
sg5
F614.25912466299997
sg6
I0
sg7
Nsg8
I00
sg9
F614.25913454500005
sg10
(dp77
g12
I0
sg13
I3
sg14
I3
sg15
I0
sg16
I0
sg17
I0
sg18
I0
sg19
I0
sg20
I17
sg21
I0
ssg22
g23
sg24
g25
sg26
I0
sg27
I0
sg28
Nsg29
F9.8820000857813284e-06
sba(iandrea.events
WeatherEvent
p78
(dp79
g4
I0
sg5
F624.26102438999999
sg6
I0
sg7
Nsg8
I00
sg9
F624.26103379799997
sg10
(dp80
g12
I0
sg13
I3
sg14
I3
sg15
I0
sg16
I0
sg17
I0
sg18
I0
sg19
I0
sg20
I17
sg21
I0
ssg22
g23
sg24
g25
sg26
I0
sg27
I0
sg28
Nsg29
F9.4079999826135463e-06
sba(iandrea.events
WeatherEvent
p81
(dp82
g4
I0
sg5
F634.26258280499997
sg6
I0
sg7
Nsg8
I00
sg9
F634.26259904100004
sg10
(dp83
g12
I0
sg13
I3
sg14
I3
sg15
I0
sg16
I0
sg17
I0
sg18
I0
sg19
I0
sg20
I17
sg21
I0
ssg22
g23
sg24
g25
sg26
I0
sg27
I0
sg28
Nsg29
F1.6236000078606594e-05
sba(iandrea.events
WeatherEvent
p84
(dp85
g4
I0
sg5
F644.26322336400005
sg6
I0
sg7
Nsg8
I00
sg9
F644.26323298199998
sg10
(dp86
g12
I0
sg13
I3
sg14
I3
sg15
I0
sg16
I0
sg17
I0
sg18
I0
sg19
I0
sg20
I17
sg21
I0
ssg22
g23
sg24
g25
sg26
I0
sg27
I0
sg28
Nsg29
F9.6179999218293233e-06
sba(iandrea.events
WeatherEvent
p87
(dp88
g4
I0
sg5
F654.26429922299997
sg6
I0
sg7
Nsg8
I00
sg9
F654.26431441199998
sg10
(dp89
g12
I0
sg13
I3
sg14
I3
sg15
I0
sg16
I0
sg17
I0
sg18
I0
sg19
I0
sg20
I17
sg21
I0
ssg22
g23
sg24
g25
sg26
I0
sg27
I0
sg28
Nsg29
F1.5189000009740994e-05
sba.(lp1
(iandrea.events
WeatherEvent
p2
(dp3
S'src'
p4
I0
sS't_i'
p5
F664.26634935300001
sS'level'
p6
I0
sS'res'
p7
NsS'inv'
p8
I00
sS't_f'
p9
F664.26635920199999
sS'etc'
p10
(dp11
S'workers_idle'
p12
I0
sS'workers_busy'
p13
I3
sS'tasks_busy'
p14
I3
sS'MEMOUT'
p15
I0
sS'UNSAT'
p16
I0
sS'TIMEOUT'
p17
I0
sS'ERROR'
p18
I0
sS'tasks_done'
p19
I0
sS'tasks_idle'
p20
I17
sS'SAT'
p21
I0
ssS'gid'
p22
S'wrep'
p23
sS'eid'
p24
S'update'
p25
sS'timeout'
p26
I0
sS'max'
p27
I0
sS'tid'
p28
NsS'dur'
p29
F9.8489999800221995e-06
sba(iandrea.events
WeatherEvent
p30
(dp31
g4
I0
sg5
F674.26783092699998
sg6
I0
sg7
Nsg8
I00
sg9
F674.26784476099999
sg10
(dp32
g12
I0
sg13
I3
sg14
I3
sg15
I0
sg16
I0
sg17
I0
sg18
I0
sg19
I0
sg20
I17
sg21
I0
ssg22
g23
sg24
g25
sg26
I0
sg27
I0
sg28
Nsg29
F1.3834000014867343e-05
sba(iandrea.events
WeatherEvent
p33
(dp34
g4
I0
sg5
F684.26833803800002
sg6
I0
sg7
Nsg8
I00
sg9
F684.26835012399999
sg10
(dp35
g12
I0
sg13
I3
sg14
I3
sg15
I0
sg16
I0
sg17
I0
sg18
I0
sg19
I0
sg20
I17
sg21
I0
ssg22
g23
sg24
g25
sg26
I0
sg27
I0
sg28
Nsg29
F1.2085999969713157e-05
sba(iandrea.events
WeatherEvent
p36
(dp37
g4
I0
sg5
F694.27024173500001
sg6
I0
sg7
Nsg8
I00
sg9
F694.27025099499997
sg10
(dp38
g12
I0
sg13
I3
sg14
I3
sg15
I0
sg16
I0
sg17
I0
sg18
I0
sg19
I0
sg20
I17
sg21
I0
ssg22
g23
sg24
g25
sg26
I0
sg27
I0
sg28
Nsg29
F9.2599999561571167e-06
sba(iandrea.events
WeatherEvent
p39
(dp40
g4
I0
sg5
F704.271354245
sg6
I0
sg7
Nsg8
I00
sg9
F704.27136695599995
sg10
(dp41
g12
I0
sg13
I3
sg14
I3
sg15
I0
sg16
I0
sg17
I0
sg18
I0
sg19
I0
sg20
I17
sg21
I0
ssg22
g23
sg24
g25
sg26
I0
sg27
I0
sg28
Nsg29
F1.2710999953924329e-05
sba(iandrea.events
WeatherEvent
p42
(dp43
g4
I0
sg5
F714.27292038899998
sg6
I0
sg7
Nsg8
I00
sg9
F714.27293217299996
sg10
(dp44
g12
I0
sg13
I3
sg14
I3
sg15
I0
sg16
I0
sg17
I0
sg18
I0
sg19
I0
sg20
I17
sg21
I0
ssg22
g23
sg24
g25
sg26
I0
sg27
I0
sg28
Nsg29
F1.1783999980252702e-05
sba(iandrea.events
WeatherEvent
p45
(dp46
g4
I0
sg5
F724.27329046399996
sg6
I0
sg7
Nsg8
I00
sg9
F724.27330097399999
sg10
(dp47
g12
I0
sg13
I3
sg14
I3
sg15
I0
sg16
I0
sg17
I0
sg18
I0
sg19
I0
sg20
I17
sg21
I0
ssg22
g23
sg24
g25
sg26
I0
sg27
I0
sg28
Nsg29
F1.0510000038266298e-05
sba(iandrea.events
WeatherEvent
p48
(dp49
g4
I0
sg5
F734.27380745999994
sg6
I0
sg7
Nsg8
I00
sg9
F734.27381739600003
sg10
(dp50
g12
I0
sg13
I3
sg14
I3
sg15
I0
sg16
I0
sg17
I0
sg18
I0
sg19
I0
sg20
I17
sg21
I0
ssg22
g23
sg24
g25
sg26
I0
sg27
I0
sg28
Nsg29
F9.9360000831438811e-06
sba(iandrea.events
WeatherEvent
p51
(dp52
g4
I0
sg5
F744.27512026900001
sg6
I0
sg7
Nsg8
I00
sg9
F744.27513146199999
sg10
(dp53
g12
I0
sg13
I3
sg14
I3
sg15
I0
sg16
I0
sg17
I0
sg18
I0
sg19
I0
sg20
I17
sg21
I0
ssg22
g23
sg24
g25
sg26
I0
sg27
I0
sg28
Nsg29
F1.119299997753842e-05
sba(iandrea.events
WeatherEvent
p54
(dp55
g4
I0
sg5
F754.27675116399996
sg6
I0
sg7
Nsg8
I00
sg9
F754.27676520600005
sg10
(dp56
g12
I0
sg13
I3
sg14
I3
sg15
I0
sg16
I0
sg17
I0
sg18
I0
sg19
I0
sg20
I17
sg21
I0
ssg22
g23
sg24
g25
sg26
I0
sg27
I0
sg28
Nsg29
F1.4042000088920759e-05
sba(iandrea.events
WeatherEvent
p57
(dp58
g4
I0
sg5
F764.27679302499996
sg6
I0
sg7
Nsg8
I00
sg9
F764.27680213400004
sg10
(dp59
g12
I0
sg13
I3
sg14
I3
sg15
I0
sg16
I0
sg17
I0
sg18
I0
sg19
I0
sg20
I17
sg21
I0
ssg22
g23
sg24
g25
sg26
I0
sg27
I0
sg28
Nsg29
F9.1090000751137268e-06
sba(iandrea.events
WeatherEvent
p60
(dp61
g4
I0
sg5
F774.27863951500001
sg6
I0
sg7
Nsg8
I00
sg9
F774.27864993100002
sg10
(dp62
g12
I0
sg13
I3
sg14
I3
sg15
I0
sg16
I0
sg17
I0
sg18
I0
sg19
I0
sg20
I17
sg21
I0
ssg22
g23
sg24
g25
sg26
I0
sg27
I0
sg28
Nsg29
F1.0416000009172421e-05
sba(iandrea.events
WeatherEvent
p63
(dp64
g4
I0
sg5
F784.27992455200001
sg6
I0
sg7
Nsg8
I00
sg9
F784.27993856700004
sg10
(dp65
g12
I0
sg13
I3
sg14
I3
sg15
I0
sg16
I0
sg17
I0
sg18
I0
sg19
I0
sg20
I17
sg21
I0
ssg22
g23
sg24
g25
sg26
I0
sg27
I0
sg28
Nsg29
F1.4015000033396063e-05
sba(iandrea.events
WeatherEvent
p66
(dp67
g4
I0
sg5
F794.28061675000004
sg6
I0
sg7
Nsg8
I00
sg9
F794.28062496799998
sg10
(dp68
g12
I0
sg13
I3
sg14
I3
sg15
I0
sg16
I0
sg17
I0
sg18
I0
sg19
I0
sg20
I17
sg21
I0
ssg22
g23
sg24
g25
sg26
I0
sg27
I0
sg28
Nsg29
F8.217999948101351e-06
sba(iandrea.events
WeatherEvent
p69
(dp70
g4
I0
sg5
F804.28183978899995
sg6
I0
sg7
Nsg8
I00
sg9
F804.28184886899999
sg10
(dp71
g12
I0
sg13
I3
sg14
I3
sg15
I0
sg16
I0
sg17
I0
sg18
I0
sg19
I0
sg20
I17
sg21
I0
ssg22
g23
sg24
g25
sg26
I0
sg27
I0
sg28
Nsg29
F9.0800000407398329e-06
sba(iandrea.events
WeatherEvent
p72
(dp73
g4
I0
sg5
F814.28261287999999
sg6
I0
sg7
Nsg8
I00
sg9
F814.28262267499997
sg10
(dp74
g12
I0
sg13
I3
sg14
I3
sg15
I0
sg16
I0
sg17
I0
sg18
I0
sg19
I0
sg20
I17
sg21
I0
ssg22
g23
sg24
g25
sg26
I0
sg27
I0
sg28
Nsg29
F9.7949999826596468e-06
sba(iandrea.events
WeatherEvent
p75
(dp76
g4
I0
sg5
F824.28375025800005
sg6
I0
sg7
Nsg8
I00
sg9
F824.28376154399996
sg10
(dp77
g12
I0
sg13
I3
sg14
I3
sg15
I0
sg16
I0
sg17
I0
sg18
I0
sg19
I0
sg20
I17
sg21
I0
ssg22
g23
sg24
g25
sg26
I0
sg27
I0
sg28
Nsg29
F1.128599990352086e-05
sba(iandrea.events
WeatherEvent
p78
(dp79
g4
I0
sg5
F834.28554581200001
sg6
I0
sg7
Nsg8
I00
sg9
F834.28555880099998
sg10
(dp80
g12
I0
sg13
I3
sg14
I3
sg15
I0
sg16
I0
sg17
I0
sg18
I0
sg19
I0
sg20
I17
sg21
I0
ssg22
g23
sg24
g25
sg26
I0
sg27
I0
sg28
Nsg29
F1.2988999969820725e-05
sba(iandrea.events
WeatherEvent
p81
(dp82
g4
I0
sg5
F844.28586018099998
sg6
I0
sg7
Nsg8
I00
sg9
F844.28587042000004
sg10
(dp83
g12
I0
sg13
I3
sg14
I3
sg15
I0
sg16
I0
sg17
I0
sg18
I0
sg19
I0
sg20
I17
sg21
I0
ssg22
g23
sg24
g25
sg26
I0
sg27
I0
sg28
Nsg29
F1.0239000062028936e-05
sba(iandrea.events
WeatherEvent
p84
(dp85
g4
I0
sg5
F854.28664315599997
sg6
I0
sg7
Nsg8
I00
sg9
F854.28665855999998
sg10
(dp86
g12
I0
sg13
I3
sg14
I3
sg15
I0
sg16
I0
sg17
I0
sg18
I0
sg19
I0
sg20
I17
sg21
I0
ssg22
g23
sg24
g25
sg26
I0
sg27
I0
sg28
Nsg29
F1.5404000009766605e-05
sba(iandrea.events
WeatherEvent
p87
(dp88
g4
I0
sg5
F864.28869055500002
sg6
I0
sg7
Nsg8
I00
sg9
F864.28870590400004
sg10
(dp89
g12
I0
sg13
I3
sg14
I3
sg15
I0
sg16
I0
sg17
I0
sg18
I0
sg19
I0
sg20
I17
sg21
I0
ssg22
g23
sg24
g25
sg26
I0
sg27
I0
sg28
Nsg29
F1.5349000022979453e-05
sba.(lp1
(iandrea.events
WeatherEvent
p2
(dp3
S'src'
p4
I0
sS't_i'
p5
F874.28954701099997
sS'level'
p6
I0
sS'res'
p7
NsS'inv'
p8
I00
sS't_f'
p9
F874.28955755200002
sS'etc'
p10
(dp11
S'workers_idle'
p12
I0
sS'workers_busy'
p13
I3
sS'tasks_busy'
p14
I3
sS'MEMOUT'
p15
I0
sS'UNSAT'
p16
I0
sS'TIMEOUT'
p17
I0
sS'ERROR'
p18
I0
sS'tasks_done'
p19
I0
sS'tasks_idle'
p20
I17
sS'SAT'
p21
I0
ssS'gid'
p22
S'wrep'
p23
sS'eid'
p24
S'update'
p25
sS'timeout'
p26
I0
sS'max'
p27
I0
sS'tid'
p28
NsS'dur'
p29
F1.0541000051489391e-05
sba(iandrea.events
WeatherEvent
p30
(dp31
g4
I0
sg5
F884.28973554000004
sg6
I0
sg7
Nsg8
I00
sg9
F884.28974985900004
sg10
(dp32
g12
I0
sg13
I3
sg14
I3
sg15
I0
sg16
I0
sg17
I0
sg18
I0
sg19
I0
sg20
I17
sg21
I0
ssg22
g23
sg24
g25
sg26
I0
sg27
I0
sg28
Nsg29
F1.4319000001705717e-05
sba(iandrea.events
WeatherEvent
p33
(dp34
g4
I0
sg5
F894.29003853400002
sg6
I0
sg7
Nsg8
I00
sg9
F894.29005468299999
sg10
(dp35
g12
I0
sg13
I3
sg14
I3
sg15
I0
sg16
I0
sg17
I0
sg18
I0
sg19
I0
sg20
I17
sg21
I0
ssg22
g23
sg24
g25
sg26
I0
sg27
I0
sg28
Nsg29
F1.6148999975484912e-05
sba(iandrea.events
WeatherEvent
p36
(dp37
g4
I0
sg5
F904.29206372700003
sg6
I0
sg7
Nsg8
I00
sg9
F904.29207531500003
sg10
(dp38
g12
I0
sg13
I3
sg14
I3
sg15
I0
sg16
I0
sg17
I0
sg18
I0
sg19
I0
sg20
I17
sg21
I0
ssg22
g23
sg24
g25
sg26
I0
sg27
I0
sg28
Nsg29
F1.1588000006668153e-05
sba(iandrea.events
WeatherEvent
p39
(dp40
g4
I0
sg5
F914.29358670500005
sg6
I0
sg7
Nsg8
I00
sg9
F914.29359858299995
sg10
(dp41
g12
I0
sg13
I3
sg14
I3
sg15
I0
sg16
I0
sg17
I0
sg18
I0
sg19
I0
sg20
I17
sg21
I0
ssg22
g23
sg24
g25
sg26
I0
sg27
I0
sg28
Nsg29
F1.1877999895659741e-05
sba(iandrea.events
WeatherEvent
p42
(dp43
g4
I0
sg5
F924.29412246799996
sg6
I0
sg7
Nsg8
I00
sg9
F924.29413322000005
sg10
(dp44
g12
I0
sg13
I3
sg14
I3
sg15
I0
sg16
I0
sg17
I0
sg18
I0
sg19
I0
sg20
I17
sg21
I0
ssg22
g23
sg24
g25
sg26
I0
sg27
I0
sg28
Nsg29
F1.0752000093816605e-05
sba(iandrea.events
WeatherEvent
p45
(dp46
g4
I0
sg5
F934.29434029100003
sg6
I0
sg7
Nsg8
I00
sg9
F934.29435073499997
sg10
(dp47
g12
I0
sg13
I3
sg14
I3
sg15
I0
sg16
I0
sg17
I0
sg18
I0
sg19
I0
sg20
I17
sg21
I0
ssg22
g23
sg24
g25
sg26
I0
sg27
I0
sg28
Nsg29
F1.0443999940434878e-05
sba(iandrea.events
WeatherEvent
p48
(dp49
g4
I0
sg5
F944.29483534400003
sg6
I0
sg7
Nsg8
I00
sg9
F944.29485111099996
sg10
(dp50
g12
I0
sg13
I3
sg14
I3
sg15
I0
sg16
I0
sg17
I0
sg18
I0
sg19
I0
sg20
I17
sg21
I0
ssg22
g23
sg24
g25
sg26
I0
sg27
I0
sg28
Nsg29
F1.5766999922561808e-05
sba(iandrea.events
WeatherEvent
p51
(dp52
g4
I0
sg5
F954.29664707699999
sg6
I0
sg7
Nsg8
I00
sg9
F954.296656902
sg10
(dp53
g12
I0
sg13
I3
sg14
I3
sg15
I0
sg16
I0
sg17
I0
sg18
I0
sg19
I0
sg20
I17
sg21
I0
ssg22
g23
sg24
g25
sg26
I0
sg27
I0
sg28
Nsg29
F9.82500000645814e-06
sba(iandrea.events
WeatherEvent
p54
(dp55
g4
I0
sg5
F964.29689515200005
sg6
I0
sg7
Nsg8
I00
sg9
F964.29692791800005
sg10
(dp56
g12
I0
sg13
I3
sg14
I3
sg15
I0
sg16
I0
sg17
I0
sg18
I0
sg19
I0
sg20
I17
sg21
I0
ssg22
g23
sg24
g25
sg26
I0
sg27
I0
sg28
Nsg29
F3.2766000003903173e-05
sba(iandrea.events
WeatherEvent
p57
(dp58
g4
I0
sg5
F974.29857816699996
sg6
I0
sg7
Nsg8
I00
sg9
F974.29858820899994
sg10
(dp59
g12
I0
sg13
I3
sg14
I3
sg15
I0
sg16
I0
sg17
I0
sg18
I0
sg19
I0
sg20
I17
sg21
I0
ssg22
g23
sg24
g25
sg26
I0
sg27
I0
sg28
Nsg29
F1.004199998533295e-05
sba(iandrea.events
WeatherEvent
p60
(dp61
g4
I0
sg5
F984.29909325300002
sg6
I0
sg7
Nsg8
I00
sg9
F984.299102694
sg10
(dp62
g12
I0
sg13
I3
sg14
I3
sg15
I0
sg16
I0
sg17
I0
sg18
I0
sg19
I0
sg20
I17
sg21
I0
ssg22
g23
sg24
g25
sg26
I0
sg27
I0
sg28
Nsg29
F9.4409999746858375e-06
sba(iandrea.events
WeatherEvent
p63
(dp64
g4
I0
sg5
F994.30051481600003
sg6
I0
sg7
Nsg8
I00
sg9
F994.30052508599999
sg10
(dp65
g12
I0
sg13
I3
sg14
I3
sg15
I0
sg16
I0
sg17
I0
sg18
I0
sg19
I0
sg20
I17
sg21
I0
ssg22
g23
sg24
g25
sg26
I0
sg27
I0
sg28
Nsg29
F1.026999996156519e-05
sba(iandrea.events
WeatherEvent
p66
(dp67
g4
I0
sg5
F1004.302410096
sg6
I0
sg7
Nsg8
I00
sg9
F1004.302422151
sg10
(dp68
g12
I0
sg13
I3
sg14
I3
sg15
I0
sg16
I0
sg17
I0
sg18
I0
sg19
I0
sg20
I17
sg21
I0
ssg22
g23
sg24
g25
sg26
I0
sg27
I0
sg28
Nsg29
F1.2054999956490065e-05
sba(iandrea.events
WeatherEvent
p69
(dp70
g4
I0
sg5
F1014.302576218
sg6
I0
sg7
Nsg8
I00
sg9
F1014.302587421
sg10
(dp71
g12
I0
sg13
I3
sg14
I3
sg15
I0
sg16
I0
sg17
I0
sg18
I0
sg19
I0
sg20
I17
sg21
I0
ssg22
g23
sg24
g25
sg26
I0
sg27
I0
sg28
Nsg29
F1.1202999985471251e-05
sba(iandrea.events
WeatherEvent
p72
(dp73
g4
I0
sg5
F1024.303421934
sg6
I0
sg7
Nsg8
I00
sg9
F1024.3034317619999
sg10
(dp74
g12
I0
sg13
I3
sg14
I3
sg15
I0
sg16
I0
sg17
I0
sg18
I0
sg19
I0
sg20
I17
sg21
I0
ssg22
g23
sg24
g25
sg26
I0
sg27
I0
sg28
Nsg29
F9.827999974731938e-06
sba(iandrea.events
WeatherEvent
p75
(dp76
g4
I0
sg5
F1034.3039464650001
sg6
I0
sg7
Nsg8
I00
sg9
F1034.3039526110001
sg10
(dp77
g12
I0
sg13
I3
sg14
I3
sg15
I0
sg16
I0
sg17
I0
sg18
I0
sg19
I0
sg20
I17
sg21
I0
ssg22
g23
sg24
g25
sg26
I0
sg27
I0
sg28
Nsg29
F6.1460000324586872e-06
sba(iandrea.events
WeatherEvent
p78
(dp79
g4
I0
sg5
F1044.304517623
sg6
I0
sg7
Nsg8
I00
sg9
F1044.304527475
sg10
(dp80
g12
I0
sg13
I3
sg14
I3
sg15
I0
sg16
I0
sg17
I0
sg18
I0
sg19
I0
sg20
I17
sg21
I0
ssg22
g23
sg24
g25
sg26
I0
sg27
I0
sg28
Nsg29
F9.8519999482959975e-06
sba(iandrea.events
WeatherEvent
p81
(dp82
g4
I0
sg5
F1054.3048654520001
sg6
I0
sg7
Nsg8
I00
sg9
F1054.3048747759999
sg10
(dp83
g12
I0
sg13
I3
sg14
I3
sg15
I0
sg16
I0
sg17
I0
sg18
I0
sg19
I0
sg20
I17
sg21
I0
ssg22
g23
sg24
g25
sg26
I0
sg27
I0
sg28
Nsg29
F9.3239998477656627e-06
sba(iandrea.events
WeatherEvent
p84
(dp85
g4
I0
sg5
F1064.3061799229999
sg6
I0
sg7
Nsg8
I00
sg9
F1064.3061937980001
sg10
(dp86
g12
I0
sg13
I3
sg14
I3
sg15
I0
sg16
I0
sg17
I0
sg18
I0
sg19
I0
sg20
I17
sg21
I0
ssg22
g23
sg24
g25
sg26
I0
sg27
I0
sg28
Nsg29
F1.3875000149710104e-05
sba(iandrea.events
WeatherEvent
p87
(dp88
g4
I0
sg5
F1074.3064940730001
sg6
I0
sg7
Nsg8
I00
sg9
F1074.3065046730001
sg10
(dp89
g12
I0
sg13
I3
sg14
I3
sg15
I0
sg16
I0
sg17
I0
sg18
I0
sg19
I0
sg20
I17
sg21
I0
ssg22
g23
sg24
g25
sg26
I0
sg27
I0
sg28
Nsg29
F1.059999999597494e-05
sba.(lp1
(iandrea.events
WeatherEvent
p2
(dp3
S'src'
p4
I0
sS't_i'
p5
F1084.308146629
sS'level'
p6
I0
sS'res'
p7
NsS'inv'
p8
I00
sS't_f'
p9
F1084.3081593930001
sS'etc'
p10
(dp11
S'workers_idle'
p12
I0
sS'workers_busy'
p13
I3
sS'tasks_busy'
p14
I3
sS'MEMOUT'
p15
I0
sS'UNSAT'
p16
I0
sS'TIMEOUT'
p17
I0
sS'ERROR'
p18
I0
sS'tasks_done'
p19
I0
sS'tasks_idle'
p20
I17
sS'SAT'
p21
I0
ssS'gid'
p22
S'wrep'
p23
sS'eid'
p24
S'update'
p25
sS'timeout'
p26
I0
sS'max'
p27
I0
sS'tid'
p28
NsS'dur'
p29
F1.276400007554912e-05
sba(iandrea.events
WeatherEvent
p30
(dp31
g4
I0
sg5
F1094.3081653520001
sg6
I0
sg7
Nsg8
I00
sg9
F1094.308174087
sg10
(dp32
g12
I0
sg13
I3
sg14
I3
sg15
I0
sg16
I0
sg17
I0
sg18
I0
sg19
I0
sg20
I17
sg21
I0
ssg22
g23
sg24
g25
sg26
I0
sg27
I0
sg28
Nsg29
F8.7349999375874177e-06
sba(iandrea.events
WeatherEvent
p33
(dp34
g4
I0
sg5
F1104.3096249939999
sg6
I0
sg7
Nsg8
I00
sg9
F1104.309633649
sg10
(dp35
g12
I0
sg13
I3
sg14
I3
sg15
I0
sg16
I0
sg17
I0
sg18
I0
sg19
I0
sg20
I17
sg21
I0
ssg22
g23
sg24
g25
sg26
I0
sg27
I0
sg28
Nsg29
F8.6550001014984446e-06
sba(iandrea.events
WeatherEvent
p36
(dp37
g4
I0
sg5
F1114.309965103
sg6
I0
sg7
Nsg8
I00
sg9
F1114.3099784460001
sg10
(dp38
g12
I0
sg13
I3
sg14
I3
sg15
I0
sg16
I0
sg17
I0
sg18
I0
sg19
I0
sg20
I17
sg21
I0
ssg22
g23
sg24
g25
sg26
I0
sg27
I0
sg28
Nsg29
F1.3343000091481372e-05
sba(iandrea.events
WeatherEvent
p39
(dp40
g4
I0
sg5
F1124.3107667690001
sg6
I0
sg7
Nsg8
I00
sg9
F1124.31077413
sg10
(dp41
g12
I0
sg13
I3
sg14
I3
sg15
I0
sg16
I0
sg17
I0
sg18
I0
sg19
I0
sg20
I17
sg21
I0
ssg22
g23
sg24
g25
sg26
I0
sg27
I0
sg28
Nsg29
F7.3609999162727036e-06
sba(iandrea.events
WeatherEvent
p42
(dp43
g4
I0
sg5
F1134.311244406
sg6
I0
sg7
Nsg8
I00
sg9
F1134.311251309
sg10
(dp44
g12
I0
sg13
I3
sg14
I3
sg15
I0
sg16
I0
sg17
I0
sg18
I0
sg19
I0
sg20
I17
sg21
I0
ssg22
g23
sg24
g25
sg26
I0
sg27
I0
sg28
Nsg29
F6.902999984959024e-06
sba(iandrea.events
WeatherEvent
p45
(dp46
g4
I0
sg5
F1144.313284928
sg6
I0
sg7
Nsg8
I00
sg9
F1144.3133016100001
sg10
(dp47
g12
I0
sg13
I3
sg14
I3
sg15
I0
sg16
I0
sg17
I0
sg18
I0
sg19
I0
sg20
I17
sg21
I0
ssg22
g23
sg24
g25
sg26
I0
sg27
I0
sg28
Nsg29
F1.6682000023138244e-05
sba(iandrea.events
WeatherEvent
p48
(dp49
g4
I0
sg5
F1154.3143008259999
sg6
I0
sg7
Nsg8
I00
sg9
F1154.3143203489999
sg10
(dp50
g12
I0
sg13
I3
sg14
I3
sg15
I0
sg16
I0
sg17
I0
sg18
I0
sg19
I0
sg20
I17
sg21
I0
ssg22
g23
sg24
g25
sg26
I0
sg27
I0
sg28
Nsg29
F1.9522999991750112e-05
sba(iandrea.events
WeatherEvent
p51
(dp52
g4
I0
sg5
F1164.3148216950001
sg6
I0
sg7
Nsg8
I00
sg9
F1164.3148314130001
sg10
(dp53
g12
I0
sg13
I3
sg14
I3
sg15
I0
sg16
I0
sg17
I0
sg18
I0
sg19
I0
sg20
I17
sg21
I0
ssg22
g23
sg24
g25
sg26
I0
sg27
I0
sg28
Nsg29
F9.718000001157634e-06
sba(iandrea.events
WeatherEvent
p54
(dp55
g4
I0
sg5
F1174.314920756
sg6
I0
sg7
Nsg8
I00
sg9
F1174.3149462670001
sg10
(dp56
g12
I0
sg13
I3
sg14
I3
sg15
I0
sg16
I0
sg17
I0
sg18
I0
sg19
I0
sg20
I17
sg21
I0
ssg22
g23
sg24
g25
sg26
I0
sg27
I0
sg28
Nsg29
F2.5511000103506376e-05
sba(iandrea.events
WeatherEvent
p57
(dp58
g4
I0
sg5
F1184.316345706
sg6
I0
sg7
Nsg8
I00
sg9
F1184.3163610829999
sg10
(dp59
g12
I0
sg13
I3
sg14
I3
sg15
I0
sg16
I0
sg17
I0
sg18
I0
sg19
I0
sg20
I17
sg21
I0
ssg22
g23
sg24
g25
sg26
I0
sg27
I0
sg28
Nsg29
F1.537699995424191e-05
sba(iandrea.events
WeatherEvent
p60
(dp61
g4
I0
sg5
F1194.3168268530001
sg6
I0
sg7
Nsg8
I00
sg9
F1194.316845069
sg10
(dp62
g12
I0
sg13
I3
sg14
I3
sg15
I0
sg16
I0
sg17
I0
sg18
I0
sg19
I0
sg20
I17
sg21
I0
ssg22
g23
sg24
g25
sg26
I0
sg27
I0
sg28
Nsg29
F1.8215999944004579e-05
sba(iandrea.events
WeatherEvent
p63
(dp64
g4
I0
sg5
F1204.3181292100001
sg6
I0
sg7
Nsg8
I00
sg9
F1204.3181403460001
sg10
(dp65
g12
I0
sg13
I3
sg14
I3
sg15
I0
sg16
I0
sg17
I0
sg18
I0
sg19
I0
sg20
I17
sg21
I0
ssg22
g23
sg24
g25
sg26
I0
sg27
I0
sg28
Nsg29
F1.113600001190207e-05
sba(iandrea.events
WeatherEvent
p66
(dp67
g4
I0
sg5
F1214.319388165
sg6
I0
sg7
Nsg8
I00
sg9
F1214.3193970360001
sg10
(dp68
g12
I0
sg13
I3
sg14
I3
sg15
I0
sg16
I0
sg17
I0
sg18
I0
sg19
I0
sg20
I17
sg21
I0
ssg22
g23
sg24
g25
sg26
I0
sg27
I0
sg28
Nsg29
F8.8710000909486553e-06
sba(iandrea.events
WeatherEvent
p69
(dp70
g4
I0
sg5
F1224.321318063
sg6
I0
sg7
Nsg8
I00
sg9
F1224.321330038
sg10
(dp71
g12
I0
sg13
I3
sg14
I3
sg15
I0
sg16
I0
sg17
I0
sg18
I0
sg19
I0
sg20
I17
sg21
I0
ssg22
g23
sg24
g25
sg26
I0
sg27
I0
sg28
Nsg29
F1.1975000006714254e-05
sba(iandrea.events
WeatherEvent
p72
(dp73
g4
I0
sg5
F1234.3234393360001
sg6
I0
sg7
Nsg8
I00
sg9
F1234.323449172
sg10
(dp74
g12
I0
sg13
I3
sg14
I3
sg15
I0
sg16
I0
sg17
I0
sg18
I0
sg19
I0
sg20
I17
sg21
I0
ssg22
g23
sg24
g25
sg26
I0
sg27
I0
sg28
Nsg29
F9.8359998901287327e-06
sba(iandrea.events
WeatherEvent
p75
(dp76
g4
I0
sg5
F1244.3238079610001
sg6
I0
sg7
Nsg8
I00
sg9
F1244.3238165780001
sg10
(dp77
g12
I0
sg13
I3
sg14
I3
sg15
I0
sg16
I0
sg17
I0
sg18
I0
sg19
I0
sg20
I17
sg21
I0
ssg22
g23
sg24
g25
sg26
I0
sg27
I0
sg28
Nsg29
F8.617000048616319e-06
sba(iandrea.events
WeatherEvent
p78
(dp79
g4
I0
sg5
F1254.3251021900001
sg6
I0
sg7
Nsg8
I00
sg9
F1254.3251085730001
sg10
(dp80
g12
I0
sg13
I3
sg14
I3
sg15
I0
sg16
I0
sg17
I0
sg18
I0
sg19
I0
sg20
I17
sg21
I0
ssg22
g23
sg24
g25
sg26
I0
sg27
I0
sg28
Nsg29
F6.3830000271991594e-06
sba(iandrea.events
WeatherEvent
p81
(dp82
g4
I0
sg5
F1264.326934638
sg6
I0
sg7
Nsg8
I00
sg9
F1264.326947858
sg10
(dp83
g12
I0
sg13
I3
sg14
I3
sg15
I0
sg16
I0
sg17
I0
sg18
I0
sg19
I0
sg20
I17
sg21
I0
ssg22
g23
sg24
g25
sg26
I0
sg27
I0
sg28
Nsg29
F1.3220000028013601e-05
sba(iandrea.events
WeatherEvent
p84
(dp85
g4
I0
sg5
F1274.328468227
sg6
I0
sg7
Nsg8
I00
sg9
F1274.328477279
sg10
(dp86
g12
I0
sg13
I3
sg14
I3
sg15
I0
sg16
I0
sg17
I0
sg18
I0
sg19
I0
sg20
I17
sg21
I0
ssg22
g23
sg24
g25
sg26
I0
sg27
I0
sg28
Nsg29
F9.0519999957905384e-06
sba(iandrea.events
WeatherEvent
p87
(dp88
g4
I0
sg5
F1284.3302533569999
sg6
I0
sg7
Nsg8
I00
sg9
F1284.330262614
sg10
(dp89
g12
I0
sg13
I3
sg14
I3
sg15
I0
sg16
I0
sg17
I0
sg18
I0
sg19
I0
sg20
I17
sg21
I0
ssg22
g23
sg24
g25
sg26
I0
sg27
I0
sg28
Nsg29
F9.2570001015701564e-06
sba.(lp1
(iandrea.events
WeatherEvent
p2
(dp3
S'src'
p4
I0
sS't_i'
p5
F1294.330931102
sS'level'
p6
I0
sS'res'
p7
NsS'inv'
p8
I00
sS't_f'
p9
F1294.3309417800001
sS'etc'
p10
(dp11
S'workers_idle'
p12
I0
sS'workers_busy'
p13
I3
sS'tasks_busy'
p14
I3
sS'MEMOUT'
p15
I0
sS'UNSAT'
p16
I0
sS'TIMEOUT'
p17
I0
sS'ERROR'
p18
I0
sS'tasks_done'
p19
I0
sS'tasks_idle'
p20
I17
sS'SAT'
p21
I0
ssS'gid'
p22
S'wrep'
p23
sS'eid'
p24
S'update'
p25
sS'timeout'
p26
I0
sS'max'
p27
I0
sS'tid'
p28
NsS'dur'
p29
F1.067800008058839e-05
sba(iandrea.events
WeatherEvent
p30
(dp31
g4
I0
sg5
F1304.3317504720001
sg6
I0
sg7
Nsg8
I00
sg9
F1304.331762845
sg10
(dp32
g12
I0
sg13
I3
sg14
I3
sg15
I0
sg16
I0
sg17
I0
sg18
I0
sg19
I0
sg20
I17
sg21
I0
ssg22
g23
sg24
g25
sg26
I0
sg27
I0
sg28
Nsg29
F1.2372999890430947e-05
sba(iandrea.events
WeatherEvent
p33
(dp34
g4
I0
sg5
F1314.3335040950001
sg6
I0
sg7
Nsg8
I00
sg9
F1314.333512806
sg10
(dp35
g12
I0
sg13
I3
sg14
I3
sg15
I0
sg16
I0
sg17
I0
sg18
I0
sg19
I0
sg20
I17
sg21
I0
ssg22
g23
sg24
g25
sg26
I0
sg27
I0
sg28
Nsg29
F8.7109999640233582e-06
sba(iandrea.events
WeatherEvent
p36
(dp37
g4
I0
sg5
F1324.3344300860001
sg6
I0
sg7
Nsg8
I00
sg9
F1324.334439727
sg10
(dp38
g12
I0
sg13
I3
sg14
I3
sg15
I0
sg16
I0
sg17
I0
sg18
I0
sg19
I0
sg20
I17
sg21
I0
ssg22
g23
sg24
g25
sg26
I0
sg27
I0
sg28
Nsg29
F9.6409999059687834e-06
sba(iandrea.events
WeatherEvent
p39
(dp40
g4
I0
sg5
F1334.3345881590001
sg6
I0
sg7
Nsg8
I00
sg9
F1334.334599974
sg10
(dp41
g12
I0
sg13
I3
sg14
I3
sg15
I0
sg16
I0
sg17
I0
sg18
I0
sg19
I0
sg20
I17
sg21
I0
ssg22
g23
sg24
g25
sg26
I0
sg27
I0
sg28
Nsg29
F1.1814999879788957e-05
sba(iandrea.events
WeatherEvent
p42
(dp43
g4
I0
sg5
F1344.3359965479999
sg6
I0
sg7
Nsg8
I00
sg9
F1344.3360044650001
sg10
(dp44
g12
I0
sg13
I3
sg14
I3
sg15
I0
sg16
I0
sg17
I0
sg18
I0
sg19
I0
sg20
I17
sg21
I0
ssg22
g23
sg24
g25
sg26
I0
sg27
I0
sg28
Nsg29
F7.9170001754391706e-06
sba(iandrea.events
WeatherEvent
p45
(dp46
g4
I0
sg5
F1354.3379471870001
sg6
I0
sg7
Nsg8
I00
sg9
F1354.337952546
sg10
(dp47
g12
I0
sg13
I3
sg14
I3
sg15
I0
sg16
I0
sg17
I0
sg18
I0
sg19
I0
sg20
I17
sg21
I0
ssg22
g23
sg24
g25
sg26
I0
sg27
I0
sg28
Nsg29
F5.3589999424730195e-06
sba(iandrea.events
WeatherEvent
p48
(dp49
g4
I0
sg5
F1364.339201496
sg6
I0
sg7
Nsg8
I00
sg9
F1364.3392104879999
sg10
(dp50
g12
I0
sg13
I3
sg14
I3
sg15
I0
sg16
I0
sg17
I0
sg18
I0
sg19
I0
sg20
I17
sg21
I0
ssg22
g23
sg24
g25
sg26
I0
sg27
I0
sg28
Nsg29
F8.991999948193552e-06
sba(iandrea.events
WeatherEvent
p51
(dp52
g4
I0
sg5
F1374.3396905659999
sg6
I0
sg7
Nsg8
I00
sg9
F1374.3397045439999
sg10
(dp53
g12
I0
sg13
I3
sg14
I3
sg15
I0
sg16
I0
sg17
I0
sg18
I0
sg19
I0
sg20
I17
sg21
I0
ssg22
g23
sg24
g25
sg26
I0
sg27
I0
sg28
Nsg29
F1.3977999969938537e-05
sba(iandrea.events
WeatherEvent
p54
(dp55
g4
I0
sg5
F1384.3410326190001
sg6
I0
sg7
Nsg8
I00
sg9
F1384.341039851
sg10
(dp56
g12
I0
sg13
I3
sg14
I3
sg15
I0
sg16
I0
sg17
I0
sg18
I0
sg19
I0
sg20
I17
sg21
I0
ssg22
g23
sg24
g25
sg26
I0
sg27
I0
sg28
Nsg29
F7.2319999162573367e-06
sba(iandrea.events
WeatherEvent
p57
(dp58
g4
I0
sg5
F1394.342894293
sg6
I0
sg7
Nsg8
I00
sg9
F1394.3429176249999
sg10
(dp59
g12
I0
sg13
I3
sg14
I3
sg15
I0
sg16
I0
sg17
I0
sg18
I0
sg19
I0
sg20
I17
sg21
I0
ssg22
g23
sg24
g25
sg26
I0
sg27
I0
sg28
Nsg29
F2.3331999955189531e-05
sba(iandrea.events
WeatherEvent
p60
(dp61
g4
I0
sg5
F1404.344980307
sg6
I0
sg7
Nsg8
I00
sg9
F1404.3449865529999
sg10
(dp62
g12
I0
sg13
I3
sg14
I3
sg15
I0
sg16
I0
sg17
I0
sg18
I0
sg19
I0
sg20
I17
sg21
I0
ssg22
g23
sg24
g25
sg26
I0
sg27
I0
sg28
Nsg29
F6.2459998844133224e-06
sba(iandrea.events
WeatherEvent
p63
(dp64
g4
I0
sg5
F1414.3451557609999
sg6
I0
sg7
Nsg8
I00
sg9
F1414.3451702909999
sg10
(dp65
g12
I0
sg13
I3
sg14
I3
sg15
I0
sg16
I0
sg17
I0
sg18
I0
sg19
I0
sg20
I17
sg21
I0
ssg22
g23
sg24
g25
sg26
I0
sg27
I0
sg28
Nsg29
F1.4530000044032931e-05
sba(iandrea.events
WeatherEvent
p66
(dp67
g4
I0
sg5
F1424.34710526
sg6
I0
sg7
Nsg8
I00
sg9
F1424.3471148409999
sg10
(dp68
g12
I0
sg13
I3
sg14
I3
sg15
I0
sg16
I0
sg17
I0
sg18
I0
sg19
I0
sg20
I17
sg21
I0
ssg22
g23
sg24
g25
sg26
I0
sg27
I0
sg28
Nsg29
F9.580999858371797e-06
sba(iandrea.events
WeatherEvent
p69
(dp70
g4
I0
sg5
F1434.347782434
sg6
I0
sg7
Nsg8
I00
sg9
F1434.347794279
sg10
(dp71
g12
I0
sg13
I3
sg14
I3
sg15
I0
sg16
I0
sg17
I0
sg18
I0
sg19
I0
sg20
I17
sg21
I0
ssg22
g23
sg24
g25
sg26
I0
sg27
I0
sg28
Nsg29
F1.1845000017274288e-05
sba(iandrea.events
WeatherEvent
p72
(dp73
g4
I0
sg5
F1444.349010311
sg6
I0
sg7
Nsg8
I00
sg9
F1444.349019363
sg10
(dp74
g12
I0
sg13
I3
sg14
I3
sg15
I0
sg16
I0
sg17
I0
sg18
I0
sg19
I0
sg20
I17
sg21
I0
ssg22
g23
sg24
g25
sg26
I0
sg27
I0
sg28
Nsg29
F9.0519999957905384e-06
sba(iandrea.events
WeatherEvent
p75
(dp76
g4
I0
sg5
F1454.349334518
sg6
I0
sg7
Nsg8
I00
sg9
F1454.349344042
sg10
(dp77
g12
I0
sg13
I3
sg14
I3
sg15
I0
sg16
I0
sg17
I0
sg18
I0
sg19
I0
sg20
I17
sg21
I0
ssg22
g23
sg24
g25
sg26
I0
sg27
I0
sg28
Nsg29
F9.5240000064222841e-06
sba(iandrea.events
WeatherEvent
p78
(dp79
g4
I0
sg5
F1464.349839814
sg6
I0
sg7
Nsg8
I00
sg9
F1464.3498459719999
sg10
(dp80
g12
I0
sg13
I3
sg14
I3
sg15
I0
sg16
I0
sg17
I0
sg18
I0
sg19
I0
sg20
I17
sg21
I0
ssg22
g23
sg24
g25
sg26
I0
sg27
I0
sg28
Nsg29
F6.1579999055538792e-06
sba(iandrea.events
WeatherEvent
p81
(dp82
g4
I0
sg5
F1474.3509907949999
sg6
I0
sg7
Nsg8
I00
sg9
F1474.350996595
sg10
(dp83
g12
I0
sg13
I3
sg14
I3
sg15
I0
sg16
I0
sg17
I0
sg18
I0
sg19
I0
sg20
I17
sg21
I0
ssg22
g23
sg24
g25
sg26
I0
sg27
I0
sg28
Nsg29
F5.8000000535685103e-06
sba(iandrea.events
WeatherEvent
p84
(dp85
g4
I0
sg5
F1484.353012516
sg6
I0
sg7
Nsg8
I00
sg9
F1484.3530223749999
sg10
(dp86
g12
I0
sg13
I3
sg14
I3
sg15
I0
sg16
I0
sg17
I0
sg18
I0
sg19
I0
sg20
I17
sg21
I0
ssg22
g23
sg24
g25
sg26
I0
sg27
I0
sg28
Nsg29
F9.8589998742681928e-06
sba(iandrea.events
WeatherEvent
p87
(dp88
g4
I0
sg5
F1494.353104625
sg6
I0
sg7
Nsg8
I00
sg9
F1494.3531091570001
sg10
(dp89
g12
I0
sg13
I3
sg14
I3
sg15
I0
sg16
I0
sg17
I0
sg18
I0
sg19
I0
sg20
I17
sg21
I0
ssg22
g23
sg24
g25
sg26
I0
sg27
I0
sg28
Nsg29
F4.5320000481297029e-06
sba.