(lp1
(iandrea.events
WeatherEvent
p2
(dp3
S'src'
p4
I0
sS't_i'
p5
F0.0065155500000000002
sS'level'
p6
I0
sS'res'
p7
NsS'inv'
p8
I00
sS't_f'
p9
F0.0065274560000000001
sS'etc'
p10
(dp11
S'workers_idle'
p12
I0
sS'workers_busy'
p13
I0
sS'tasks_busy'
p14
I0
sS'MEMOUT'
p15
I0
sS'UNSAT'
p16
I0
sS'TIMEOUT'
p17
I0
sS'ERROR'
p18
I0
sS'tasks_done'
p19
I0
sS'tasks_idle'
p20
I0
sS'SAT'
p21
I0
ssS'gid'
p22
S'wrep'
p23
sS'eid'
p24
S'preinit'
p25
sS'timeout'
p26
I0
sS'max'
p27
I0
sS'tid'
p28
NsS'dur'
p29
F1.1905999999999896e-05
sba(iandrea.events
Event
p30
(dp31
g4
I0
sg5
F0.006617731
sg6
I0
sg7
S'1 tasks'
p32
sg8
I00
sg9
F21.690161273000001
sg10
(dp33
sg22
S'main'
p34
sg24
S'queue.create'
p35
sg26
I0
sg27
I0
sg28
Nsg29
F21.683543542000002
sba(iandrea.events
WeatherEvent
p36
(dp37
g4
I0
sg5
F21.690270921
sg6
I0
sg7
Nsg8
I00
sg9
F21.690276846
sg10
(dp38
g12
I0
sg13
I0
sg14
I0
sg15
I0
sg16
I0
sg17
I0
sg18
I0
sg19
I0
sg20
I1
sg21
I0
ssg22
g23
sg24
S'initial'
p39
sg26
I0
sg27
I0
sg28
Nsg29
F5.9249999999622105e-06
sba(iandrea.events
WeatherEvent
p40
(dp41
g4
I0
sg5
F31.692619263000001
sg6
I0
sg7
Nsg8
I00
sg9
F31.692631304999999
sg10
(dp42
g12
I0
sg13
I0
sg14
I0
sg15
I0
sg16
I0
sg17
I0
sg18
I0
sg19
I0
sg20
I1
sg21
I0
ssg22
g23
sg24
S'update'
p43
sg26
I0
sg27
I0
sg28
Nsg29
F1.2041999998047004e-05
sba(iandrea.events
WeatherEvent
p44
(dp45
g4
I0
sg5
F41.692910120999997
sg6
I0
sg7
Nsg8
I00
sg9
F41.692917459999997
sg10
(dp46
g12
I0
sg13
I0
sg14
I0
sg15
I0
sg16
I0
sg17
I0
sg18
I0
sg19
I0
sg20
I1
sg21
I0
ssg22
g23
sg24
g43
sg26
I0
sg27
I0
sg28
Nsg29
F7.3389999997175437e-06
sba(iandrea.events
WeatherEvent
p47
(dp48
g4
I0
sg5
F51.694356206999998
sg6
I0
sg7
Nsg8
I00
sg9
F51.694370452999998
sg10
(dp49
g12
I0
sg13
I0
sg14
I0
sg15
I0
sg16
I0
sg17
I0
sg18
I0
sg19
I0
sg20
I1
sg21
I0
ssg22
g23
sg24
g43
sg26
I0
sg27
I0
sg28
Nsg29
F1.4245999999218384e-05
sba(iandrea.events
WeatherEvent
p50
(dp51
g4
I0
sg5
F61.695073299000001
sg6
I0
sg7
Nsg8
I00
sg9
F61.69508579
sg10
(dp52
g12
I0
sg13
I0
sg14
I0
sg15
I0
sg16
I0
sg17
I0
sg18
I0
sg19
I0
sg20
I1
sg21
I0
ssg22
g23
sg24
g43
sg26
I0
sg27
I0
sg28
Nsg29
F1.2490999999670294e-05
sba(iandrea.events
WeatherEvent
p53
(dp54
g4
I0
sg5
F71.695142718
sg6
I0
sg7
Nsg8
I00
sg9
F71.695154051000003
sg10
(dp55
g12
I0
sg13
I0
sg14
I0
sg15
I0
sg16
I0
sg17
I0
sg18
I0
sg19
I0
sg20
I1
sg21
I0
ssg22
g23
sg24
g43
sg26
I0
sg27
I0
sg28
Nsg29
F1.1333000003332927e-05
sba(iandrea.events
WeatherEvent
p56
(dp57
g4
I0
sg5
F81.696816623999993
sg6
I0
sg7
Nsg8
I00
sg9
F81.696826217999998
sg10
(dp58
g12
I0
sg13
I0
sg14
I0
sg15
I0
sg16
I0
sg17
I0
sg18
I0
sg19
I0
sg20
I1
sg21
I0
ssg22
g23
sg24
g43
sg26
I0
sg27
I0
sg28
Nsg29
F9.5940000051086827e-06
sba(iandrea.events
WeatherEvent
p59
(dp60
g4
I0
sg5
F91.697383142999996
sg6
I0
sg7
Nsg8
I00
sg9
F91.697394098000004
sg10
(dp61
g12
I0
sg13
I0
sg14
I0
sg15
I0
sg16
I0
sg17
I0
sg18
I0
sg19
I0
sg20
I1
sg21
I0
ssg22
g23
sg24
g43
sg26
I0
sg27
I0
sg28
Nsg29
F1.0955000007584204e-05
sba(iandrea.events
WeatherEvent
p62
(dp63
g4
I0
sg5
F101.698476619
sg6
I0
sg7
Nsg8
I00
sg9
F101.69848809299999
sg10
(dp64
g12
I0
sg13
I0
sg14
I0
sg15
I0
sg16
I0
sg17
I0
sg18
I0
sg19
I0
sg20
I1
sg21
I0
ssg22
g23
sg24
g43
sg26
I0
sg27
I0
sg28
Nsg29
F1.1473999990130324e-05
sba(iandrea.events
WeatherEvent
p65
(dp66
g4
I0
sg5
F111.70031158
sg6
I0
sg7
Nsg8
I00
sg9
F111.70032166199999
sg10
(dp67
g12
I0
sg13
I0
sg14
I0
sg15
I0
sg16
I0
sg17
I0
sg18
I0
sg19
I0
sg20
I1
sg21
I0
ssg22
g23
sg24
g43
sg26
I0
sg27
I0
sg28
Nsg29
F1.0081999988642565e-05
sba(iandrea.events
WeatherEvent
p68
(dp69
g4
I0
sg5
F121.70214785500001
sg6
I0
sg7
Nsg8
I00
sg9
F121.702155621
sg10
(dp70
g12
I0
sg13
I0
sg14
I0
sg15
I0
sg16
I0
sg17
I0
sg18
I0
sg19
I0
sg20
I1
sg21
I0
ssg22
g23
sg24
g43
sg26
I0
sg27
I0
sg28
Nsg29
F7.7659999959678316e-06
sba(iandrea.events
WeatherEvent
p71
(dp72
g4
I0
sg5
F131.702592138
sg6
I0
sg7
Nsg8
I00
sg9
F131.70260060699999
sg10
(dp73
g12
I0
sg13
I0
sg14
I0
sg15
I0
sg16
I0
sg17
I0
sg18
I0
sg19
I0
sg20
I1
sg21
I0
ssg22
g23
sg24
g43
sg26
I0
sg27
I0
sg28
Nsg29
F8.4689999937381799e-06
sba(iandrea.events
WeatherEvent
p74
(dp75
g4
I0
sg5
F141.70317994600001
sg6
I0
sg7
Nsg8
I00
sg9
F141.70319159600001
sg10
(dp76
g12
I0
sg13
I0
sg14
I0
sg15
I0
sg16
I0
sg17
I0
sg18
I0
sg19
I0
sg20
I1
sg21
I0
ssg22
g23
sg24
g43
sg26
I0
sg27
I0
sg28
Nsg29
F1.1650000004692629e-05
sba(iandrea.events
WeatherEvent
p77
(dp78
g4
I0
sg5
F151.70458387100001
sg6
I0
sg7
Nsg8
I00
sg9
F151.704595539
sg10
(dp79
g12
I0
sg13
I0
sg14
I0
sg15
I0
sg16
I0
sg17
I0
sg18
I0
sg19
I0
sg20
I1
sg21
I0
ssg22
g23
sg24
g43
sg26
I0
sg27
I0
sg28
Nsg29
F1.1667999984865673e-05
sba(iandrea.events
WeatherEvent
p80
(dp81
g4
I0
sg5
F161.70473274599999
sg6
I0
sg7
Nsg8
I00
sg9
F161.704749381
sg10
(dp82
g12
I0
sg13
I0
sg14
I0
sg15
I0
sg16
I0
sg17
I0
sg18
I0
sg19
I0
sg20
I1
sg21
I0
ssg22
g23
sg24
g43
sg26
I0
sg27
I0
sg28
Nsg29
F1.6635000008591305e-05
sba(iandrea.events
WeatherEvent
p83
(dp84
g4
I0
sg5
F171.70530574899999
sg6
I0
sg7
Nsg8
I00
sg9
F171.70531837799999
sg10
(dp85
g12
I0
sg13
I0
sg14
I0
sg15
I0
sg16
I0
sg17
I0
sg18
I0
sg19
I0
sg20
I1
sg21
I0
ssg22
g23
sg24
g43
sg26
I0
sg27
I0
sg28
Nsg29
F1.262899999687761e-05
sba(iandrea.events
WeatherEvent
p86
(dp87
g4
I0
sg5
F181.70655220099999
sg6
I0
sg7
Nsg8
I00
sg9
F181.70656597999999
sg10
(dp88
g12
I0
sg13
I0
sg14
I0
sg15
I0
sg16
I0
sg17
I0
sg18
I0
sg19
I0
sg20
I1
sg21
I0
ssg22
g23
sg24
g43
sg26
I0
sg27
I0
sg28
Nsg29
F1.3778999999658481e-05
sba(iandrea.events
WeatherEvent
p89
(dp90
g4
I0
sg5
F191.70712814699999
sg6
I0
sg7
Nsg8
I00
sg9
F191.707138985
sg10
(dp91
g12
I0
sg13
I0
sg14
I0
sg15
I0
sg16
I0
sg17
I0
sg18
I0
sg19
I0
sg20
I1
sg21
I0
ssg22
g23
sg24
g43
sg26
I0
sg27
I0
sg28
Nsg29
F1.0838000008561721e-05
sba(iandrea.events
WeatherEvent
p92
(dp93
g4
I0
sg5
F201.708891604
sg6
I0
sg7
Nsg8
I00
sg9
F201.70889917900001
sg10
(dp94
g12
I0
sg13
I0
sg14
I0
sg15
I0
sg16
I0
sg17
I0
sg18
I0
sg19
I0
sg20
I1
sg21
I0
ssg22
g23
sg24
g43
sg26
I0
sg27
I0
sg28
Nsg29
F7.5750000121388439e-06
sba.(lp1
(iandrea.events
WeatherEvent
p2
(dp3
S'src'
p4
I0
sS't_i'
p5
F211.70935059799999
sS'level'
p6
I0
sS'res'
p7
NsS'inv'
p8
I00
sS't_f'
p9
F211.709360944
sS'etc'
p10
(dp11
S'workers_idle'
p12
I0
sS'workers_busy'
p13
I0
sS'tasks_busy'
p14
I0
sS'MEMOUT'
p15
I0
sS'UNSAT'
p16
I0
sS'TIMEOUT'
p17
I0
sS'ERROR'
p18
I0
sS'tasks_done'
p19
I0
sS'tasks_idle'
p20
I1
sS'SAT'
p21
I0
ssS'gid'
p22
S'wrep'
p23
sS'eid'
p24
S'update'
p25
sS'timeout'
p26
I0
sS'max'
p27
I0
sS'tid'
p28
NsS'dur'
p29
F1.0346000010486023e-05
sba(iandrea.events
WeatherEvent
p30
(dp31
g4
I0
sg5
F221.709612991
sg6
I0
sg7
Nsg8
I00
sg9
F221.709623846
sg10
(dp32
g12
I0
sg13
I0
sg14
I0
sg15
I0
sg16
I0
sg17
I0
sg18
I0
sg19
I0
sg20
I1
sg21
I0
ssg22
g23
sg24
g25
sg26
I0
sg27
I0
sg28
Nsg29
F1.0854999999310166e-05
sba(iandrea.events
WeatherEvent
p33
(dp34
g4
I0
sg5
F231.710116083
sg6
I0
sg7
Nsg8
I00
sg9
F231.71012941000001
sg10
(dp35
g12
I0
sg13
I0
sg14
I0
sg15
I0
sg16
I0
sg17
I0
sg18
I0
sg19
I0
sg20
I1
sg21
I0
ssg22
g23
sg24
g25
sg26
I0
sg27
I0
sg28
Nsg29
F1.3327000004892398e-05
sba(iandrea.events
WeatherEvent
p36
(dp37
g4
I0
sg5
F241.71178215200001
sg6
I0
sg7
Nsg8
I00
sg9
F241.71179314700001
sg10
(dp38
g12
I0
sg13
I0
sg14
I0
sg15
I0
sg16
I0
sg17
I0
sg18
I0
sg19
I0
sg20
I1
sg21
I0
ssg22
g23
sg24
g25
sg26
I0
sg27
I0
sg28
Nsg29
F1.0994999996682964e-05
sba(iandrea.events
WeatherEvent
p39
(dp40
g4
I0
sg5
F251.71208355100001
sg6
I0
sg7
Nsg8
I00
sg9
F251.71208852800001
sg10
(dp41
g12
I0
sg13
I0
sg14
I0
sg15
I0
sg16
I0
sg17
I0
sg18
I0
sg19
I0
sg20
I1
sg21
I0
ssg22
g23
sg24
g25
sg26
I0
sg27
I0
sg28
Nsg29
F4.9770000032367534e-06
sba(iandrea.events
WeatherEvent
p42
(dp43
g4
I0
sg5
F261.71394824800001
sg6
I0
sg7
Nsg8
I00
sg9
F261.71395948399999
sg10
(dp44
g12
I0
sg13
I0
sg14
I0
sg15
I0
sg16
I0
sg17
I0
sg18
I0
sg19
I0
sg20
I1
sg21
I0
ssg22
g23
sg24
g25
sg26
I0
sg27
I0
sg28
Nsg29
F1.1235999977543543e-05
sba(iandrea.events
WeatherEvent
p45
(dp46
g4
I0
sg5
F271.71545403200003
sg6
I0
sg7
Nsg8
I00
sg9
F271.71546497000003
sg10
(dp47
g12
I0
sg13
I0
sg14
I0
sg15
I0
sg16
I0
sg17
I0
sg18
I0
sg19
I0
sg20
I1
sg21
I0
ssg22
g23
sg24
g25
sg26
I0
sg27
I0
sg28
Nsg29
F1.0938000002624904e-05
sba(iandrea.events
WeatherEvent
p48
(dp49
g4
I0
sg5
F281.715866726
sg6
I0
sg7
Nsg8
I00
sg9
F281.71587766499999
sg10
(dp50
g12
I0
sg13
I0
sg14
I0
sg15
I0
sg16
I0
sg17
I0
sg18
I0
sg19
I0
sg20
I1
sg21
I0
ssg22
g23
sg24
g25
sg26
I0
sg27
I0
sg28
Nsg29
F1.0938999992049503e-05
sba(iandrea.events
WeatherEvent
p51
(dp52
g4
I0
sg5
F291.71771980199998
sg6
I0
sg7
Nsg8
I00
sg9
F291.717728975
sg10
(dp53
g12
I0
sg13
I0
sg14
I0
sg15
I0
sg16
I0
sg17
I0
sg18
I0
sg19
I0
sg20
I1
sg21
I0
ssg22
g23
sg24
g25
sg26
I0
sg27
I0
sg28
Nsg29
F9.1730000235656917e-06
sba(iandrea.events
WeatherEvent
p54
(dp55
g4
I0
sg5
F301.718502097
sg6
I0
sg7
Nsg8
I00
sg9
F301.71851428899998
sg10
(dp56
g12
I0
sg13
I0
sg14
I0
sg15
I0
sg16
I0
sg17
I0
sg18
I0
sg19
I0
sg20
I1
sg21
I0
ssg22
g23
sg24
g25
sg26
I0
sg27
I0
sg28
Nsg29
F1.2191999985589064e-05
sba(iandrea.events
WeatherEvent
p57
(dp58
g4
I0
sg5
F311.71859466299998
sg6
I0
sg7
Nsg8
I00
sg9
F311.71860717999999
sg10
(dp59
g12
I0
sg13
I0
sg14
I0
sg15
I0
sg16
I0
sg17
I0
sg18
I0
sg19
I0
sg20
I1
sg21
I0
ssg22
g23
sg24
g25
sg26
I0
sg27
I0
sg28
Nsg29
F1.2517000016032398e-05
sba(iandrea.events
WeatherEvent
p60
(dp61
g4
I0
sg5
F321.71926908900002
sg6
I0
sg7
Nsg8
I00
sg9
F321.71927950700001
sg10
(dp62
g12
I0
sg13
I0
sg14
I0
sg15
I0
sg16
I0
sg17
I0
sg18
I0
sg19
I0
sg20
I1
sg21
I0
ssg22
g23
sg24
g25
sg26
I0
sg27
I0
sg28
Nsg29
F1.041799998802162e-05
sba(iandrea.events
WeatherEvent
p63
(dp64
g4
I0
sg5
F331.72010552699999
sg6
I0
sg7
Nsg8
I00
sg9
F331.72011664299998
sg10
(dp65
g12
I0
sg13
I0
sg14
I0
sg15
I0
sg16
I0
sg17
I0
sg18
I0
sg19
I0
sg20
I1
sg21
I0
ssg22
g23
sg24
g25
sg26
I0
sg27
I0
sg28
Nsg29
F1.1115999996036408e-05
sba(iandrea.events
WeatherEvent
p66
(dp67
g4
I0
sg5
F341.721726832
sg6
I0
sg7
Nsg8
I00
sg9
F341.72173829600001
sg10
(dp68
g12
I0
sg13
I0
sg14
I0
sg15
I0
sg16
I0
sg17
I0
sg18
I0
sg19
I0
sg20
I1
sg21
I0
ssg22
g23
sg24
g25
sg26
I0
sg27
I0
sg28
Nsg29
F1.1464000010619202e-05
sba(iandrea.events
WeatherEvent
p69
(dp70
g4
I0
sg5
F351.72191267199997
sg6
I0
sg7
Nsg8
I00
sg9
F351.72192302899998
sg10
(dp71
g12
I0
sg13
I0
sg14
I0
sg15
I0
sg16
I0
sg17
I0
sg18
I0
sg19
I0
sg20
I1
sg21
I0
ssg22
g23
sg24
g25
sg26
I0
sg27
I0
sg28
Nsg29
F1.0357000007843453e-05
sba(iandrea.events
WeatherEvent
p72
(dp73
g4
I0
sg5
F361.72231782699998
sg6
I0
sg7
Nsg8
I00
sg9
F361.72232668300001
sg10
(dp74
g12
I0
sg13
I0
sg14
I0
sg15
I0
sg16
I0
sg17
I0
sg18
I0
sg19
I0
sg20
I1
sg21
I0
ssg22
g23
sg24
g25
sg26
I0
sg27
I0
sg28
Nsg29
F8.8560000222059898e-06
sba(iandrea.events
WeatherEvent
p75
(dp76
g4
I0
sg5
F371.72331678900002
sg6
I0
sg7
Nsg8
I00
sg9
F371.72332674500001
sg10
(dp77
g12
I0
sg13
I0
sg14
I0
sg15
I0
sg16
I0
sg17
I0
sg18
I0
sg19
I0
sg20
I1
sg21
I0
ssg22
g23
sg24
g25
sg26
I0
sg27
I0
sg28
Nsg29
F9.9559999853227055e-06
sba(iandrea.events
WeatherEvent
p78
(dp79
g4
I0
sg5
F381.724701315
sg6
I0
sg7
Nsg8
I00
sg9
F381.72470752499999
sg10
(dp80
g12
I0
sg13
I0
sg14
I0
sg15
I0
sg16
I0
sg17
I0
sg18
I0
sg19
I0
sg20
I1
sg21
I0
ssg22
g23
sg24
g25
sg26
I0
sg27
I0
sg28
Nsg29
F6.2099999809106521e-06
sba(iandrea.events
WeatherEvent
p81
(dp82
g4
I0
sg5
F391.72507177
sg6
I0
sg7
Nsg8
I00
sg9
F391.72508682500001
sg10
(dp83
g12
I0
sg13
I0
sg14
I0
sg15
I0
sg16
I0
sg17
I0
sg18
I0
sg19
I0
sg20
I1
sg21
I0
ssg22
g23
sg24
g25
sg26
I0
sg27
I0
sg28
Nsg29
F1.5055000005759211e-05
sba(iandrea.events
WeatherEvent
p84
(dp85
g4
I0
sg5
F401.725495658
sg6
I0
sg7
Nsg8
I00
sg9
F401.72550225700002
sg10
(dp86
g12
I0
sg13
I0
sg14
I0
sg15
I0
sg16
I0
sg17
I0
sg18
I0
sg19
I0
sg20
I1
sg21
I0
ssg22
g23
sg24
g25
sg26
I0
sg27
I0
sg28
Nsg29
F6.5990000166493701e-06
sba(iandrea.events
WeatherEvent
p87
(dp88
g4
I0
sg5
F411.72756436700001
sg6
I0
sg7
Nsg8
I00
sg9
F411.727569426
sg10
(dp89
g12
I0
sg13
I0
sg14
I0
sg15
I0
sg16
I0
sg17
I0
sg18
I0
sg19
I0
sg20
I1
sg21
I0
ssg22
g23
sg24
g25
sg26
I0
sg27
I0
sg28
Nsg29
F5.0589999887051817e-06
sba.(lp1
(iandrea.events
WeatherEvent
p2
(dp3
S'src'
p4
I0
sS't_i'
p5
F421.72899443
sS'level'
p6
I0
sS'res'
p7
NsS'inv'
p8
I00
sS't_f'
p9
F421.728999182
sS'etc'
p10
(dp11
S'workers_idle'
p12
I0
sS'workers_busy'
p13
I0
sS'tasks_busy'
p14
I0
sS'MEMOUT'
p15
I0
sS'UNSAT'
p16
I0
sS'TIMEOUT'
p17
I0
sS'ERROR'
p18
I0
sS'tasks_done'
p19
I0
sS'tasks_idle'
p20
I1
sS'SAT'
p21
I0
ssS'gid'
p22
S'wrep'
p23
sS'eid'
p24
S'update'
p25
sS'timeout'
p26
I0
sS'max'
p27
I0
sS'tid'
p28
NsS'dur'
p29
F4.751999995278311e-06
sba(iandrea.events
WeatherEvent
p30
(dp31
g4
I0
sg5
F431.72965460299997
sg6
I0
sg7
Nsg8
I00
sg9
F431.72966209700002
sg10
(dp32
g12
I0
sg13
I0
sg14
I0
sg15
I0
sg16
I0
sg17
I0
sg18
I0
sg19
I0
sg20
I1
sg21
I0
ssg22
g23
sg24
g25
sg26
I0
sg27
I0
sg28
Nsg29
F7.4940000445167243e-06
sba(iandrea.events
WeatherEvent
p33
(dp34
g4
I0
sg5
F441.731424
sg6
I0
sg7
Nsg8
I00
sg9
F441.73143099599997
sg10
(dp35
g12
I0
sg13
I0
sg14
I0
sg15
I0
sg16
I0
sg17
I0
sg18
I0
sg19
I0
sg20
I1
sg21
I0
ssg22
g23
sg24
g25
sg26
I0
sg27
I0
sg28
Nsg29
F6.9959999677848828e-06
sba(iandrea.events
WeatherEvent
p36
(dp37
g4
I0
sg5
F451.73211355900003
sg6
I0
sg7
Nsg8
I00
sg9
F451.73212023500002
sg10
(dp38
g12
I0
sg13
I0
sg14
I0
sg15
I0
sg16
I0
sg17
I0
sg18
I0
sg19
I0
sg20
I1
sg21
I0
ssg22
g23
sg24
g25
sg26
I0
sg27
I0
sg28
Nsg29
F6.6759999981513829e-06
sba(iandrea.events
WeatherEvent
p39
(dp40
g4
I0
sg5
F461.73389742000001
sg6
I0
sg7
Nsg8
I00
sg9
F461.73390377099997
sg10
(dp41
g12
I0
sg13
I0
sg14
I0
sg15
I0
sg16
I0
sg17
I0
sg18
I0
sg19
I0
sg20
I1
sg21
I0
ssg22
g23
sg24
g25
sg26
I0
sg27
I0
sg28
Nsg29
F6.3509999677080486e-06
sba(iandrea.events
WeatherEvent
p42
(dp43
g4
I0
sg5
F471.73595285300001
sg6
I0
sg7
Nsg8
I00
sg9
F471.735958568
sg10
(dp44
g12
I0
sg13
I0
sg14
I0
sg15
I0
sg16
I0
sg17
I0
sg18
I0
sg19
I0
sg20
I1
sg21
I0
ssg22
g23
sg24
g25
sg26
I0
sg27
I0
sg28
Nsg29
F5.7149999861394463e-06
sba(iandrea.events
WeatherEvent
p45
(dp46
g4
I0
sg5
F481.73696894599999
sg6
I0
sg7
Nsg8
I00
sg9
F481.73697360199998
sg10
(dp47
g12
I0
sg13
I0
sg14
I0
sg15
I0
sg16
I0
sg17
I0
sg18
I0
sg19
I0
sg20
I1
sg21
I0
ssg22
g23
sg24
g25
sg26
I0
sg27
I0
sg28
Nsg29
F4.6559999873352353e-06
sba(iandrea.events
WeatherEvent
p48
(dp49
g4
I0
sg5
F491.73737433000002
sg6
I0
sg7
Nsg8
I00
sg9
F491.73738564400003
sg10
(dp50
g12
I0
sg13
I0
sg14
I0
sg15
I0
sg16
I0
sg17
I0
sg18
I0
sg19
I0
sg20
I1
sg21
I0
ssg22
g23
sg24
g25
sg26
I0
sg27
I0
sg28
Nsg29
F1.1314000005313574e-05
sba(iandrea.events
WeatherEvent
p51
(dp52
g4
I0
sg5
F501.738156205
sg6
I0
sg7
Nsg8
I00
sg9
F501.73816839099999
sg10
(dp53
g12
I0
sg13
I0
sg14
I0
sg15
I0
sg16
I0
sg17
I0
sg18
I0
sg19
I0
sg20
I1
sg21
I0
ssg22
g23
sg24
g25
sg26
I0
sg27
I0
sg28
Nsg29
F1.2185999992198049e-05
sba(iandrea.events
WeatherEvent
p54
(dp55
g4
I0
sg5
F511.73938866600002
sg6
I0
sg7
Nsg8
I00
sg9
F511.73939434499999
sg10
(dp56
g12
I0
sg13
I0
sg14
I0
sg15
I0
sg16
I0
sg17
I0
sg18
I0
sg19
I0
sg20
I1
sg21
I0
ssg22
g23
sg24
g25
sg26
I0
sg27
I0
sg28
Nsg29
F5.6789999689499382e-06
sba(iandrea.events
WeatherEvent
p57
(dp58
g4
I0
sg5
F521.73978751499999
sg6
I0
sg7
Nsg8
I00
sg9
F521.73979464000001
sg10
(dp59
g12
I0
sg13
I0
sg14
I0
sg15
I0
sg16
I0
sg17
I0
sg18
I0
sg19
I0
sg20
I1
sg21
I0
ssg22
g23
sg24
g25
sg26
I0
sg27
I0
sg28
Nsg29
F7.1250000246436684e-06
sba(iandrea.events
WeatherEvent
p60
(dp61
g4
I0
sg5
F531.74073023999995
sg6
I0
sg7
Nsg8
I00
sg9
F531.74076085900003
sg10
(dp62
g12
I0
sg13
I0
sg14
I0
sg15
I0
sg16
I0
sg17
I0
sg18
I0
sg19
I0
sg20
I1
sg21
I0
ssg22
g23
sg24
g25
sg26
I0
sg27
I0
sg28
Nsg29
F3.0619000085607695e-05
sba(iandrea.events
WeatherEvent
p63
(dp64
g4
I0
sg5
F541.74205101799998
sg6
I0
sg7
Nsg8
I00
sg9
F541.74206142000003
sg10
(dp65
g12
I0
sg13
I0
sg14
I0
sg15
I0
sg16
I0
sg17
I0
sg18
I0
sg19
I0
sg20
I1
sg21
I0
ssg22
g23
sg24
g25
sg26
I0
sg27
I0
sg28
Nsg29
F1.0402000043541193e-05
sba(iandrea.events
WeatherEvent
p66
(dp67
g4
I0
sg5
F551.74381943200001
sg6
I0
sg7
Nsg8
I00
sg9
F551.74383192499999
sg10
(dp68
g12
I0
sg13
I0
sg14
I0
sg15
I0
sg16
I0
sg17
I0
sg18
I0
sg19
I0
sg20
I1
sg21
I0
ssg22
g23
sg24
g25
sg26
I0
sg27
I0
sg28
Nsg29
F1.249299998562492e-05
sba(iandrea.events
WeatherEvent
p69
(dp70
g4
I0
sg5
F561.74550886500003
sg6
I0
sg7
Nsg8
I00
sg9
F561.74551839200001
sg10
(dp71
g12
I0
sg13
I0
sg14
I0
sg15
I0
sg16
I0
sg17
I0
sg18
I0
sg19
I0
sg20
I1
sg21
I0
ssg22
g23
sg24
g25
sg26
I0
sg27
I0
sg28
Nsg29
F9.5269999746960821e-06
sba(iandrea.events
WeatherEvent
p72
(dp73
g4
I0
sg5
F571.74711619599998
sg6
I0
sg7
Nsg8
I00
sg9
F571.74712793000003
sg10
(dp74
g12
I0
sg13
I0
sg14
I0
sg15
I0
sg16
I0
sg17
I0
sg18
I0
sg19
I0
sg20
I1
sg21
I0
ssg22
g23
sg24
g25
sg26
I0
sg27
I0
sg28
Nsg29
F1.1734000054275384e-05
sba(iandrea.events
WeatherEvent
p75
(dp76
g4
I0
sg5
F581.74820993100002
sg6
I0
sg7
Nsg8
I00
sg9
F581.74822295700005
sg10
(dp77
g12
I0
sg13
I0
sg14
I0
sg15
I0
sg16
I0
sg17
I0
sg18
I0
sg19
I0
sg20
I1
sg21
I0
ssg22
g23
sg24
g25
sg26
I0
sg27
I0
sg28
Nsg29
F1.3026000033278251e-05
sba(iandrea.events
WeatherEvent
p78
(dp79
g4
I0
sg5
F591.74924602500005
sg6
I0
sg7
Nsg8
I00
sg9
F591.74927163699999
sg10
(dp80
g12
I0
sg13
I0
sg14
I0
sg15
I0
sg16
I0
sg17
I0
sg18
I0
sg19
I0
sg20
I1
sg21
I0
ssg22
g23
sg24
g25
sg26
I0
sg27
I0
sg28
Nsg29
F2.5611999944885611e-05
sba(iandrea.events
WeatherEvent
p81
(dp82
g4
I0
sg5
F601.74939021900002
sg6
I0
sg7
Nsg8
I00
sg9
F601.74939819199994
sg10
(dp83
g12
I0
sg13
I0
sg14
I0
sg15
I0
sg16
I0
sg17
I0
sg18
I0
sg19
I0
sg20
I1
sg21
I0
ssg22
g23
sg24
g25
sg26
I0
sg27
I0
sg28
Nsg29
F7.9729999242772465e-06
sba(iandrea.events
WeatherEvent
p84
(dp85
g4
I0
sg5
F611.75089183800003
sg6
I0
sg7
Nsg8
I00
sg9
F611.75090267999997
sg10
(dp86
g12
I0
sg13
I0
sg14
I0
sg15
I0
sg16
I0
sg17
I0
sg18
I0
sg19
I0
sg20
I1
sg21
I0
ssg22
g23
sg24
g25
sg26
I0
sg27
I0
sg28
Nsg29
F1.0841999937838409e-05
sba(iandrea.events
WeatherEvent
p87
(dp88
g4
I0
sg5
F621.751234264
sg6
I0
sg7
Nsg8
I00
sg9
F621.75124613699995
sg10
(dp89
g12
I0
sg13
I0
sg14
I0
sg15
I0
sg16
I0
sg17
I0
sg18
I0
sg19
I0
sg20
I1
sg21
I0
ssg22
g23
sg24
g25
sg26
I0
sg27
I0
sg28
Nsg29
F1.1872999948536744e-05
sba.(lp1
(iandrea.events
WeatherEvent
p2
(dp3
S'src'
p4
I0
sS't_i'
p5
F631.75227107299997
sS'level'
p6
I0
sS'res'
p7
NsS'inv'
p8
I00
sS't_f'
p9
F631.75227835700002
sS'etc'
p10
(dp11
S'workers_idle'
p12
I0
sS'workers_busy'
p13
I0
sS'tasks_busy'
p14
I0
sS'MEMOUT'
p15
I0
sS'UNSAT'
p16
I0
sS'TIMEOUT'
p17
I0
sS'ERROR'
p18
I0
sS'tasks_done'
p19
I0
sS'tasks_idle'
p20
I1
sS'SAT'
p21
I0
ssS'gid'
p22
S'wrep'
p23
sS'eid'
p24
S'update'
p25
sS'timeout'
p26
I0
sS'max'
p27
I0
sS'tid'
p28
NsS'dur'
p29
F7.2840000484575285e-06
sba(iandrea.events
WeatherEvent
p30
(dp31
g4
I0
sg5
F641.75428374000001
sg6
I0
sg7
Nsg8
I00
sg9
F641.75428836000003
sg10
(dp32
g12
I0
sg13
I0
sg14
I0
sg15
I0
sg16
I0
sg17
I0
sg18
I0
sg19
I0
sg20
I1
sg21
I0
ssg22
g23
sg24
g25
sg26
I0
sg27
I0
sg28
Nsg29
F4.6200000269891461e-06
sba(iandrea.events
WeatherEvent
p33
(dp34
g4
I0
sg5
F651.75500078599998
sg6
I0
sg7
Nsg8
I00
sg9
F651.75500742600002
sg10
(dp35
g12
I0
sg13
I0
sg14
I0
sg15
I0
sg16
I0
sg17
I0
sg18
I0
sg19
I0
sg20
I1
sg21
I0
ssg22
g23
sg24
g25
sg26
I0
sg27
I0
sg28
Nsg29
F6.6400000378052937e-06
sba(iandrea.events
WeatherEvent
p36
(dp37
g4
I0
sg5
F661.75554111700001
sg6
I0
sg7
Nsg8
I00
sg9
F661.75554629999999
sg10
(dp38
g12
I0
sg13
I0
sg14
I0
sg15
I0
sg16
I0
sg17
I0
sg18
I0
sg19
I0
sg20
I1
sg21
I0
ssg22
g23
sg24
g25
sg26
I0
sg27
I0
sg28
Nsg29
F5.182999984754133e-06
sba(iandrea.events
WeatherEvent
p39
(dp40
g4
I0
sg5
F671.75655859799997
sg6
I0
sg7
Nsg8
I00
sg9
F671.75656812499994
sg10
(dp41
g12
I0
sg13
I0
sg14
I0
sg15
I0
sg16
I0
sg17
I0
sg18
I0
sg19
I0
sg20
I1
sg21
I0
ssg22
g23
sg24
g25
sg26
I0
sg27
I0
sg28
Nsg29
F9.5269999746960821e-06
sba(iandrea.events
WeatherEvent
p42
(dp43
g4
I0
sg5
F681.75692542499996
sg6
I0
sg7
Nsg8
I00
sg9
F681.75693825999997
sg10
(dp44
g12
I0
sg13
I0
sg14
I0
sg15
I0
sg16
I0
sg17
I0
sg18
I0
sg19
I0
sg20
I1
sg21
I0
ssg22
g23
sg24
g25
sg26
I0
sg27
I0
sg28
Nsg29
F1.2835000006816699e-05
sba(iandrea.events
WeatherEvent
p45
(dp46
g4
I0
sg5
F691.75806550499999
sg6
I0
sg7
Nsg8
I00
sg9
F691.75807848099998
sg10
(dp47
g12
I0
sg13
I0
sg14
I0
sg15
I0
sg16
I0
sg17
I0
sg18
I0
sg19
I0
sg20
I1
sg21
I0
ssg22
g23
sg24
g25
sg26
I0
sg27
I0
sg28
Nsg29
F1.2975999993614096e-05
sba(iandrea.events
WeatherEvent
p48
(dp49
g4
I0
sg5
F701.75882936200003
sg6
I0
sg7
Nsg8
I00
sg9
F701.75884909399997
sg10
(dp50
g12
I0
sg13
I0
sg14
I0
sg15
I0
sg16
I0
sg17
I0
sg18
I0
sg19
I0
sg20
I1
sg21
I0
ssg22
g23
sg24
g25
sg26
I0
sg27
I0
sg28
Nsg29
F1.9731999941541289e-05
sba(iandrea.events
WeatherEvent
p51
(dp52
g4
I0
sg5
F711.75922734400001
sg6
I0
sg7
Nsg8
I00
sg9
F711.75924143899999
sg10
(dp53
g12
I0
sg13
I0
sg14
I0
sg15
I0
sg16
I0
sg17
I0
sg18
I0
sg19
I0
sg20
I1
sg21
I0
ssg22
g23
sg24
g25
sg26
I0
sg27
I0
sg28
Nsg29
F1.4094999983171874e-05
sba(iandrea.events
WeatherEvent
p54
(dp55
g4
I0
sg5
F721.75945081299994
sg6
I0
sg7
Nsg8
I00
sg9
F721.75946909499999
sg10
(dp56
g12
I0
sg13
I0
sg14
I0
sg15
I0
sg16
I0
sg17
I0
sg18
I0
sg19
I0
sg20
I1
sg21
I0
ssg22
g23
sg24
g25
sg26
I0
sg27
I0
sg28
Nsg29
F1.8282000041836e-05
sba(iandrea.events
WeatherEvent
p57
(dp58
g4
I0
sg5
F731.759540184
sg6
I0
sg7
Nsg8
I00
sg9
F731.75955435699996
sg10
(dp59
g12
I0
sg13
I0
sg14
I0
sg15
I0
sg16
I0
sg17
I0
sg18
I0
sg19
I0
sg20
I1
sg21
I0
ssg22
g23
sg24
g25
sg26
I0
sg27
I0
sg28
Nsg29
F1.4172999954098486e-05
sba(iandrea.events
WeatherEvent
p60
(dp61
g4
I0
sg5
F741.75979227300002
sg6
I0
sg7
Nsg8
I00
sg9
F741.75980453499994
sg10
(dp62
g12
I0
sg13
I0
sg14
I0
sg15
I0
sg16
I0
sg17
I0
sg18
I0
sg19
I0
sg20
I1
sg21
I0
ssg22
g23
sg24
g25
sg26
I0
sg27
I0
sg28
Nsg29
F1.2261999927432043e-05
sba(iandrea.events
WeatherEvent
p63
(dp64
g4
I0
sg5
F751.76051989699999
sg6
I0
sg7
Nsg8
I00
sg9
F751.760535097
sg10
(dp65
g12
I0
sg13
I0
sg14
I0
sg15
I0
sg16
I0
sg17
I0
sg18
I0
sg19
I0
sg20
I1
sg21
I0
ssg22
g23
sg24
g25
sg26
I0
sg27
I0
sg28
Nsg29
F1.5200000007098424e-05
sba(iandrea.events
WeatherEvent
p66
(dp67
g4
I0
sg5
F761.76148870999998
sg6
I0
sg7
Nsg8
I00
sg9
F761.76149825599998
sg10
(dp68
g12
I0
sg13
I0
sg14
I0
sg15
I0
sg16
I0
sg17
I0
sg18
I0
sg19
I0
sg20
I1
sg21
I0
ssg22
g23
sg24
g25
sg26
I0
sg27
I0
sg28
Nsg29
F9.5460000011371449e-06
sba(iandrea.events
WeatherEvent
p69
(dp70
g4
I0
sg5
F771.76315407699997
sg6
I0
sg7
Nsg8
I00
sg9
F771.763164975
sg10
(dp71
g12
I0
sg13
I0
sg14
I0
sg15
I0
sg16
I0
sg17
I0
sg18
I0
sg19
I0
sg20
I1
sg21
I0
ssg22
g23
sg24
g25
sg26
I0
sg27
I0
sg28
Nsg29
F1.0898000027736998e-05
sba(iandrea.events
WeatherEvent
p72
(dp73
g4
I0
sg5
F781.76513256400006
sg6
I0
sg7
Nsg8
I00
sg9
F781.76515233500004
sg10
(dp74
g12
I0
sg13
I0
sg14
I0
sg15
I0
sg16
I0
sg17
I0
sg18
I0
sg19
I0
sg20
I1
sg21
I0
ssg22
g23
sg24
g25
sg26
I0
sg27
I0
sg28
Nsg29
F1.9770999983848014e-05
sba(iandrea.events
WeatherEvent
p75
(dp76
g4
I0
sg5
F791.76648635100003
sg6
I0
sg7
Nsg8
I00
sg9
F791.76649837299999
sg10
(dp77
g12
I0
sg13
I0
sg14
I0
sg15
I0
sg16
I0
sg17
I0
sg18
I0
sg19
I0
sg20
I1
sg21
I0
ssg22
g23
sg24
g25
sg26
I0
sg27
I0
sg28
Nsg29
F1.2021999964417773e-05
sba(iandrea.events
WeatherEvent
p78
(dp79
g4
I0
sg5
F801.768545614
sg6
I0
sg7
Nsg8
I00
sg9
F801.76855280200004
sg10
(dp80
g12
I0
sg13
I0
sg14
I0
sg15
I0
sg16
I0
sg17
I0
sg18
I0
sg19
I0
sg20
I1
sg21
I0
ssg22
g23
sg24
g25
sg26
I0
sg27
I0
sg28
Nsg29
F7.1880000405144528e-06
sba(iandrea.events
WeatherEvent
p81
(dp82
g4
I0
sg5
F811.76956191700003
sg6
I0
sg7
Nsg8
I00
sg9
F811.76957188799997
sg10
(dp83
g12
I0
sg13
I0
sg14
I0
sg15
I0
sg16
I0
sg17
I0
sg18
I0
sg19
I0
sg20
I1
sg21
I0
ssg22
g23
sg24
g25
sg26
I0
sg27
I0
sg28
Nsg29
F9.9709999403785332e-06
sba(iandrea.events
WeatherEvent
p84
(dp85
g4
I0
sg5
F821.772516279
sg6
I0
sg7
Nsg8
I00
sg9
F821.77252970100005
sg10
(dp86
g12
I0
sg13
I0
sg14
I0
sg15
I0
sg16
I0
sg17
I0
sg18
I0
sg19
I0
sg20
I1
sg21
I0
ssg22
g23
sg24
g25
sg26
I0
sg27
I0
sg28
Nsg29
F1.3422000051832583e-05
sba(iandrea.events
WeatherEvent
p87
(dp88
g4
I0
sg5
F831.77440621300002
sg6
I0
sg7
Nsg8
I00
sg9
F831.77441641600001
sg10
(dp89
g12
I0
sg13
I0
sg14
I0
sg15
I0
sg16
I0
sg17
I0
sg18
I0
sg19
I0
sg20
I1
sg21
I0
ssg22
g23
sg24
g25
sg26
I0
sg27
I0
sg28
Nsg29
F1.0202999987996009e-05
sba.