(lp1
(iandrea.events
WeatherEvent
p2
(dp3
S'src'
p4
I0
sS't_i'
p5
F0.0048150920000011865
sS'level'
p6
I0
sS'res'
p7
NsS'inv'
p8
I00
sS't_f'
p9
F0.0048199299999964751
sS'etc'
p10
(dp11
S'workers_idle'
p12
I0
sS'workers_busy'
p13
I0
sS'tasks_busy'
p14
I0
sS'MEMOUT'
p15
I0
sS'UNSAT'
p16
I0
sS'TIMEOUT'
p17
I0
sS'ERROR'
p18
I0
sS'tasks_done'
p19
I0
sS'tasks_idle'
p20
I0
sS'SAT'
p21
I0
ssS'gid'
p22
S'wrep'
p23
sS'eid'
p24
S'preinit'
p25
sS'timeout'
p26
I0
sS'max'
p27
I0
sS'tid'
p28
NsS'dur'
p29
F4.8379999952885555e-06
sba(iandrea.events
Event
p30
(dp31
g4
I0
sg5
F0.0048589419999984784
sg6
I0
sg7
S'1 tasks'
p32
sg8
I00
sg9
F12.171978082999999
sg10
(dp33
sg22
S'main'
p34
sg24
S'queue.create'
p35
sg26
I0
sg27
I0
sg28
Nsg29
F12.167119141000001
sba(iandrea.events
WeatherEvent
p36
(dp37
g4
I0
sg5
F12.172014051999952
sg6
I0
sg7
Nsg8
I00
sg9
F12.17201720099996
sg10
(dp38
g12
I0
sg13
I0
sg14
I0
sg15
I0
sg16
I0
sg17
I0
sg18
I0
sg19
I0
sg20
I1
sg21
I0
ssg22
g23
sg24
S'initial'
p39
sg26
I0
sg27
I0
sg28
Nsg29
F3.1490000083067571e-06
sba(iandrea.events
WeatherEvent
p40
(dp41
g4
I0
sg5
F22.173773542999982
sg6
I0
sg7
Nsg8
I00
sg9
F22.173778717000005
sg10
(dp42
g12
I0
sg13
I0
sg14
I0
sg15
I0
sg16
I0
sg17
I0
sg18
I0
sg19
I0
sg20
I1
sg21
I0
ssg22
g23
sg24
S'update'
p43
sg26
I0
sg27
I0
sg28
Nsg29
F5.1740000230893202e-06
sba(iandrea.events
WeatherEvent
p44
(dp45
g4
I0
sg5
F32.174335654000004
sg6
I0
sg7
Nsg8
I00
sg9
F32.174341148999986
sg10
(dp46
g12
I0
sg13
I0
sg14
I0
sg15
I0
sg16
I0
sg17
I0
sg18
I0
sg19
I0
sg20
I1
sg21
I0
ssg22
g23
sg24
g43
sg26
I0
sg27
I0
sg28
Nsg29
F5.4949999821474194e-06
sba(iandrea.events
WeatherEvent
p47
(dp48
g4
I0
sg5
F42.176118302999953
sg6
I0
sg7
Nsg8
I00
sg9
F42.176123095999969
sg10
(dp49
g12
I0
sg13
I0
sg14
I0
sg15
I0
sg16
I0
sg17
I0
sg18
I0
sg19
I0
sg20
I1
sg21
I0
ssg22
g23
sg24
g43
sg26
I0
sg27
I0
sg28
Nsg29
F4.7930000164342346e-06
sba(iandrea.events
WeatherEvent
p50
(dp51
g4
I0
sg5
F52.176402544999974
sg6
I0
sg7
Nsg8
I00
sg9
F52.176407366999968
sg10
(dp52
g12
I0
sg13
I0
sg14
I0
sg15
I0
sg16
I0
sg17
I0
sg18
I0
sg19
I0
sg20
I1
sg21
I0
ssg22
g23
sg24
g43
sg26
I0
sg27
I0
sg28
Nsg29
F4.8219999939647096e-06
sba(iandrea.events
WeatherEvent
p53
(dp54
g4
I0
sg5
F62.176399947999982
sg6
I0
sg7
Nsg8
I00
sg9
F62.176404167999976
sg10
(dp55
g12
I0
sg13
I0
sg14
I0
sg15
I0
sg16
I0
sg17
I0
sg18
I0
sg19
I0
sg20
I1
sg21
I0
ssg22
g23
sg24
g43
sg26
I0
sg27
I0
sg28
Nsg29
F4.2199999938929977e-06
sba(iandrea.events
WeatherEvent
p56
(dp57
g4
I0
sg5
F72.176964206999969
sg6
I0
sg7
Nsg8
I00
sg9
F72.176969287999952
sg10
(dp58
g12
I0
sg13
I0
sg14
I0
sg15
I0
sg16
I0
sg17
I0
sg18
I0
sg19
I0
sg20
I1
sg21
I0
ssg22
g23
sg24
g43
sg26
I0
sg27
I0
sg28
Nsg29
F5.0809999834200426e-06
sba(iandrea.events
WeatherEvent
p59
(dp60
g4
I0
sg5
F82.178204093999966
sg6
I0
sg7
Nsg8
I00
sg9
F82.178209064999976
sg10
(dp61
g12
I0
sg13
I0
sg14
I0
sg15
I0
sg16
I0
sg17
I0
sg18
I0
sg19
I0
sg20
I1
sg21
I0
ssg22
g23
sg24
g43
sg26
I0
sg27
I0
sg28
Nsg29
F4.9710000098457385e-06
sba(iandrea.events
WeatherEvent
p62
(dp63
g4
I0
sg5
F92.178496277999955
sg6
I0
sg7
Nsg8
I00
sg9
F92.178500768999982
sg10
(dp64
g12
I0
sg13
I0
sg14
I0
sg15
I0
sg16
I0
sg17
I0
sg18
I0
sg19
I0
sg20
I1
sg21
I0
ssg22
g23
sg24
g43
sg26
I0
sg27
I0
sg28
Nsg29
F4.4910000269737793e-06
sba(iandrea.events
WeatherEvent
p65
(dp66
g4
I0
sg5
F102.18084280399995
sg6
I0
sg7
Nsg8
I00
sg9
F102.18084964399998
sg10
(dp67
g12
I0
sg13
I0
sg14
I0
sg15
I0
sg16
I0
sg17
I0
sg18
I0
sg19
I0
sg20
I1
sg21
I0
ssg22
g23
sg24
g43
sg26
I0
sg27
I0
sg28
Nsg29
F6.8400000259316585e-06
sba(iandrea.events
WeatherEvent
p68
(dp69
g4
I0
sg5
F112.18088365899996
sg6
I0
sg7
Nsg8
I00
sg9
F112.18088817099999
sg10
(dp70
g12
I0
sg13
I0
sg14
I0
sg15
I0
sg16
I0
sg17
I0
sg18
I0
sg19
I0
sg20
I1
sg21
I0
ssg22
g23
sg24
g43
sg26
I0
sg27
I0
sg28
Nsg29
F4.5120000322640408e-06
sba(iandrea.events
WeatherEvent
p71
(dp72
g4
I0
sg5
F122.18263243299998
sg6
I0
sg7
Nsg8
I00
sg9
F122.18264086299996
sg10
(dp73
g12
I0
sg13
I0
sg14
I0
sg15
I0
sg16
I0
sg17
I0
sg18
I0
sg19
I0
sg20
I1
sg21
I0
ssg22
g23
sg24
g43
sg26
I0
sg27
I0
sg28
Nsg29
F8.4299999798531644e-06
sba(iandrea.events
WeatherEvent
p74
(dp75
g4
I0
sg5
F132.18438156499997
sg6
I0
sg7
Nsg8
I00
sg9
F132.18438651599996
sg10
(dp76
g12
I0
sg13
I0
sg14
I0
sg15
I0
sg16
I0
sg17
I0
sg18
I0
sg19
I0
sg20
I1
sg21
I0
ssg22
g23
sg24
g43
sg26
I0
sg27
I0
sg28
Nsg29
F4.9509999939800764e-06
sba(iandrea.events
WeatherEvent
p77
(dp78
g4
I0
sg5
F142.18676894499998
sg6
I0
sg7
Nsg8
I00
sg9
F142.18678050899996
sg10
(dp79
g12
I0
sg13
I0
sg14
I0
sg15
I0
sg16
I0
sg17
I0
sg18
I0
sg19
I0
sg20
I1
sg21
I0
ssg22
g23
sg24
g43
sg26
I0
sg27
I0
sg28
Nsg29
F1.1563999976260675e-05
sba(iandrea.events
WeatherEvent
p80
(dp81
g4
I0
sg5
F152.18891658999996
sg6
I0
sg7
Nsg8
I00
sg9
F152.18892138999996
sg10
(dp82
g12
I0
sg13
I0
sg14
I0
sg15
I0
sg16
I0
sg17
I0
sg18
I0
sg19
I0
sg20
I1
sg21
I0
ssg22
g23
sg24
g43
sg26
I0
sg27
I0
sg28
Nsg29
F4.7999999992498488e-06
sba(iandrea.events
WeatherEvent
p83
(dp84
g4
I0
sg5
F162.18987682699998
sg6
I0
sg7
Nsg8
I00
sg9
F162.18988145099996
sg10
(dp85
g12
I0
sg13
I0
sg14
I0
sg15
I0
sg16
I0
sg17
I0
sg18
I0
sg19
I0
sg20
I1
sg21
I0
ssg22
g23
sg24
g43
sg26
I0
sg27
I0
sg28
Nsg29
F4.6239999846875435e-06
sba(iandrea.events
WeatherEvent
p86
(dp87
g4
I0
sg5
F172.18997191399995
sg6
I0
sg7
Nsg8
I00
sg9
F172.18997723799998
sg10
(dp88
g12
I0
sg13
I0
sg14
I0
sg15
I0
sg16
I0
sg17
I0
sg18
I0
sg19
I0
sg20
I1
sg21
I0
ssg22
g23
sg24
g43
sg26
I0
sg27
I0
sg28
Nsg29
F5.3240000283949485e-06
sba(iandrea.events
WeatherEvent
p89
(dp90
g4
I0
sg5
F182.19135147599997
sg6
I0
sg7
Nsg8
I00
sg9
F182.191357213
sg10
(dp91
g12
I0
sg13
I0
sg14
I0
sg15
I0
sg16
I0
sg17
I0
sg18
I0
sg19
I0
sg20
I1
sg21
I0
ssg22
g23
sg24
g43
sg26
I0
sg27
I0
sg28
Nsg29
F5.7370000376977259e-06
sba(iandrea.events
WeatherEvent
p92
(dp93
g4
I0
sg5
F192.19211033200003
sg6
I0
sg7
Nsg8
I00
sg9
F192.19212644299995
sg10
(dp94
g12
I0
sg13
I0
sg14
I0
sg15
I0
sg16
I0
sg17
I0
sg18
I0
sg19
I0
sg20
I1
sg21
I0
ssg22
g23
sg24
g43
sg26
I0
sg27
I0
sg28
Nsg29
F1.6110999922602787e-05
sba.(lp1
(iandrea.events
WeatherEvent
p2
(dp3
S'src'
p4
I0
sS't_i'
p5
F202.19343305799993
sS'level'
p6
I0
sS'res'
p7
NsS'inv'
p8
I00
sS't_f'
p9
F202.19343789999999
sS'etc'
p10
(dp11
S'workers_idle'
p12
I0
sS'workers_busy'
p13
I0
sS'tasks_busy'
p14
I0
sS'MEMOUT'
p15
I0
sS'UNSAT'
p16
I0
sS'TIMEOUT'
p17
I0
sS'ERROR'
p18
I0
sS'tasks_done'
p19
I0
sS'tasks_idle'
p20
I1
sS'SAT'
p21
I0
ssS'gid'
p22
S'wrep'
p23
sS'eid'
p24
S'update'
p25
sS'timeout'
p26
I0
sS'max'
p27
I0
sS'tid'
p28
NsS'dur'
p29
F4.8420000666737906e-06
sba(iandrea.events
WeatherEvent
p30
(dp31
g4
I0
sg5
F212.19426239399996
sg6
I0
sg7
Nsg8
I00
sg9
F212.19426696099998
sg10
(dp32
g12
I0
sg13
I0
sg14
I0
sg15
I0
sg16
I0
sg17
I0
sg18
I0
sg19
I0
sg20
I1
sg21
I0
ssg22
g23
sg24
g25
sg26
I0
sg27
I0
sg28
Nsg29
F4.5670000190511928e-06
sba(iandrea.events
WeatherEvent
p33
(dp34
g4
I0
sg5
F222.19515772099993
sg6
I0
sg7
Nsg8
I00
sg9
F222.19516302799997
sg10
(dp35
g12
I0
sg13
I0
sg14
I0
sg15
I0
sg16
I0
sg17
I0
sg18
I0
sg19
I0
sg20
I1
sg21
I0
ssg22
g23
sg24
g25
sg26
I0
sg27
I0
sg28
Nsg29
F5.3070000376465032e-06
sba(iandrea.events
WeatherEvent
p36
(dp37
g4
I0
sg5
F232.19568531499993
sg6
I0
sg7
Nsg8
I00
sg9
F232.19569066599996
sg10
(dp38
g12
I0
sg13
I0
sg14
I0
sg15
I0
sg16
I0
sg17
I0
sg18
I0
sg19
I0
sg20
I1
sg21
I0
ssg22
g23
sg24
g25
sg26
I0
sg27
I0
sg28
Nsg29
F5.3510000270762248e-06
sba(iandrea.events
WeatherEvent
p39
(dp40
g4
I0
sg5
F242.19706226700004
sg6
I0
sg7
Nsg8
I00
sg9
F242.19706726700002
sg10
(dp41
g12
I0
sg13
I0
sg14
I0
sg15
I0
sg16
I0
sg17
I0
sg18
I0
sg19
I0
sg20
I1
sg21
I0
ssg22
g23
sg24
g25
sg26
I0
sg27
I0
sg28
Nsg29
F4.9999999873762135e-06
sba(iandrea.events
WeatherEvent
p42
(dp43
g4
I0
sg5
F252.198072868
sg6
I0
sg7
Nsg8
I00
sg9
F252.19808099599999
sg10
(dp44
g12
I0
sg13
I0
sg14
I0
sg15
I0
sg16
I0
sg17
I0
sg18
I0
sg19
I0
sg20
I1
sg21
I0
ssg22
g23
sg24
g25
sg26
I0
sg27
I0
sg28
Nsg29
F8.1279999903927092e-06
sba(iandrea.events
WeatherEvent
p45
(dp46
g4
I0
sg5
F262.19948974699997
sg6
I0
sg7
Nsg8
I00
sg9
F262.199495238
sg10
(dp47
g12
I0
sg13
I0
sg14
I0
sg15
I0
sg16
I0
sg17
I0
sg18
I0
sg19
I0
sg20
I1
sg21
I0
ssg22
g23
sg24
g25
sg26
I0
sg27
I0
sg28
Nsg29
F5.491000024449022e-06
sba(iandrea.events
WeatherEvent
p48
(dp49
g4
I0
sg5
F272.20058384399994
sg6
I0
sg7
Nsg8
I00
sg9
F272.20058889199998
sg10
(dp50
g12
I0
sg13
I0
sg14
I0
sg15
I0
sg16
I0
sg17
I0
sg18
I0
sg19
I0
sg20
I1
sg21
I0
ssg22
g23
sg24
g25
sg26
I0
sg27
I0
sg28
Nsg29
F5.0480000481911702e-06
sba(iandrea.events
WeatherEvent
p51
(dp52
g4
I0
sg5
F282.20118288700002
sg6
I0
sg7
Nsg8
I00
sg9
F282.20118762700002
sg10
(dp53
g12
I0
sg13
I0
sg14
I0
sg15
I0
sg16
I0
sg17
I0
sg18
I0
sg19
I0
sg20
I1
sg21
I0
ssg22
g23
sg24
g25
sg26
I0
sg27
I0
sg28
Nsg29
F4.7400000084962812e-06
sba(iandrea.events
WeatherEvent
p54
(dp55
g4
I0
sg5
F292.202615159
sg6
I0
sg7
Nsg8
I00
sg9
F292.20262646600003
sg10
(dp56
g12
I0
sg13
I0
sg14
I0
sg15
I0
sg16
I0
sg17
I0
sg18
I0
sg19
I0
sg20
I1
sg21
I0
ssg22
g23
sg24
g25
sg26
I0
sg27
I0
sg28
Nsg29
F1.1307000022497959e-05
sba(iandrea.events
WeatherEvent
p57
(dp58
g4
I0
sg5
F302.20380722499993
sg6
I0
sg7
Nsg8
I00
sg9
F302.20381236899999
sg10
(dp59
g12
I0
sg13
I0
sg14
I0
sg15
I0
sg16
I0
sg17
I0
sg18
I0
sg19
I0
sg20
I1
sg21
I0
ssg22
g23
sg24
g25
sg26
I0
sg27
I0
sg28
Nsg29
F5.1440000561342458e-06
sba(iandrea.events
WeatherEvent
p60
(dp61
g4
I0
sg5
F312.20495720399998
sg6
I0
sg7
Nsg8
I00
sg9
F312.20496204499995
sg10
(dp62
g12
I0
sg13
I0
sg14
I0
sg15
I0
sg16
I0
sg17
I0
sg18
I0
sg19
I0
sg20
I1
sg21
I0
ssg22
g23
sg24
g25
sg26
I0
sg27
I0
sg28
Nsg29
F4.8409999635623535e-06
sba(iandrea.events
WeatherEvent
p63
(dp64
g4
I0
sg5
F322.20523881599996
sg6
I0
sg7
Nsg8
I00
sg9
F322.20524710399997
sg10
(dp65
g12
I0
sg13
I0
sg14
I0
sg15
I0
sg16
I0
sg17
I0
sg18
I0
sg19
I0
sg20
I1
sg21
I0
ssg22
g23
sg24
g25
sg26
I0
sg27
I0
sg28
Nsg29
F8.2880000036311685e-06
sba(iandrea.events
WeatherEvent
p66
(dp67
g4
I0
sg5
F332.20609529199993
sg6
I0
sg7
Nsg8
I00
sg9
F332.20610186200003
sg10
(dp68
g12
I0
sg13
I0
sg14
I0
sg15
I0
sg16
I0
sg17
I0
sg18
I0
sg19
I0
sg20
I1
sg21
I0
ssg22
g23
sg24
g25
sg26
I0
sg27
I0
sg28
Nsg29
F6.5700000959623139e-06
sba(iandrea.events
WeatherEvent
p69
(dp70
g4
I0
sg5
F342.20655949400003
sg6
I0
sg7
Nsg8
I00
sg9
F342.20656446599997
sg10
(dp71
g12
I0
sg13
I0
sg14
I0
sg15
I0
sg16
I0
sg17
I0
sg18
I0
sg19
I0
sg20
I1
sg21
I0
ssg22
g23
sg24
g25
sg26
I0
sg27
I0
sg28
Nsg29
F4.971999942426919e-06
sba(iandrea.events
WeatherEvent
p72
(dp73
g4
I0
sg5
F352.20743349599996
sg6
I0
sg7
Nsg8
I00
sg9
F352.20743819499995
sg10
(dp74
g12
I0
sg13
I0
sg14
I0
sg15
I0
sg16
I0
sg17
I0
sg18
I0
sg19
I0
sg20
I1
sg21
I0
ssg22
g23
sg24
g25
sg26
I0
sg27
I0
sg28
Nsg29
F4.6989999873403576e-06
sba(iandrea.events
WeatherEvent
p75
(dp76
g4
I0
sg5
F362.20929349299996
sg6
I0
sg7
Nsg8
I00
sg9
F362.20929860199993
sg10
(dp77
g12
I0
sg13
I0
sg14
I0
sg15
I0
sg16
I0
sg17
I0
sg18
I0
sg19
I0
sg20
I1
sg21
I0
ssg22
g23
sg24
g25
sg26
I0
sg27
I0
sg28
Nsg29
F5.1089999715259182e-06
sba(iandrea.events
WeatherEvent
p78
(dp79
g4
I0
sg5
F372.211364565
sg6
I0
sg7
Nsg8
I00
sg9
F372.21136916500001
sg10
(dp80
g12
I0
sg13
I0
sg14
I0
sg15
I0
sg16
I0
sg17
I0
sg18
I0
sg19
I0
sg20
I1
sg21
I0
ssg22
g23
sg24
g25
sg26
I0
sg27
I0
sg28
Nsg29
F4.600000011123484e-06
sba(iandrea.events
WeatherEvent
p81
(dp82
g4
I0
sg5
F382.21179969799999
sg6
I0
sg7
Nsg8
I00
sg9
F382.21180686700001
sg10
(dp83
g12
I0
sg13
I0
sg14
I0
sg15
I0
sg16
I0
sg17
I0
sg18
I0
sg19
I0
sg20
I1
sg21
I0
ssg22
g23
sg24
g25
sg26
I0
sg27
I0
sg28
Nsg29
F7.16900001407339e-06
sba(iandrea.events
WeatherEvent
p84
(dp85
g4
I0
sg5
F392.21273947499998
sg6
I0
sg7
Nsg8
I00
sg9
F392.21274451599999
sg10
(dp86
g12
I0
sg13
I0
sg14
I0
sg15
I0
sg16
I0
sg17
I0
sg18
I0
sg19
I0
sg20
I1
sg21
I0
ssg22
g23
sg24
g25
sg26
I0
sg27
I0
sg28
Nsg29
F5.0410000085321371e-06
sba(iandrea.events
WeatherEvent
p87
(dp88
g4
I0
sg5
F402.21419605099999
sg6
I0
sg7
Nsg8
I00
sg9
F402.21420213499999
sg10
(dp89
g12
I0
sg13
I0
sg14
I0
sg15
I0
sg16
I0
sg17
I0
sg18
I0
sg19
I0
sg20
I1
sg21
I0
ssg22
g23
sg24
g25
sg26
I0
sg27
I0
sg28
Nsg29
F6.0840000060125021e-06
sba.(lp1
(iandrea.events
WeatherEvent
p2
(dp3
S'src'
p4
I0
sS't_i'
p5
F412.21473606000001
sS'level'
p6
I0
sS'res'
p7
NsS'inv'
p8
I00
sS't_f'
p9
F412.21474068200001
sS'etc'
p10
(dp11
S'workers_idle'
p12
I0
sS'workers_busy'
p13
I0
sS'tasks_busy'
p14
I0
sS'MEMOUT'
p15
I0
sS'UNSAT'
p16
I0
sS'TIMEOUT'
p17
I0
sS'ERROR'
p18
I0
sS'tasks_done'
p19
I0
sS'tasks_idle'
p20
I1
sS'SAT'
p21
I0
ssS'gid'
p22
S'wrep'
p23
sS'eid'
p24
S'update'
p25
sS'timeout'
p26
I0
sS'max'
p27
I0
sS'tid'
p28
NsS'dur'
p29
F4.6220000058383448e-06
sba(iandrea.events
WeatherEvent
p30
(dp31
g4
I0
sg5
F422.21643115399996
sg6
I0
sg7
Nsg8
I00
sg9
F422.21643598500003
sg10
(dp32
g12
I0
sg13
I0
sg14
I0
sg15
I0
sg16
I0
sg17
I0
sg18
I0
sg19
I0
sg20
I1
sg21
I0
ssg22
g23
sg24
g25
sg26
I0
sg27
I0
sg28
Nsg29
F4.8310000693163602e-06
sba(iandrea.events
WeatherEvent
p33
(dp34
g4
I0
sg5
F432.21864827999997
sg6
I0
sg7
Nsg8
I00
sg9
F432.21865344199995
sg10
(dp35
g12
I0
sg13
I0
sg14
I0
sg15
I0
sg16
I0
sg17
I0
sg18
I0
sg19
I0
sg20
I1
sg21
I0
ssg22
g23
sg24
g25
sg26
I0
sg27
I0
sg28
Nsg29
F5.1619999794638716e-06
sba(iandrea.events
WeatherEvent
p36
(dp37
g4
I0
sg5
F442.22048281600001
sg6
I0
sg7
Nsg8
I00
sg9
F442.22048797299993
sg10
(dp38
g12
I0
sg13
I0
sg14
I0
sg15
I0
sg16
I0
sg17
I0
sg18
I0
sg19
I0
sg20
I1
sg21
I0
ssg22
g23
sg24
g25
sg26
I0
sg27
I0
sg28
Nsg29
F5.1569999186540372e-06
sba(iandrea.events
WeatherEvent
p39
(dp40
g4
I0
sg5
F452.22337457199995
sg6
I0
sg7
Nsg8
I00
sg9
F452.22337904199998
sg10
(dp41
g12
I0
sg13
I0
sg14
I0
sg15
I0
sg16
I0
sg17
I0
sg18
I0
sg19
I0
sg20
I1
sg21
I0
ssg22
g23
sg24
g25
sg26
I0
sg27
I0
sg28
Nsg29
F4.4700000216835178e-06
sba(iandrea.events
WeatherEvent
p42
(dp43
g4
I0
sg5
F462.22578034600002
sg6
I0
sg7
Nsg8
I00
sg9
F462.22578510599993
sg10
(dp44
g12
I0
sg13
I0
sg14
I0
sg15
I0
sg16
I0
sg17
I0
sg18
I0
sg19
I0
sg20
I1
sg21
I0
ssg22
g23
sg24
g25
sg26
I0
sg27
I0
sg28
Nsg29
F4.7599999106751056e-06
sba(iandrea.events
WeatherEvent
p45
(dp46
g4
I0
sg5
F472.22690385899995
sg6
I0
sg7
Nsg8
I00
sg9
F472.226911153
sg10
(dp47
g12
I0
sg13
I0
sg14
I0
sg15
I0
sg16
I0
sg17
I0
sg18
I0
sg19
I0
sg20
I1
sg21
I0
ssg22
g23
sg24
g25
sg26
I0
sg27
I0
sg28
Nsg29
F7.2940000563903595e-06
sba(iandrea.events
WeatherEvent
p48
(dp49
g4
I0
sg5
F482.22743204199998
sg6
I0
sg7
Nsg8
I00
sg9
F482.22743902799999
sg10
(dp50
g12
I0
sg13
I0
sg14
I0
sg15
I0
sg16
I0
sg17
I0
sg18
I0
sg19
I0
sg20
I1
sg21
I0
ssg22
g23
sg24
g25
sg26
I0
sg27
I0
sg28
Nsg29
F6.9860000166954705e-06
sba(iandrea.events
WeatherEvent
p51
(dp52
g4
I0
sg5
F492.228590215
sg6
I0
sg7
Nsg8
I00
sg9
F492.228595525
sg10
(dp53
g12
I0
sg13
I0
sg14
I0
sg15
I0
sg16
I0
sg17
I0
sg18
I0
sg19
I0
sg20
I1
sg21
I0
ssg22
g23
sg24
g25
sg26
I0
sg27
I0
sg28
Nsg29
F5.3100000059203012e-06
sba(iandrea.events
WeatherEvent
p54
(dp55
g4
I0
sg5
F502.22955869499998
sg6
I0
sg7
Nsg8
I00
sg9
F502.22956403899997
sg10
(dp56
g12
I0
sg13
I0
sg14
I0
sg15
I0
sg16
I0
sg17
I0
sg18
I0
sg19
I0
sg20
I1
sg21
I0
ssg22
g23
sg24
g25
sg26
I0
sg27
I0
sg28
Nsg29
F5.3439999874171917e-06
sba(iandrea.events
WeatherEvent
p57
(dp58
g4
I0
sg5
F512.23222450100002
sg6
I0
sg7
Nsg8
I00
sg9
F512.23223123399998
sg10
(dp59
g12
I0
sg13
I0
sg14
I0
sg15
I0
sg16
I0
sg17
I0
sg18
I0
sg19
I0
sg20
I1
sg21
I0
ssg22
g23
sg24
g25
sg26
I0
sg27
I0
sg28
Nsg29
F6.7329999637877336e-06
sba(iandrea.events
WeatherEvent
p60
(dp61
g4
I0
sg5
F522.23481061400003
sg6
I0
sg7
Nsg8
I00
sg9
F522.23481570299987
sg10
(dp62
g12
I0
sg13
I0
sg14
I0
sg15
I0
sg16
I0
sg17
I0
sg18
I0
sg19
I0
sg20
I1
sg21
I0
ssg22
g23
sg24
g25
sg26
I0
sg27
I0
sg28
Nsg29
F5.0889998419734184e-06
sba(iandrea.events
WeatherEvent
p63
(dp64
g4
I0
sg5
F532.23636345099999
sg6
I0
sg7
Nsg8
I00
sg9
F532.23636887399994
sg10
(dp65
g12
I0
sg13
I0
sg14
I0
sg15
I0
sg16
I0
sg17
I0
sg18
I0
sg19
I0
sg20
I1
sg21
I0
ssg22
g23
sg24
g25
sg26
I0
sg27
I0
sg28
Nsg29
F5.4229999477684032e-06
sba(iandrea.events
WeatherEvent
p66
(dp67
g4
I0
sg5
F542.23669207600005
sg6
I0
sg7
Nsg8
I00
sg9
F542.2366970569999
sg10
(dp68
g12
I0
sg13
I0
sg14
I0
sg15
I0
sg16
I0
sg17
I0
sg18
I0
sg19
I0
sg20
I1
sg21
I0
ssg22
g23
sg24
g25
sg26
I0
sg27
I0
sg28
Nsg29
F4.980999847248313e-06
sba(iandrea.events
WeatherEvent
p69
(dp70
g4
I0
sg5
F552.23860123999998
sg6
I0
sg7
Nsg8
I00
sg9
F552.23860619800007
sg10
(dp71
g12
I0
sg13
I0
sg14
I0
sg15
I0
sg16
I0
sg17
I0
sg18
I0
sg19
I0
sg20
I1
sg21
I0
ssg22
g23
sg24
g25
sg26
I0
sg27
I0
sg28
Nsg29
F4.9580000904825283e-06
sba(iandrea.events
WeatherEvent
p72
(dp73
g4
I0
sg5
F562.24087084799999
sg6
I0
sg7
Nsg8
I00
sg9
F562.2408755859999
sg10
(dp74
g12
I0
sg13
I0
sg14
I0
sg15
I0
sg16
I0
sg17
I0
sg18
I0
sg19
I0
sg20
I1
sg21
I0
ssg22
g23
sg24
g25
sg26
I0
sg27
I0
sg28
Nsg29
F4.7379999159602448e-06
sba(iandrea.events
WeatherEvent
p75
(dp76
g4
I0
sg5
F572.24183045599989
sg6
I0
sg7
Nsg8
I00
sg9
F572.24183524999989
sg10
(dp77
g12
I0
sg13
I0
sg14
I0
sg15
I0
sg16
I0
sg17
I0
sg18
I0
sg19
I0
sg20
I1
sg21
I0
ssg22
g23
sg24
g25
sg26
I0
sg27
I0
sg28
Nsg29
F4.7940000058588339e-06
sba(iandrea.events
WeatherEvent
p78
(dp79
g4
I0
sg5
F582.24412325100002
sg6
I0
sg7
Nsg8
I00
sg9
F582.24412765099987
sg10
(dp80
g12
I0
sg13
I0
sg14
I0
sg15
I0
sg16
I0
sg17
I0
sg18
I0
sg19
I0
sg20
I1
sg21
I0
ssg22
g23
sg24
g25
sg26
I0
sg27
I0
sg28
Nsg29
F4.3999998524668626e-06
sba(iandrea.events
WeatherEvent
p81
(dp82
g4
I0
sg5
F592.24560785900007
sg6
I0
sg7
Nsg8
I00
sg9
F592.24561494799991
sg10
(dp83
g12
I0
sg13
I0
sg14
I0
sg15
I0
sg16
I0
sg17
I0
sg18
I0
sg19
I0
sg20
I1
sg21
I0
ssg22
g23
sg24
g25
sg26
I0
sg27
I0
sg28
Nsg29
F7.0889998369239038e-06
sba(iandrea.events
WeatherEvent
p84
(dp85
g4
I0
sg5
F602.24584222699991
sg6
I0
sg7
Nsg8
I00
sg9
F602.24584720200005
sg10
(dp86
g12
I0
sg13
I0
sg14
I0
sg15
I0
sg16
I0
sg17
I0
sg18
I0
sg19
I0
sg20
I1
sg21
I0
ssg22
g23
sg24
g25
sg26
I0
sg27
I0
sg28
Nsg29
F4.9750001380743925e-06
sba(iandrea.events
WeatherEvent
p87
(dp88
g4
I0
sg5
F612.24664662999999
sg6
I0
sg7
Nsg8
I00
sg9
F612.24665186700008
sg10
(dp89
g12
I0
sg13
I0
sg14
I0
sg15
I0
sg16
I0
sg17
I0
sg18
I0
sg19
I0
sg20
I1
sg21
I0
ssg22
g23
sg24
g25
sg26
I0
sg27
I0
sg28
Nsg29
F5.2370000958035234e-06
sba.(lp1
(iandrea.events
WeatherEvent
p2
(dp3
S'src'
p4
I0
sS't_i'
p5
F622.24686963399995
sS'level'
p6
I0
sS'res'
p7
NsS'inv'
p8
I00
sS't_f'
p9
F622.24687691000008
sS'etc'
p10
(dp11
S'workers_idle'
p12
I0
sS'workers_busy'
p13
I0
sS'tasks_busy'
p14
I0
sS'MEMOUT'
p15
I0
sS'UNSAT'
p16
I0
sS'TIMEOUT'
p17
I0
sS'ERROR'
p18
I0
sS'tasks_done'
p19
I0
sS'tasks_idle'
p20
I1
sS'SAT'
p21
I0
ssS'gid'
p22
S'wrep'
p23
sS'eid'
p24
S'update'
p25
sS'timeout'
p26
I0
sS'max'
p27
I0
sS'tid'
p28
NsS'dur'
p29
F7.2760001330607338e-06
sba(iandrea.events
WeatherEvent
p30
(dp31
g4
I0
sg5
F632.24761766400002
sg6
I0
sg7
Nsg8
I00
sg9
F632.24762270099995
sg10
(dp32
g12
I0
sg13
I0
sg14
I0
sg15
I0
sg16
I0
sg17
I0
sg18
I0
sg19
I0
sg20
I1
sg21
I0
ssg22
g23
sg24
g25
sg26
I0
sg27
I0
sg28
Nsg29
F5.0369999371469021e-06
sba(iandrea.events
WeatherEvent
p33
(dp34
g4
I0
sg5
F642.24842587199987
sg6
I0
sg7
Nsg8
I00
sg9
F642.24843040099995
sg10
(dp35
g12
I0
sg13
I0
sg14
I0
sg15
I0
sg16
I0
sg17
I0
sg18
I0
sg19
I0
sg20
I1
sg21
I0
ssg22
g23
sg24
g25
sg26
I0
sg27
I0
sg28
Nsg29
F4.5290000798559049e-06
sba(iandrea.events
WeatherEvent
p36
(dp37
g4
I0
sg5
F652.24930869199989
sg6
I0
sg7
Nsg8
I00
sg9
F652.24931425299997
sg10
(dp38
g12
I0
sg13
I0
sg14
I0
sg15
I0
sg16
I0
sg17
I0
sg18
I0
sg19
I0
sg20
I1
sg21
I0
ssg22
g23
sg24
g25
sg26
I0
sg27
I0
sg28
Nsg29
F5.5610000799788395e-06
sba(iandrea.events
WeatherEvent
p39
(dp40
g4
I0
sg5
F662.24993363299996
sg6
I0
sg7
Nsg8
I00
sg9
F662.24993834599991
sg10
(dp41
g12
I0
sg13
I0
sg14
I0
sg15
I0
sg16
I0
sg17
I0
sg18
I0
sg19
I0
sg20
I1
sg21
I0
ssg22
g23
sg24
g25
sg26
I0
sg27
I0
sg28
Nsg29
F4.712999952971586e-06
sba(iandrea.events
WeatherEvent
p42
(dp43
g4
I0
sg5
F672.25089495499992
sg6
I0
sg7
Nsg8
I00
sg9
F672.25089960800005
sg10
(dp44
g12
I0
sg13
I0
sg14
I0
sg15
I0
sg16
I0
sg17
I0
sg18
I0
sg19
I0
sg20
I1
sg21
I0
ssg22
g23
sg24
g25
sg26
I0
sg27
I0
sg28
Nsg29
F4.6530001327482751e-06
sba(iandrea.events
WeatherEvent
p45
(dp46
g4
I0
sg5
F682.25263785900006
sg6
I0
sg7
Nsg8
I00
sg9
F682.25264280300007
sg10
(dp47
g12
I0
sg13
I0
sg14
I0
sg15
I0
sg16
I0
sg17
I0
sg18
I0
sg19
I0
sg20
I1
sg21
I0
ssg22
g23
sg24
g25
sg26
I0
sg27
I0
sg28
Nsg29
F4.9440000111644622e-06
sba(iandrea.events
WeatherEvent
p48
(dp49
g4
I0
sg5
F692.25269828399996
sg6
I0
sg7
Nsg8
I00
sg9
F692.25270379099993
sg10
(dp50
g12
I0
sg13
I0
sg14
I0
sg15
I0
sg16
I0
sg17
I0
sg18
I0
sg19
I0
sg20
I1
sg21
I0
ssg22
g23
sg24
g25
sg26
I0
sg27
I0
sg28
Nsg29
F5.5069999689294491e-06
sba(iandrea.events
WeatherEvent
p51
(dp52
g4
I0
sg5
F702.25320423299991
sg6
I0
sg7
Nsg8
I00
sg9
F702.25320917799991
sg10
(dp53
g12
I0
sg13
I0
sg14
I0
sg15
I0
sg16
I0
sg17
I0
sg18
I0
sg19
I0
sg20
I1
sg21
I0
ssg22
g23
sg24
g25
sg26
I0
sg27
I0
sg28
Nsg29
F4.9450000005890615e-06
sba(iandrea.events
WeatherEvent
p54
(dp55
g4
I0
sg5
F712.25367625800004
sg6
I0
sg7
Nsg8
I00
sg9
F712.25368088100004
sg10
(dp56
g12
I0
sg13
I0
sg14
I0
sg15
I0
sg16
I0
sg17
I0
sg18
I0
sg19
I0
sg20
I1
sg21
I0
ssg22
g23
sg24
g25
sg26
I0
sg27
I0
sg28
Nsg29
F4.6229999952629441e-06
sba(iandrea.events
WeatherEvent
p57
(dp58
g4
I0
sg5
F722.25377653400005
sg6
I0
sg7
Nsg8
I00
sg9
F722.25378124700001
sg10
(dp59
g12
I0
sg13
I0
sg14
I0
sg15
I0
sg16
I0
sg17
I0
sg18
I0
sg19
I0
sg20
I1
sg21
I0
ssg22
g23
sg24
g25
sg26
I0
sg27
I0
sg28
Nsg29
F4.712999952971586e-06
sba(iandrea.events
WeatherEvent
p60
(dp61
g4
I0
sg5
F732.25476983700014
sg6
I0
sg7
Nsg8
I00
sg9
F732.25477515300008
sg10
(dp62
g12
I0
sg13
I0
sg14
I0
sg15
I0
sg16
I0
sg17
I0
sg18
I0
sg19
I0
sg20
I1
sg21
I0
ssg22
g23
sg24
g25
sg26
I0
sg27
I0
sg28
Nsg29
F5.3159999424678972e-06
sba(iandrea.events
WeatherEvent
p63
(dp64
g4
I0
sg5
F742.2561633140001
sg6
I0
sg7
Nsg8
I00
sg9
F742.25616818399999
sg10
(dp65
g12
I0
sg13
I0
sg14
I0
sg15
I0
sg16
I0
sg17
I0
sg18
I0
sg19
I0
sg20
I1
sg21
I0
ssg22
g23
sg24
g25
sg26
I0
sg27
I0
sg28
Nsg29
F4.8699998842494097e-06
sba(iandrea.events
WeatherEvent
p66
(dp67
g4
I0
sg5
F752.25882549099993
sg6
I0
sg7
Nsg8
I00
sg9
F752.25883021300001
sg10
(dp68
g12
I0
sg13
I0
sg14
I0
sg15
I0
sg16
I0
sg17
I0
sg18
I0
sg19
I0
sg20
I1
sg21
I0
ssg22
g23
sg24
g25
sg26
I0
sg27
I0
sg28
Nsg29
F4.7220000851666555e-06
sba(iandrea.events
WeatherEvent
p69
(dp70
g4
I0
sg5
F762.25999896600001
sg6
I0
sg7
Nsg8
I00
sg9
F762.26000412899998
sg10
(dp71
g12
I0
sg13
I0
sg14
I0
sg15
I0
sg16
I0
sg17
I0
sg18
I0
sg19
I0
sg20
I1
sg21
I0
ssg22
g23
sg24
g25
sg26
I0
sg27
I0
sg28
Nsg29
F5.1629999688884709e-06
sba(iandrea.events
WeatherEvent
p72
(dp73
g4
I0
sg5
F772.26089491800008
sg6
I0
sg7
Nsg8
I00
sg9
F772.26090011800011
sg10
(dp74
g12
I0
sg13
I0
sg14
I0
sg15
I0
sg16
I0
sg17
I0
sg18
I0
sg19
I0
sg20
I1
sg21
I0
ssg22
g23
sg24
g25
sg26
I0
sg27
I0
sg28
Nsg29
F5.2000000323459972e-06
sba(iandrea.events
WeatherEvent
p75
(dp76
g4
I0
sg5
F782.26124313500009
sg6
I0
sg7
Nsg8
I00
sg9
F782.26124779500014
sg10
(dp77
g12
I0
sg13
I0
sg14
I0
sg15
I0
sg16
I0
sg17
I0
sg18
I0
sg19
I0
sg20
I1
sg21
I0
ssg22
g23
sg24
g25
sg26
I0
sg27
I0
sg28
Nsg29
F4.6600000587204704e-06
sba(iandrea.events
WeatherEvent
p78
(dp79
g4
I0
sg5
F792.26320004500008
sg6
I0
sg7
Nsg8
I00
sg9
F792.26320813400002
sg10
(dp80
g12
I0
sg13
I0
sg14
I0
sg15
I0
sg16
I0
sg17
I0
sg18
I0
sg19
I0
sg20
I1
sg21
I0
ssg22
g23
sg24
g25
sg26
I0
sg27
I0
sg28
Nsg29
F8.0889999480859842e-06
sba(iandrea.events
WeatherEvent
p81
(dp82
g4
I0
sg5
F802.26329028800001
sg6
I0
sg7
Nsg8
I00
sg9
F802.26329521100001
sg10
(dp83
g12
I0
sg13
I0
sg14
I0
sg15
I0
sg16
I0
sg17
I0
sg18
I0
sg19
I0
sg20
I1
sg21
I0
ssg22
g23
sg24
g25
sg26
I0
sg27
I0
sg28
Nsg29
F4.9230000058742007e-06
sba(iandrea.events
WeatherEvent
p84
(dp85
g4
I0
sg5
F812.26440923400014
sg6
I0
sg7
Nsg8
I00
sg9
F812.264414128
sg10
(dp86
g12
I0
sg13
I0
sg14
I0
sg15
I0
sg16
I0
sg17
I0
sg18
I0
sg19
I0
sg20
I1
sg21
I0
ssg22
g23
sg24
g25
sg26
I0
sg27
I0
sg28
Nsg29
F4.8939998578134691e-06
sba(iandrea.events
WeatherEvent
p87
(dp88
g4
I0
sg5
F822.26476276800008
sg6
I0
sg7
Nsg8
I00
sg9
F822.26476771700004
sg10
(dp89
g12
I0
sg13
I0
sg14
I0
sg15
I0
sg16
I0
sg17
I0
sg18
I0
sg19
I0
sg20
I1
sg21
I0
ssg22
g23
sg24
g25
sg26
I0
sg27
I0
sg28
Nsg29
F4.9489999582874589e-06
sba.(lp1
(iandrea.events
WeatherEvent
p2
(dp3
S'src'
p4
I0
sS't_i'
p5
F832.26513978699995
sS'level'
p6
I0
sS'res'
p7
NsS'inv'
p8
I00
sS't_f'
p9
F832.26514639900006
sS'etc'
p10
(dp11
S'workers_idle'
p12
I0
sS'workers_busy'
p13
I0
sS'tasks_busy'
p14
I0
sS'MEMOUT'
p15
I0
sS'UNSAT'
p16
I0
sS'TIMEOUT'
p17
I0
sS'ERROR'
p18
I0
sS'tasks_done'
p19
I0
sS'tasks_idle'
p20
I1
sS'SAT'
p21
I0
ssS'gid'
p22
S'wrep'
p23
sS'eid'
p24
S'update'
p25
sS'timeout'
p26
I0
sS'max'
p27
I0
sS'tid'
p28
NsS'dur'
p29
F6.6120001065428369e-06
sba(iandrea.events
WeatherEvent
p30
(dp31
g4
I0
sg5
F842.26572626300003
sg6
I0
sg7
Nsg8
I00
sg9
F842.26573274199995
sg10
(dp32
g12
I0
sg13
I0
sg14
I0
sg15
I0
sg16
I0
sg17
I0
sg18
I0
sg19
I0
sg20
I1
sg21
I0
ssg22
g23
sg24
g25
sg26
I0
sg27
I0
sg28
Nsg29
F6.4789999214553973e-06
sba(iandrea.events
WeatherEvent
p33
(dp34
g4
I0
sg5
F852.2675473700001
sg6
I0
sg7
Nsg8
I00
sg9
F852.26755234200004
sg10
(dp35
g12
I0
sg13
I0
sg14
I0
sg15
I0
sg16
I0
sg17
I0
sg18
I0
sg19
I0
sg20
I1
sg21
I0
ssg22
g23
sg24
g25
sg26
I0
sg27
I0
sg28
Nsg29
F4.971999942426919e-06
sba(iandrea.events
WeatherEvent
p36
(dp37
g4
I0
sg5
F862.26786970500007
sg6
I0
sg7
Nsg8
I00
sg9
F862.26787800200009
sg10
(dp38
g12
I0
sg13
I0
sg14
I0
sg15
I0
sg16
I0
sg17
I0
sg18
I0
sg19
I0
sg20
I1
sg21
I0
ssg22
g23
sg24
g25
sg26
I0
sg27
I0
sg28
Nsg29
F8.2970000221394002e-06
sba(iandrea.events
WeatherEvent
p39
(dp40
g4
I0
sg5
F872.26967981100006
sg6
I0
sg7
Nsg8
I00
sg9
F872.26968868900008
sg10
(dp41
g12
I0
sg13
I0
sg14
I0
sg15
I0
sg16
I0
sg17
I0
sg18
I0
sg19
I0
sg20
I1
sg21
I0
ssg22
g23
sg24
g25
sg26
I0
sg27
I0
sg28
Nsg29
F8.8780000169208506e-06
sba(iandrea.events
WeatherEvent
p42
(dp43
g4
I0
sg5
F882.26973328200006
sg6
I0
sg7
Nsg8
I00
sg9
F882.26973916199995
sg10
(dp44
g12
I0
sg13
I0
sg14
I0
sg15
I0
sg16
I0
sg17
I0
sg18
I0
sg19
I0
sg20
I1
sg21
I0
ssg22
g23
sg24
g25
sg26
I0
sg27
I0
sg28
Nsg29
F5.8799998896574834e-06
sba(iandrea.events
WeatherEvent
p45
(dp46
g4
I0
sg5
F892.27082106000012
sg6
I0
sg7
Nsg8
I00
sg9
F892.27082606800013
sg10
(dp47
g12
I0
sg13
I0
sg14
I0
sg15
I0
sg16
I0
sg17
I0
sg18
I0
sg19
I0
sg20
I1
sg21
I0
ssg22
g23
sg24
g25
sg26
I0
sg27
I0
sg28
Nsg29
F5.0080000164598459e-06
sba(iandrea.events
WeatherEvent
p48
(dp49
g4
I0
sg5
F902.27325465900003
sg6
I0
sg7
Nsg8
I00
sg9
F902.27327329100012
sg10
(dp50
g12
I0
sg13
I0
sg14
I0
sg15
I0
sg16
I0
sg17
I0
sg18
I0
sg19
I0
sg20
I1
sg21
I0
ssg22
g23
sg24
g25
sg26
I0
sg27
I0
sg28
Nsg29
F1.8632000092111412e-05
sba(iandrea.events
WeatherEvent
p51
(dp52
g4
I0
sg5
F912.27609235699992
sg6
I0
sg7
Nsg8
I00
sg9
F912.27609716500001
sg10
(dp53
g12
I0
sg13
I0
sg14
I0
sg15
I0
sg16
I0
sg17
I0
sg18
I0
sg19
I0
sg20
I1
sg21
I0
ssg22
g23
sg24
g25
sg26
I0
sg27
I0
sg28
Nsg29
F4.8080000851769e-06
sba(iandrea.events
WeatherEvent
p54
(dp55
g4
I0
sg5
F922.27725572300005
sg6
I0
sg7
Nsg8
I00
sg9
F922.27726059800011
sg10
(dp56
g12
I0
sg13
I0
sg14
I0
sg15
I0
sg16
I0
sg17
I0
sg18
I0
sg19
I0
sg20
I1
sg21
I0
ssg22
g23
sg24
g25
sg26
I0
sg27
I0
sg28
Nsg29
F4.8750000587460818e-06
sba(iandrea.events
WeatherEvent
p57
(dp58
g4
I0
sg5
F932.27816565500007
sg6
I0
sg7
Nsg8
I00
sg9
F932.27817309400007
sg10
(dp59
g12
I0
sg13
I0
sg14
I0
sg15
I0
sg16
I0
sg17
I0
sg18
I0
sg19
I0
sg20
I1
sg21
I0
ssg22
g23
sg24
g25
sg26
I0
sg27
I0
sg28
Nsg29
F7.4390000008861534e-06
sba(iandrea.events
WeatherEvent
p60
(dp61
g4
I0
sg5
F942.27947854800004
sg6
I0
sg7
Nsg8
I00
sg9
F942.27948349500002
sg10
(dp62
g12
I0
sg13
I0
sg14
I0
sg15
I0
sg16
I0
sg17
I0
sg18
I0
sg19
I0
sg20
I1
sg21
I0
ssg22
g23
sg24
g25
sg26
I0
sg27
I0
sg28
Nsg29
F4.9469999794382602e-06
sba(iandrea.events
WeatherEvent
p63
(dp64
g4
I0
sg5
F952.28171129299994
sg6
I0
sg7
Nsg8
I00
sg9
F952.28171596200013
sg10
(dp65
g12
I0
sg13
I0
sg14
I0
sg15
I0
sg16
I0
sg17
I0
sg18
I0
sg19
I0
sg20
I1
sg21
I0
ssg22
g23
sg24
g25
sg26
I0
sg27
I0
sg28
Nsg29
F4.6690001909155399e-06
sba(iandrea.events
WeatherEvent
p66
(dp67
g4
I0
sg5
F962.28344624900001
sg6
I0
sg7
Nsg8
I00
sg9
F962.28345635000005
sg10
(dp68
g12
I0
sg13
I0
sg14
I0
sg15
I0
sg16
I0
sg17
I0
sg18
I0
sg19
I0
sg20
I1
sg21
I0
ssg22
g23
sg24
g25
sg26
I0
sg27
I0
sg28
Nsg29
F1.0101000043505337e-05
sba(iandrea.events
WeatherEvent
p69
(dp70
g4
I0
sg5
F972.28480280700001
sg6
I0
sg7
Nsg8
I00
sg9
F972.28481523100004
sg10
(dp71
g12
I0
sg13
I0
sg14
I0
sg15
I0
sg16
I0
sg17
I0
sg18
I0
sg19
I0
sg20
I1
sg21
I0
ssg22
g23
sg24
g25
sg26
I0
sg27
I0
sg28
Nsg29
F1.2424000033206539e-05
sba(iandrea.events
WeatherEvent
p72
(dp73
g4
I0
sg5
F982.28566574299998
sg6
I0
sg7
Nsg8
I00
sg9
F982.28567024300014
sg10
(dp74
g12
I0
sg13
I0
sg14
I0
sg15
I0
sg16
I0
sg17
I0
sg18
I0
sg19
I0
sg20
I1
sg21
I0
ssg22
g23
sg24
g25
sg26
I0
sg27
I0
sg28
Nsg29
F4.5000001591688488e-06
sba(iandrea.events
WeatherEvent
p75
(dp76
g4
I0
sg5
F992.28621749600006
sg6
I0
sg7
Nsg8
I00
sg9
F992.28622230199994
sg10
(dp77
g12
I0
sg13
I0
sg14
I0
sg15
I0
sg16
I0
sg17
I0
sg18
I0
sg19
I0
sg20
I1
sg21
I0
ssg22
g23
sg24
g25
sg26
I0
sg27
I0
sg28
Nsg29
F4.8059998789540259e-06
sba(iandrea.events
WeatherEvent
p78
(dp79
g4
I0
sg5
F1002.2887729680001
sg6
I0
sg7
Nsg8
I00
sg9
F1002.288777856
sg10
(dp80
g12
I0
sg13
I0
sg14
I0
sg15
I0
sg16
I0
sg17
I0
sg18
I0
sg19
I0
sg20
I1
sg21
I0
ssg22
g23
sg24
g25
sg26
I0
sg27
I0
sg28
Nsg29
F4.8879999212658731e-06
sba(iandrea.events
WeatherEvent
p81
(dp82
g4
I0
sg5
F1012.288930721
sg6
I0
sg7
Nsg8
I00
sg9
F1012.2889356319999
sg10
(dp83
g12
I0
sg13
I0
sg14
I0
sg15
I0
sg16
I0
sg17
I0
sg18
I0
sg19
I0
sg20
I1
sg21
I0
ssg22
g23
sg24
g25
sg26
I0
sg27
I0
sg28
Nsg29
F4.9109999054053333e-06
sba(iandrea.events
WeatherEvent
p84
(dp85
g4
I0
sg5
F1022.2910575779999
sg6
I0
sg7
Nsg8
I00
sg9
F1022.2910625080001
sg10
(dp86
g12
I0
sg13
I0
sg14
I0
sg15
I0
sg16
I0
sg17
I0
sg18
I0
sg19
I0
sg20
I1
sg21
I0
ssg22
g23
sg24
g25
sg26
I0
sg27
I0
sg28
Nsg29
F4.9300001592200715e-06
sba(iandrea.events
WeatherEvent
p87
(dp88
g4
I0
sg5
F1032.2912739349999
sg6
I0
sg7
Nsg8
I00
sg9
F1032.2912784289999
sg10
(dp89
g12
I0
sg13
I0
sg14
I0
sg15
I0
sg16
I0
sg17
I0
sg18
I0
sg19
I0
sg20
I1
sg21
I0
ssg22
g23
sg24
g25
sg26
I0
sg27
I0
sg28
Nsg29
F4.4939999952475773e-06
sba.