(lp1
(iandrea.events
WeatherEvent
p2
(dp3
S'src'
p4
I0
sS't_i'
p5
F0.0092208180001307483
sS'level'
p6
I0
sS'res'
p7
NsS'inv'
p8
I00
sS't_f'
p9
F0.0092290430000048218
sS'etc'
p10
(dp11
S'workers_idle'
p12
I0
sS'workers_busy'
p13
I0
sS'tasks_busy'
p14
I0
sS'MEMOUT'
p15
I0
sS'UNSAT'
p16
I0
sS'TIMEOUT'
p17
I0
sS'ERROR'
p18
I0
sS'tasks_done'
p19
I0
sS'tasks_idle'
p20
I0
sS'SAT'
p21
I0
ssS'gid'
p22
S'wrep'
p23
sS'eid'
p24
S'preinit'
p25
sS'timeout'
p26
I0
sS'max'
p27
I0
sS'tid'
p28
NsS'dur'
p29
F8.2249998740735464e-06
sba(iandrea.events
Event
p30
(dp31
g4
I0
sg5
F0.0092965880000974721
sg6
I0
sg7
S'1 tasks'
p32
sg8
I00
sg9
F45.493657693000159
sg10
(dp33
sg22
S'main'
p34
sg24
S'queue.create'
p35
sg26
I0
sg27
I0
sg28
Nsg29
F45.484361105000062
sba(iandrea.events
WeatherEvent
p36
(dp37
g4
I0
sg5
F45.493705522000027
sg6
I0
sg7
Nsg8
I00
sg9
F45.493710125000007
sg10
(dp38
g12
I0
sg13
I0
sg14
I0
sg15
I0
sg16
I0
sg17
I0
sg18
I0
sg19
I0
sg20
I1
sg21
I0
ssg22
g23
sg24
S'initial'
p39
sg26
I0
sg27
I0
sg28
Nsg29
F4.602999979397282e-06
sba(iandrea.events
WeatherEvent
p40
(dp41
g4
I0
sg5
F55.494179507000126
sg6
I0
sg7
Nsg8
I00
sg9
F55.494188351000048
sg10
(dp42
g12
I0
sg13
I0
sg14
I0
sg15
I0
sg16
I0
sg17
I0
sg18
I0
sg19
I0
sg20
I1
sg21
I0
ssg22
g23
sg24
S'update'
p43
sg26
I0
sg27
I0
sg28
Nsg29
F8.8439999217371223e-06
sba(iandrea.events
WeatherEvent
p44
(dp45
g4
I0
sg5
F65.495245570000179
sg6
I0
sg7
Nsg8
I00
sg9
F65.495254234000186
sg10
(dp46
g12
I0
sg13
I0
sg14
I0
sg15
I0
sg16
I0
sg17
I0
sg18
I0
sg19
I0
sg20
I1
sg21
I0
ssg22
g23
sg24
g43
sg26
I0
sg27
I0
sg28
Nsg29
F8.6640000063198386e-06
sba(iandrea.events
WeatherEvent
p47
(dp48
g4
I0
sg5
F75.496536171000116
sg6
I0
sg7
Nsg8
I00
sg9
F75.496549267000091
sg10
(dp49
g12
I0
sg13
I0
sg14
I0
sg15
I0
sg16
I0
sg17
I0
sg18
I0
sg19
I0
sg20
I1
sg21
I0
ssg22
g23
sg24
g43
sg26
I0
sg27
I0
sg28
Nsg29
F1.3095999975121231e-05
sba(iandrea.events
WeatherEvent
p50
(dp51
g4
I0
sg5
F85.497805567000114
sg6
I0
sg7
Nsg8
I00
sg9
F85.497814465000147
sg10
(dp52
g12
I0
sg13
I0
sg14
I0
sg15
I0
sg16
I0
sg17
I0
sg18
I0
sg19
I0
sg20
I1
sg21
I0
ssg22
g23
sg24
g43
sg26
I0
sg27
I0
sg28
Nsg29
F8.8980000327865127e-06
sba(iandrea.events
WeatherEvent
p53
(dp54
g4
I0
sg5
F95.500207315000125
sg6
I0
sg7
Nsg8
I00
sg9
F95.500218325000105
sg10
(dp55
g12
I0
sg13
I0
sg14
I0
sg15
I0
sg16
I0
sg17
I0
sg18
I0
sg19
I0
sg20
I1
sg21
I0
ssg22
g23
sg24
g43
sg26
I0
sg27
I0
sg28
Nsg29
F1.1009999980160501e-05
sba(iandrea.events
WeatherEvent
p56
(dp57
g4
I0
sg5
F105.502209687
sg6
I0
sg7
Nsg8
I00
sg9
F105.50221673800002
sg10
(dp58
g12
I0
sg13
I0
sg14
I0
sg15
I0
sg16
I0
sg17
I0
sg18
I0
sg19
I0
sg20
I1
sg21
I0
ssg22
g23
sg24
g43
sg26
I0
sg27
I0
sg28
Nsg29
F7.0510000114154536e-06
sba(iandrea.events
WeatherEvent
p59
(dp60
g4
I0
sg5
F115.50614349900002
sg6
I0
sg7
Nsg8
I00
sg9
F115.50615338200009
sg10
(dp61
g12
I0
sg13
I0
sg14
I0
sg15
I0
sg16
I0
sg17
I0
sg18
I0
sg19
I0
sg20
I1
sg21
I0
ssg22
g23
sg24
g43
sg26
I0
sg27
I0
sg28
Nsg29
F9.8830000752059277e-06
sba(iandrea.events
WeatherEvent
p62
(dp63
g4
I0
sg5
F125.50711196800012
sg6
I0
sg7
Nsg8
I00
sg9
F125.50711999600003
sg10
(dp64
g12
I0
sg13
I0
sg14
I0
sg15
I0
sg16
I0
sg17
I0
sg18
I0
sg19
I0
sg20
I1
sg21
I0
ssg22
g23
sg24
g43
sg26
I0
sg27
I0
sg28
Nsg29
F8.0279999110643985e-06
sba(iandrea.events
WeatherEvent
p65
(dp66
g4
I0
sg5
F135.5080931330001
sg6
I0
sg7
Nsg8
I00
sg9
F135.50809982400006
sg10
(dp67
g12
I0
sg13
I0
sg14
I0
sg15
I0
sg16
I0
sg17
I0
sg18
I0
sg19
I0
sg20
I1
sg21
I0
ssg22
g23
sg24
g43
sg26
I0
sg27
I0
sg28
Nsg29
F6.6909999532072106e-06
sba(iandrea.events
WeatherEvent
p68
(dp69
g4
I0
sg5
F145.51002256100014
sg6
I0
sg7
Nsg8
I00
sg9
F145.51003050900022
sg10
(dp70
g12
I0
sg13
I0
sg14
I0
sg15
I0
sg16
I0
sg17
I0
sg18
I0
sg19
I0
sg20
I1
sg21
I0
ssg22
g23
sg24
g43
sg26
I0
sg27
I0
sg28
Nsg29
F7.9480000749754254e-06
sba(iandrea.events
WeatherEvent
p71
(dp72
g4
I0
sg5
F155.51563736700018
sg6
I0
sg7
Nsg8
I00
sg9
F155.51564760000019
sg10
(dp73
g12
I0
sg13
I0
sg14
I0
sg15
I0
sg16
I0
sg17
I0
sg18
I0
sg19
I0
sg20
I1
sg21
I0
ssg22
g23
sg24
g43
sg26
I0
sg27
I0
sg28
Nsg29
F1.0233000011794502e-05
sba(iandrea.events
WeatherEvent
p74
(dp75
g4
I0
sg5
F165.52037878800002
sg6
I0
sg7
Nsg8
I00
sg9
F165.52039504000004
sg10
(dp76
g12
I0
sg13
I0
sg14
I0
sg15
I0
sg16
I0
sg17
I0
sg18
I0
sg19
I0
sg20
I1
sg21
I0
ssg22
g23
sg24
g43
sg26
I0
sg27
I0
sg28
Nsg29
F1.6252000023087021e-05
sba(iandrea.events
WeatherEvent
p77
(dp78
g4
I0
sg5
F175.52309687600018
sg6
I0
sg7
Nsg8
I00
sg9
F175.52310670800011
sg10
(dp79
g12
I0
sg13
I0
sg14
I0
sg15
I0
sg16
I0
sg17
I0
sg18
I0
sg19
I0
sg20
I1
sg21
I0
ssg22
g23
sg24
g43
sg26
I0
sg27
I0
sg28
Nsg29
F9.8319999324303353e-06
sba(iandrea.events
WeatherEvent
p80
(dp81
g4
I0
sg5
F185.52554837600019
sg6
I0
sg7
Nsg8
I00
sg9
F185.525555252
sg10
(dp82
g12
I0
sg13
I0
sg14
I0
sg15
I0
sg16
I0
sg17
I0
sg18
I0
sg19
I0
sg20
I1
sg21
I0
ssg22
g23
sg24
g43
sg26
I0
sg27
I0
sg28
Nsg29
F6.8759998157474911e-06
sba(iandrea.events
WeatherEvent
p83
(dp84
g4
I0
sg5
F195.52816894900002
sg6
I0
sg7
Nsg8
I00
sg9
F195.52817531500023
sg10
(dp85
g12
I0
sg13
I0
sg14
I0
sg15
I0
sg16
I0
sg17
I0
sg18
I0
sg19
I0
sg20
I1
sg21
I0
ssg22
g23
sg24
g43
sg26
I0
sg27
I0
sg28
Nsg29
F6.3660002069809707e-06
sba(iandrea.events
WeatherEvent
p86
(dp87
g4
I0
sg5
F205.52984657800016
sg6
I0
sg7
Nsg8
I00
sg9
F205.52985641300006
sg10
(dp88
g12
I0
sg13
I0
sg14
I0
sg15
I0
sg16
I0
sg17
I0
sg18
I0
sg19
I0
sg20
I1
sg21
I0
ssg22
g23
sg24
g43
sg26
I0
sg27
I0
sg28
Nsg29
F9.8349999007041333e-06
sba(iandrea.events
WeatherEvent
p89
(dp90
g4
I0
sg5
F215.53080621200002
sg6
I0
sg7
Nsg8
I00
sg9
F215.53081304900002
sg10
(dp91
g12
I0
sg13
I0
sg14
I0
sg15
I0
sg16
I0
sg17
I0
sg18
I0
sg19
I0
sg20
I1
sg21
I0
ssg22
g23
sg24
g43
sg26
I0
sg27
I0
sg28
Nsg29
F6.8370000008144416e-06
sba(iandrea.events
WeatherEvent
p92
(dp93
g4
I0
sg5
F225.53168078900012
sg6
I0
sg7
Nsg8
I00
sg9
F225.53168847200004
sg10
(dp94
g12
I0
sg13
I0
sg14
I0
sg15
I0
sg16
I0
sg17
I0
sg18
I0
sg19
I0
sg20
I1
sg21
I0
ssg22
g23
sg24
g43
sg26
I0
sg27
I0
sg28
Nsg29
F7.6829999215988209e-06
sba.(lp1
(iandrea.events
WeatherEvent
p2
(dp3
S'src'
p4
I0
sS't_i'
p5
F235.53528732400014
sS'level'
p6
I0
sS'res'
p7
NsS'inv'
p8
I00
sS't_f'
p9
F235.53529756300009
sS'etc'
p10
(dp11
S'workers_idle'
p12
I0
sS'workers_busy'
p13
I0
sS'tasks_busy'
p14
I0
sS'MEMOUT'
p15
I0
sS'UNSAT'
p16
I0
sS'TIMEOUT'
p17
I0
sS'ERROR'
p18
I0
sS'tasks_done'
p19
I0
sS'tasks_idle'
p20
I1
sS'SAT'
p21
I0
ssS'gid'
p22
S'wrep'
p23
sS'eid'
p24
S'update'
p25
sS'timeout'
p26
I0
sS'max'
p27
I0
sS'tid'
p28
NsS'dur'
p29
F1.0238999948342098e-05
sba(iandrea.events
WeatherEvent
p30
(dp31
g4
I0
sg5
F245.53599060600004
sg6
I0
sg7
Nsg8
I00
sg9
F245.53599735800003
sg10
(dp32
g12
I0
sg13
I0
sg14
I0
sg15
I0
sg16
I0
sg17
I0
sg18
I0
sg19
I0
sg20
I1
sg21
I0
ssg22
g23
sg24
g25
sg26
I0
sg27
I0
sg28
Nsg29
F6.7519999902287964e-06
sba(iandrea.events
WeatherEvent
p33
(dp34
g4
I0
sg5
F255.53814297500003
sg6
I0
sg7
Nsg8
I00
sg9
F255.53816187100006
sg10
(dp35
g12
I0
sg13
I0
sg14
I0
sg15
I0
sg16
I0
sg17
I0
sg18
I0
sg19
I0
sg20
I1
sg21
I0
ssg22
g23
sg24
g25
sg26
I0
sg27
I0
sg28
Nsg29
F1.8896000028689741e-05
sba(iandrea.events
WeatherEvent
p36
(dp37
g4
I0
sg5
F265.54096220600013
sg6
I0
sg7
Nsg8
I00
sg9
F265.54097108400015
sg10
(dp38
g12
I0
sg13
I0
sg14
I0
sg15
I0
sg16
I0
sg17
I0
sg18
I0
sg19
I0
sg20
I1
sg21
I0
ssg22
g23
sg24
g25
sg26
I0
sg27
I0
sg28
Nsg29
F8.8780000169208506e-06
sba(iandrea.events
WeatherEvent
p39
(dp40
g4
I0
sg5
F275.54369653500021
sg6
I0
sg7
Nsg8
I00
sg9
F275.54370302400002
sg10
(dp41
g12
I0
sg13
I0
sg14
I0
sg15
I0
sg16
I0
sg17
I0
sg18
I0
sg19
I0
sg20
I1
sg21
I0
ssg22
g23
sg24
g25
sg26
I0
sg27
I0
sg28
Nsg29
F6.4889998157013906e-06
sba(iandrea.events
WeatherEvent
p42
(dp43
g4
I0
sg5
F285.54453343500018
sg6
I0
sg7
Nsg8
I00
sg9
F285.54454285500015
sg10
(dp44
g12
I0
sg13
I0
sg14
I0
sg15
I0
sg16
I0
sg17
I0
sg18
I0
sg19
I0
sg20
I1
sg21
I0
ssg22
g23
sg24
g25
sg26
I0
sg27
I0
sg28
Nsg29
F9.419999969395576e-06
sba(iandrea.events
WeatherEvent
p45
(dp46
g4
I0
sg5
F295.54558692100022
sg6
I0
sg7
Nsg8
I00
sg9
F295.54559375000008
sg10
(dp47
g12
I0
sg13
I0
sg14
I0
sg15
I0
sg16
I0
sg17
I0
sg18
I0
sg19
I0
sg20
I1
sg21
I0
ssg22
g23
sg24
g25
sg26
I0
sg27
I0
sg28
Nsg29
F6.8289998580439715e-06
sba(iandrea.events
WeatherEvent
p48
(dp49
g4
I0
sg5
F305.54687992000004
sg6
I0
sg7
Nsg8
I00
sg9
F305.54688674500017
sg10
(dp50
g12
I0
sg13
I0
sg14
I0
sg15
I0
sg16
I0
sg17
I0
sg18
I0
sg19
I0
sg20
I1
sg21
I0
ssg22
g23
sg24
g25
sg26
I0
sg27
I0
sg28
Nsg29
F6.8250001277192496e-06
sba(iandrea.events
WeatherEvent
p51
(dp52
g4
I0
sg5
F315.54768808000017
sg6
I0
sg7
Nsg8
I00
sg9
F315.54769457800012
sg10
(dp53
g12
I0
sg13
I0
sg14
I0
sg15
I0
sg16
I0
sg17
I0
sg18
I0
sg19
I0
sg20
I1
sg21
I0
ssg22
g23
sg24
g25
sg26
I0
sg27
I0
sg28
Nsg29
F6.4979999478964601e-06
sba(iandrea.events
WeatherEvent
p54
(dp55
g4
I0
sg5
F325.54945425700021
sg6
I0
sg7
Nsg8
I00
sg9
F325.54946119200008
sg10
(dp56
g12
I0
sg13
I0
sg14
I0
sg15
I0
sg16
I0
sg17
I0
sg18
I0
sg19
I0
sg20
I1
sg21
I0
ssg22
g23
sg24
g25
sg26
I0
sg27
I0
sg28
Nsg29
F6.9349998739198782e-06
sba(iandrea.events
WeatherEvent
p57
(dp58
g4
I0
sg5
F335.54951743900028
sg6
I0
sg7
Nsg8
I00
sg9
F335.54952434300003
sg10
(dp59
g12
I0
sg13
I0
sg14
I0
sg15
I0
sg16
I0
sg17
I0
sg18
I0
sg19
I0
sg20
I1
sg21
I0
ssg22
g23
sg24
g25
sg26
I0
sg27
I0
sg28
Nsg29
F6.9039997470099479e-06
sba(iandrea.events
WeatherEvent
p60
(dp61
g4
I0
sg5
F345.55050797400008
sg6
I0
sg7
Nsg8
I00
sg9
F345.55056085100023
sg10
(dp62
g12
I0
sg13
I0
sg14
I0
sg15
I0
sg16
I0
sg17
I0
sg18
I0
sg19
I0
sg20
I1
sg21
I0
ssg22
g23
sg24
g25
sg26
I0
sg27
I0
sg28
Nsg29
F5.2877000143780606e-05
sba(iandrea.events
WeatherEvent
p63
(dp64
g4
I0
sg5
F355.55187035200015
sg6
I0
sg7
Nsg8
I00
sg9
F355.55187849999993
sg10
(dp65
g12
I0
sg13
I0
sg14
I0
sg15
I0
sg16
I0
sg17
I0
sg18
I0
sg19
I0
sg20
I1
sg21
I0
ssg22
g23
sg24
g25
sg26
I0
sg27
I0
sg28
Nsg29
F8.1479997788846958e-06
sba(iandrea.events
WeatherEvent
p66
(dp67
g4
I0
sg5
F365.55232147700008
sg6
I0
sg7
Nsg8
I00
sg9
F365.55232790199989
sg10
(dp68
g12
I0
sg13
I0
sg14
I0
sg15
I0
sg16
I0
sg17
I0
sg18
I0
sg19
I0
sg20
I1
sg21
I0
ssg22
g23
sg24
g25
sg26
I0
sg27
I0
sg28
Nsg29
F6.4249998104060069e-06
sba(iandrea.events
WeatherEvent
p69
(dp70
g4
I0
sg5
F375.55341360900002
sg6
I0
sg7
Nsg8
I00
sg9
F375.55342283800019
sg10
(dp71
g12
I0
sg13
I0
sg14
I0
sg15
I0
sg16
I0
sg17
I0
sg18
I0
sg19
I0
sg20
I1
sg21
I0
ssg22
g23
sg24
g25
sg26
I0
sg27
I0
sg28
Nsg29
F9.2290001703076996e-06
sba(iandrea.events
WeatherEvent
p72
(dp73
g4
I0
sg5
F385.55563010000014
sg6
I0
sg7
Nsg8
I00
sg9
F385.55563646900009
sg10
(dp74
g12
I0
sg13
I0
sg14
I0
sg15
I0
sg16
I0
sg17
I0
sg18
I0
sg19
I0
sg20
I1
sg21
I0
ssg22
g23
sg24
g25
sg26
I0
sg27
I0
sg28
Nsg29
F6.3689999478810932e-06
sba(iandrea.events
WeatherEvent
p75
(dp76
g4
I0
sg5
F395.55867705300034
sg6
I0
sg7
Nsg8
I00
sg9
F395.55868326600012
sg10
(dp77
g12
I0
sg13
I0
sg14
I0
sg15
I0
sg16
I0
sg17
I0
sg18
I0
sg19
I0
sg20
I1
sg21
I0
ssg22
g23
sg24
g25
sg26
I0
sg27
I0
sg28
Nsg29
F6.2129997786541935e-06
sba(iandrea.events
WeatherEvent
p78
(dp79
g4
I0
sg5
F405.56011910000007
sg6
I0
sg7
Nsg8
I00
sg9
F405.56012865499997
sg10
(dp80
g12
I0
sg13
I0
sg14
I0
sg15
I0
sg16
I0
sg17
I0
sg18
I0
sg19
I0
sg20
I1
sg21
I0
ssg22
g23
sg24
g25
sg26
I0
sg27
I0
sg28
Nsg29
F9.5549999059585389e-06
sba(iandrea.events
WeatherEvent
p81
(dp82
g4
I0
sg5
F415.562933703
sg6
I0
sg7
Nsg8
I00
sg9
F415.5629545060001
sg10
(dp83
g12
I0
sg13
I0
sg14
I0
sg15
I0
sg16
I0
sg17
I0
sg18
I0
sg19
I0
sg20
I1
sg21
I0
ssg22
g23
sg24
g25
sg26
I0
sg27
I0
sg28
Nsg29
F2.0803000097657787e-05
sba(iandrea.events
WeatherEvent
p84
(dp85
g4
I0
sg5
F425.56542189700031
sg6
I0
sg7
Nsg8
I00
sg9
F425.56543404200011
sg10
(dp86
g12
I0
sg13
I0
sg14
I0
sg15
I0
sg16
I0
sg17
I0
sg18
I0
sg19
I0
sg20
I1
sg21
I0
ssg22
g23
sg24
g25
sg26
I0
sg27
I0
sg28
Nsg29
F1.2144999800511869e-05
sba(iandrea.events
WeatherEvent
p87
(dp88
g4
I0
sg5
F435.56654835500012
sg6
I0
sg7
Nsg8
I00
sg9
F435.5665587010003
sg10
(dp89
g12
I0
sg13
I0
sg14
I0
sg15
I0
sg16
I0
sg17
I0
sg18
I0
sg19
I0
sg20
I1
sg21
I0
ssg22
g23
sg24
g25
sg26
I0
sg27
I0
sg28
Nsg29
F1.0346000181016279e-05
sba.