(lp1
(iandrea.events
WeatherEvent
p2
(dp3
S'src'
p4
I0
sS't_i'
p5
F0.0022741229999999999
sS'level'
p6
I0
sS'res'
p7
NsS'inv'
p8
I00
sS't_f'
p9
F0.0022813479999999999
sS'etc'
p10
(dp11
S'workers_idle'
p12
I0
sS'workers_busy'
p13
I0
sS'tasks_busy'
p14
I0
sS'MEMOUT'
p15
I0
sS'UNSAT'
p16
I0
sS'TIMEOUT'
p17
I0
sS'ERROR'
p18
I0
sS'tasks_done'
p19
I0
sS'tasks_idle'
p20
I0
sS'SAT'
p21
I0
ssS'gid'
p22
S'wrep'
p23
sS'eid'
p24
S'preinit'
p25
sS'timeout'
p26
I0
sS'max'
p27
I0
sS'tid'
p28
NsS'dur'
p29
F7.2250000000000265e-06
sba(iandrea.events
Event
p30
(dp31
g4
I0
sg5
F0.00233673
sg6
I0
sg7
S'1 tasks'
p32
sg8
I00
sg9
F22.856710708000001
sg10
(dp33
sg22
S'main'
p34
sg24
S'queue.create'
p35
sg26
I0
sg27
I0
sg28
Nsg29
F22.854373978000002
sba(iandrea.events
WeatherEvent
p36
(dp37
g4
I0
sg5
F22.856775661
sg6
I0
sg7
Nsg8
I00
sg9
F22.85678102
sg10
(dp38
g12
I0
sg13
I0
sg14
I0
sg15
I0
sg16
I0
sg17
I0
sg18
I0
sg19
I0
sg20
I1
sg21
I0
ssg22
g23
sg24
S'initial'
p39
sg26
I0
sg27
I0
sg28
Nsg29
F5.3589999993164383e-06
sba(iandrea.events
WeatherEvent
p40
(dp41
g4
I0
sg5
F32.856988411000003
sg6
I0
sg7
Nsg8
I00
sg9
F32.856994243000003
sg10
(dp42
g12
I0
sg13
I0
sg14
I0
sg15
I0
sg16
I0
sg17
I0
sg18
I0
sg19
I0
sg20
I1
sg21
I0
ssg22
g23
sg24
S'update'
p43
sg26
I0
sg27
I0
sg28
Nsg29
F5.8319999993727833e-06
sba(iandrea.events
WeatherEvent
p44
(dp45
g4
I0
sg5
F42.857631421000001
sg6
I0
sg7
Nsg8
I00
sg9
F42.857636472999999
sg10
(dp46
g12
I0
sg13
I0
sg14
I0
sg15
I0
sg16
I0
sg17
I0
sg18
I0
sg19
I0
sg20
I1
sg21
I0
ssg22
g23
sg24
g43
sg26
I0
sg27
I0
sg28
Nsg29
F5.0519999987841402e-06
sba(iandrea.events
WeatherEvent
p47
(dp48
g4
I0
sg5
F52.859275697000001
sg6
I0
sg7
Nsg8
I00
sg9
F52.859280806999998
sg10
(dp49
g12
I0
sg13
I0
sg14
I0
sg15
I0
sg16
I0
sg17
I0
sg18
I0
sg19
I0
sg20
I1
sg21
I0
ssg22
g23
sg24
g43
sg26
I0
sg27
I0
sg28
Nsg29
F5.1099999964776543e-06
sba(iandrea.events
WeatherEvent
p50
(dp51
g4
I0
sg5
F62.860406197000003
sg6
I0
sg7
Nsg8
I00
sg9
F62.860411442999997
sg10
(dp52
g12
I0
sg13
I0
sg14
I0
sg15
I0
sg16
I0
sg17
I0
sg18
I0
sg19
I0
sg20
I1
sg21
I0
ssg22
g23
sg24
g43
sg26
I0
sg27
I0
sg28
Nsg29
F5.2459999935194901e-06
sba(iandrea.events
WeatherEvent
p53
(dp54
g4
I0
sg5
F72.861091263000006
sg6
I0
sg7
Nsg8
I00
sg9
F72.861096524000004
sg10
(dp55
g12
I0
sg13
I0
sg14
I0
sg15
I0
sg16
I0
sg17
I0
sg18
I0
sg19
I0
sg20
I1
sg21
I0
ssg22
g23
sg24
g43
sg26
I0
sg27
I0
sg28
Nsg29
F5.2609999983133093e-06
sba(iandrea.events
WeatherEvent
p56
(dp57
g4
I0
sg5
F82.862192594000007
sg6
I0
sg7
Nsg8
I00
sg9
F82.862197367999997
sg10
(dp58
g12
I0
sg13
I0
sg14
I0
sg15
I0
sg16
I0
sg17
I0
sg18
I0
sg19
I0
sg20
I1
sg21
I0
ssg22
g23
sg24
g43
sg26
I0
sg27
I0
sg28
Nsg29
F4.7739999899931718e-06
sba(iandrea.events
WeatherEvent
p59
(dp60
g4
I0
sg5
F92.862430023000002
sg6
I0
sg7
Nsg8
I00
sg9
F92.862437352000001
sg10
(dp61
g12
I0
sg13
I0
sg14
I0
sg15
I0
sg16
I0
sg17
I0
sg18
I0
sg19
I0
sg20
I1
sg21
I0
ssg22
g23
sg24
g43
sg26
I0
sg27
I0
sg28
Nsg29
F7.32899999889014e-06
sba(iandrea.events
WeatherEvent
p62
(dp63
g4
I0
sg5
F102.86412800399999
sg6
I0
sg7
Nsg8
I00
sg9
F102.864135655
sg10
(dp64
g12
I0
sg13
I0
sg14
I0
sg15
I0
sg16
I0
sg17
I0
sg18
I0
sg19
I0
sg20
I1
sg21
I0
ssg22
g23
sg24
g43
sg26
I0
sg27
I0
sg28
Nsg29
F7.6510000042162574e-06
sba(iandrea.events
WeatherEvent
p65
(dp66
g4
I0
sg5
F112.864387229
sg6
I0
sg7
Nsg8
I00
sg9
F112.864392111
sg10
(dp67
g12
I0
sg13
I0
sg14
I0
sg15
I0
sg16
I0
sg17
I0
sg18
I0
sg19
I0
sg20
I1
sg21
I0
ssg22
g23
sg24
g43
sg26
I0
sg27
I0
sg28
Nsg29
F4.8819999989291318e-06
sba(iandrea.events
WeatherEvent
p68
(dp69
g4
I0
sg5
F122.866178893
sg6
I0
sg7
Nsg8
I00
sg9
F122.866184252
sg10
(dp70
g12
I0
sg13
I0
sg14
I0
sg15
I0
sg16
I0
sg17
I0
sg18
I0
sg19
I0
sg20
I1
sg21
I0
ssg22
g23
sg24
g43
sg26
I0
sg27
I0
sg28
Nsg29
F5.3589999993164383e-06
sba(iandrea.events
WeatherEvent
p71
(dp72
g4
I0
sg5
F132.86765709100001
sg6
I0
sg7
Nsg8
I00
sg9
F132.86766315400001
sg10
(dp73
g12
I0
sg13
I0
sg14
I0
sg15
I0
sg16
I0
sg17
I0
sg18
I0
sg19
I0
sg20
I1
sg21
I0
ssg22
g23
sg24
g43
sg26
I0
sg27
I0
sg28
Nsg29
F6.0630000007222407e-06
sba(iandrea.events
WeatherEvent
p74
(dp75
g4
I0
sg5
F142.86767889800001
sg6
I0
sg7
Nsg8
I00
sg9
F142.86768606999999
sg10
(dp76
g12
I0
sg13
I0
sg14
I0
sg15
I0
sg16
I0
sg17
I0
sg18
I0
sg19
I0
sg20
I1
sg21
I0
ssg22
g23
sg24
g43
sg26
I0
sg27
I0
sg28
Nsg29
F7.1719999823471881e-06
sba(iandrea.events
WeatherEvent
p77
(dp78
g4
I0
sg5
F152.86812311200001
sg6
I0
sg7
Nsg8
I00
sg9
F152.868128332
sg10
(dp79
g12
I0
sg13
I0
sg14
I0
sg15
I0
sg16
I0
sg17
I0
sg18
I0
sg19
I0
sg20
I1
sg21
I0
ssg22
g23
sg24
g43
sg26
I0
sg27
I0
sg28
Nsg29
F5.2199999913682404e-06
sba(iandrea.events
WeatherEvent
p80
(dp81
g4
I0
sg5
F162.869910527
sg6
I0
sg7
Nsg8
I00
sg9
F162.86991747900001
sg10
(dp82
g12
I0
sg13
I0
sg14
I0
sg15
I0
sg16
I0
sg17
I0
sg18
I0
sg19
I0
sg20
I1
sg21
I0
ssg22
g23
sg24
g43
sg26
I0
sg27
I0
sg28
Nsg29
F6.9520000067768706e-06
sba(iandrea.events
WeatherEvent
p83
(dp84
g4
I0
sg5
F172.87200734699999
sg6
I0
sg7
Nsg8
I00
sg9
F172.87201431299999
sg10
(dp85
g12
I0
sg13
I0
sg14
I0
sg15
I0
sg16
I0
sg17
I0
sg18
I0
sg19
I0
sg20
I1
sg21
I0
ssg22
g23
sg24
g43
sg26
I0
sg27
I0
sg28
Nsg29
F6.9660000008298084e-06
sba(iandrea.events
WeatherEvent
p86
(dp87
g4
I0
sg5
F182.87210604399999
sg6
I0
sg7
Nsg8
I00
sg9
F182.872113216
sg10
(dp88
g12
I0
sg13
I0
sg14
I0
sg15
I0
sg16
I0
sg17
I0
sg18
I0
sg19
I0
sg20
I1
sg21
I0
ssg22
g23
sg24
g43
sg26
I0
sg27
I0
sg28
Nsg29
F7.1720000107688975e-06
sba(iandrea.events
WeatherEvent
p89
(dp90
g4
I0
sg5
F192.873121677
sg6
I0
sg7
Nsg8
I00
sg9
F192.87312681700001
sg10
(dp91
g12
I0
sg13
I0
sg14
I0
sg15
I0
sg16
I0
sg17
I0
sg18
I0
sg19
I0
sg20
I1
sg21
I0
ssg22
g23
sg24
g43
sg26
I0
sg27
I0
sg28
Nsg29
F5.1400000131707202e-06
sba(iandrea.events
WeatherEvent
p92
(dp93
g4
I0
sg5
F202.87521344500001
sg6
I0
sg7
Nsg8
I00
sg9
F202.875222224
sg10
(dp94
g12
I0
sg13
I0
sg14
I0
sg15
I0
sg16
I0
sg17
I0
sg18
I0
sg19
I0
sg20
I1
sg21
I0
ssg22
g23
sg24
g43
sg26
I0
sg27
I0
sg28
Nsg29
F8.7789999838605581e-06
sba.(lp1
(iandrea.events
WeatherEvent
p2
(dp3
S'src'
p4
I0
sS't_i'
p5
F212.876871698
sS'level'
p6
I0
sS'res'
p7
NsS'inv'
p8
I00
sS't_f'
p9
F212.87688015800001
sS'etc'
p10
(dp11
S'workers_idle'
p12
I0
sS'workers_busy'
p13
I0
sS'tasks_busy'
p14
I0
sS'MEMOUT'
p15
I0
sS'UNSAT'
p16
I0
sS'TIMEOUT'
p17
I0
sS'ERROR'
p18
I0
sS'tasks_done'
p19
I0
sS'tasks_idle'
p20
I1
sS'SAT'
p21
I0
ssS'gid'
p22
S'wrep'
p23
sS'eid'
p24
S'update'
p25
sS'timeout'
p26
I0
sS'max'
p27
I0
sS'tid'
p28
NsS'dur'
p29
F8.4600000036516576e-06
sba(iandrea.events
WeatherEvent
p30
(dp31
g4
I0
sg5
F222.878847218
sg6
I0
sg7
Nsg8
I00
sg9
F222.87885831400001
sg10
(dp32
g12
I0
sg13
I0
sg14
I0
sg15
I0
sg16
I0
sg17
I0
sg18
I0
sg19
I0
sg20
I1
sg21
I0
ssg22
g23
sg24
g25
sg26
I0
sg27
I0
sg28
Nsg29
F1.1096000008592455e-05
sba(iandrea.events
WeatherEvent
p33
(dp34
g4
I0
sg5
F232.88042933599999
sg6
I0
sg7
Nsg8
I00
sg9
F232.88043645900001
sg10
(dp35
g12
I0
sg13
I0
sg14
I0
sg15
I0
sg16
I0
sg17
I0
sg18
I0
sg19
I0
sg20
I1
sg21
I0
ssg22
g23
sg24
g25
sg26
I0
sg27
I0
sg28
Nsg29
F7.1230000173727603e-06
sba(iandrea.events
WeatherEvent
p36
(dp37
g4
I0
sg5
F242.88093662200001
sg6
I0
sg7
Nsg8
I00
sg9
F242.88094781999999
sg10
(dp38
g12
I0
sg13
I0
sg14
I0
sg15
I0
sg16
I0
sg17
I0
sg18
I0
sg19
I0
sg20
I1
sg21
I0
ssg22
g23
sg24
g25
sg26
I0
sg27
I0
sg28
Nsg29
F1.1197999981504836e-05
sba(iandrea.events
WeatherEvent
p39
(dp40
g4
I0
sg5
F252.88198126200001
sg6
I0
sg7
Nsg8
I00
sg9
F252.88198637299999
sg10
(dp41
g12
I0
sg13
I0
sg14
I0
sg15
I0
sg16
I0
sg17
I0
sg18
I0
sg19
I0
sg20
I1
sg21
I0
ssg22
g23
sg24
g25
sg26
I0
sg27
I0
sg28
Nsg29
F5.1109999787968263e-06
sba(iandrea.events
WeatherEvent
p42
(dp43
g4
I0
sg5
F262.88351921999998
sg6
I0
sg7
Nsg8
I00
sg9
F262.88352432599999
sg10
(dp44
g12
I0
sg13
I0
sg14
I0
sg15
I0
sg16
I0
sg17
I0
sg18
I0
sg19
I0
sg20
I1
sg21
I0
ssg22
g23
sg24
g25
sg26
I0
sg27
I0
sg28
Nsg29
F5.1060000032521202e-06
sba(iandrea.events
WeatherEvent
p45
(dp46
g4
I0
sg5
F272.88516353799997
sg6
I0
sg7
Nsg8
I00
sg9
F272.88516996700002
sg10
(dp47
g12
I0
sg13
I0
sg14
I0
sg15
I0
sg16
I0
sg17
I0
sg18
I0
sg19
I0
sg20
I1
sg21
I0
ssg22
g23
sg24
g25
sg26
I0
sg27
I0
sg28
Nsg29
F6.4290000523214985e-06
sba(iandrea.events
WeatherEvent
p48
(dp49
g4
I0
sg5
F282.88682304700001
sg6
I0
sg7
Nsg8
I00
sg9
F282.88682816300002
sg10
(dp50
g12
I0
sg13
I0
sg14
I0
sg15
I0
sg16
I0
sg17
I0
sg18
I0
sg19
I0
sg20
I1
sg21
I0
ssg22
g23
sg24
g25
sg26
I0
sg27
I0
sg28
Nsg29
F5.1160000111849513e-06
sba(iandrea.events
WeatherEvent
p51
(dp52
g4
I0
sg5
F292.888097458
sg6
I0
sg7
Nsg8
I00
sg9
F292.888103043
sg10
(dp53
g12
I0
sg13
I0
sg14
I0
sg15
I0
sg16
I0
sg17
I0
sg18
I0
sg19
I0
sg20
I1
sg21
I0
ssg22
g23
sg24
g25
sg26
I0
sg27
I0
sg28
Nsg29
F5.5849999966994801e-06
sba(iandrea.events
WeatherEvent
p54
(dp55
g4
I0
sg5
F302.88915312099999
sg6
I0
sg7
Nsg8
I00
sg9
F302.88916274799999
sg10
(dp56
g12
I0
sg13
I0
sg14
I0
sg15
I0
sg16
I0
sg17
I0
sg18
I0
sg19
I0
sg20
I1
sg21
I0
ssg22
g23
sg24
g25
sg26
I0
sg27
I0
sg28
Nsg29
F9.6269999971809739e-06
sba(iandrea.events
WeatherEvent
p57
(dp58
g4
I0
sg5
F312.89054231900002
sg6
I0
sg7
Nsg8
I00
sg9
F312.890549937
sg10
(dp59
g12
I0
sg13
I0
sg14
I0
sg15
I0
sg16
I0
sg17
I0
sg18
I0
sg19
I0
sg20
I1
sg21
I0
ssg22
g23
sg24
g25
sg26
I0
sg27
I0
sg28
Nsg29
F7.6179999837222567e-06
sba(iandrea.events
WeatherEvent
p60
(dp61
g4
I0
sg5
F322.89127818399999
sg6
I0
sg7
Nsg8
I00
sg9
F322.89128766300001
sg10
(dp62
g12
I0
sg13
I0
sg14
I0
sg15
I0
sg16
I0
sg17
I0
sg18
I0
sg19
I0
sg20
I1
sg21
I0
ssg22
g23
sg24
g25
sg26
I0
sg27
I0
sg28
Nsg29
F9.4790000275679631e-06
sba(iandrea.events
WeatherEvent
p63
(dp64
g4
I0
sg5
F332.89320788700002
sg6
I0
sg7
Nsg8
I00
sg9
F332.89321778999999
sg10
(dp65
g12
I0
sg13
I0
sg14
I0
sg15
I0
sg16
I0
sg17
I0
sg18
I0
sg19
I0
sg20
I1
sg21
I0
ssg22
g23
sg24
g25
sg26
I0
sg27
I0
sg28
Nsg29
F9.9029999773847521e-06
sba(iandrea.events
WeatherEvent
p66
(dp67
g4
I0
sg5
F342.89419551999998
sg6
I0
sg7
Nsg8
I00
sg9
F342.89420370599998
sg10
(dp68
g12
I0
sg13
I0
sg14
I0
sg15
I0
sg16
I0
sg17
I0
sg18
I0
sg19
I0
sg20
I1
sg21
I0
ssg22
g23
sg24
g25
sg26
I0
sg27
I0
sg28
Nsg29
F8.186000002297078e-06
sba(iandrea.events
WeatherEvent
p69
(dp70
g4
I0
sg5
F352.89559678500001
sg6
I0
sg7
Nsg8
I00
sg9
F352.89561063100001
sg10
(dp71
g12
I0
sg13
I0
sg14
I0
sg15
I0
sg16
I0
sg17
I0
sg18
I0
sg19
I0
sg20
I1
sg21
I0
ssg22
g23
sg24
g25
sg26
I0
sg27
I0
sg28
Nsg29
F1.3846000001649372e-05
sba(iandrea.events
WeatherEvent
p72
(dp73
g4
I0
sg5
F362.89765416799997
sg6
I0
sg7
Nsg8
I00
sg9
F362.89765894800001
sg10
(dp74
g12
I0
sg13
I0
sg14
I0
sg15
I0
sg16
I0
sg17
I0
sg18
I0
sg19
I0
sg20
I1
sg21
I0
ssg22
g23
sg24
g25
sg26
I0
sg27
I0
sg28
Nsg29
F4.7800000402276055e-06
sba(iandrea.events
WeatherEvent
p75
(dp76
g4
I0
sg5
F372.898427422
sg6
I0
sg7
Nsg8
I00
sg9
F372.898434366
sg10
(dp77
g12
I0
sg13
I0
sg14
I0
sg15
I0
sg16
I0
sg17
I0
sg18
I0
sg19
I0
sg20
I1
sg21
I0
ssg22
g23
sg24
g25
sg26
I0
sg27
I0
sg28
Nsg29
F6.9440000061149476e-06
sba(iandrea.events
WeatherEvent
p78
(dp79
g4
I0
sg5
F382.89882919000001
sg6
I0
sg7
Nsg8
I00
sg9
F382.898834857
sg10
(dp80
g12
I0
sg13
I0
sg14
I0
sg15
I0
sg16
I0
sg17
I0
sg18
I0
sg19
I0
sg20
I1
sg21
I0
ssg22
g23
sg24
g25
sg26
I0
sg27
I0
sg28
Nsg29
F5.6669999821679085e-06
sba(iandrea.events
WeatherEvent
p81
(dp82
g4
I0
sg5
F392.89952716200003
sg6
I0
sg7
Nsg8
I00
sg9
F392.89953604499999
sg10
(dp83
g12
I0
sg13
I0
sg14
I0
sg15
I0
sg16
I0
sg17
I0
sg18
I0
sg19
I0
sg20
I1
sg21
I0
ssg22
g23
sg24
g25
sg26
I0
sg27
I0
sg28
Nsg29
F8.8829999640438473e-06
sba(iandrea.events
WeatherEvent
p84
(dp85
g4
I0
sg5
F402.89993941400002
sg6
I0
sg7
Nsg8
I00
sg9
F402.89994810899998
sg10
(dp86
g12
I0
sg13
I0
sg14
I0
sg15
I0
sg16
I0
sg17
I0
sg18
I0
sg19
I0
sg20
I1
sg21
I0
ssg22
g23
sg24
g25
sg26
I0
sg27
I0
sg28
Nsg29
F8.6949999626995123e-06
sba(iandrea.events
WeatherEvent
p87
(dp88
g4
I0
sg5
F412.90060930800001
sg6
I0
sg7
Nsg8
I00
sg9
F412.90061803600003
sg10
(dp89
g12
I0
sg13
I0
sg14
I0
sg15
I0
sg16
I0
sg17
I0
sg18
I0
sg19
I0
sg20
I1
sg21
I0
ssg22
g23
sg24
g25
sg26
I0
sg27
I0
sg28
Nsg29
F8.7280000116152223e-06
sba.(lp1
(iandrea.events
WeatherEvent
p2
(dp3
S'src'
p4
I0
sS't_i'
p5
F422.900669333
sS'level'
p6
I0
sS'res'
p7
NsS'inv'
p8
I00
sS't_f'
p9
F422.90067424
sS'etc'
p10
(dp11
S'workers_idle'
p12
I0
sS'workers_busy'
p13
I0
sS'tasks_busy'
p14
I0
sS'MEMOUT'
p15
I0
sS'UNSAT'
p16
I0
sS'TIMEOUT'
p17
I0
sS'ERROR'
p18
I0
sS'tasks_done'
p19
I0
sS'tasks_idle'
p20
I1
sS'SAT'
p21
I0
ssS'gid'
p22
S'wrep'
p23
sS'eid'
p24
S'update'
p25
sS'timeout'
p26
I0
sS'max'
p27
I0
sS'tid'
p28
NsS'dur'
p29
F4.9070000045503548e-06
sba(iandrea.events
WeatherEvent
p30
(dp31
g4
I0
sg5
F432.90138869200001
sg6
I0
sg7
Nsg8
I00
sg9
F432.90139606499997
sg10
(dp32
g12
I0
sg13
I0
sg14
I0
sg15
I0
sg16
I0
sg17
I0
sg18
I0
sg19
I0
sg20
I1
sg21
I0
ssg22
g23
sg24
g25
sg26
I0
sg27
I0
sg28
Nsg29
F7.3729999598981522e-06
sba(iandrea.events
WeatherEvent
p33
(dp34
g4
I0
sg5
F442.90141571999999
sg6
I0
sg7
Nsg8
I00
sg9
F442.90142100700001
sg10
(dp35
g12
I0
sg13
I0
sg14
I0
sg15
I0
sg16
I0
sg17
I0
sg18
I0
sg19
I0
sg20
I1
sg21
I0
ssg22
g23
sg24
g25
sg26
I0
sg27
I0
sg28
Nsg29
F5.2870000217808411e-06
sba(iandrea.events
WeatherEvent
p36
(dp37
g4
I0
sg5
F452.90177460199999
sg6
I0
sg7
Nsg8
I00
sg9
F452.90177963000002
sg10
(dp38
g12
I0
sg13
I0
sg14
I0
sg15
I0
sg16
I0
sg17
I0
sg18
I0
sg19
I0
sg20
I1
sg21
I0
ssg22
g23
sg24
g25
sg26
I0
sg27
I0
sg28
Nsg29
F5.0280000323255081e-06
sba(iandrea.events
WeatherEvent
p39
(dp40
g4
I0
sg5
F462.90206716099999
sg6
I0
sg7
Nsg8
I00
sg9
F462.90207489199997
sg10
(dp41
g12
I0
sg13
I0
sg14
I0
sg15
I0
sg16
I0
sg17
I0
sg18
I0
sg19
I0
sg20
I1
sg21
I0
ssg22
g23
sg24
g25
sg26
I0
sg27
I0
sg28
Nsg29
F7.7309999824137776e-06
sba(iandrea.events
WeatherEvent
p42
(dp43
g4
I0
sg5
F472.90376293200001
sg6
I0
sg7
Nsg8
I00
sg9
F472.90377112700003
sg10
(dp44
g12
I0
sg13
I0
sg14
I0
sg15
I0
sg16
I0
sg17
I0
sg18
I0
sg19
I0
sg20
I1
sg21
I0
ssg22
g23
sg24
g25
sg26
I0
sg27
I0
sg28
Nsg29
F8.1950000208053098e-06
sba(iandrea.events
WeatherEvent
p45
(dp46
g4
I0
sg5
F482.905870386
sg6
I0
sg7
Nsg8
I00
sg9
F482.90588004900002
sg10
(dp47
g12
I0
sg13
I0
sg14
I0
sg15
I0
sg16
I0
sg17
I0
sg18
I0
sg19
I0
sg20
I1
sg21
I0
ssg22
g23
sg24
g25
sg26
I0
sg27
I0
sg28
Nsg29
F9.6630000143704819e-06
sba(iandrea.events
WeatherEvent
p48
(dp49
g4
I0
sg5
F492.90607801700003
sg6
I0
sg7
Nsg8
I00
sg9
F492.90608389800002
sg10
(dp50
g12
I0
sg13
I0
sg14
I0
sg15
I0
sg16
I0
sg17
I0
sg18
I0
sg19
I0
sg20
I1
sg21
I0
ssg22
g23
sg24
g25
sg26
I0
sg27
I0
sg28
Nsg29
F5.8809999927689205e-06
sba(iandrea.events
WeatherEvent
p51
(dp52
g4
I0
sg5
F502.90758527499997
sg6
I0
sg7
Nsg8
I00
sg9
F502.90759013799999
sg10
(dp53
g12
I0
sg13
I0
sg14
I0
sg15
I0
sg16
I0
sg17
I0
sg18
I0
sg19
I0
sg20
I1
sg21
I0
ssg22
g23
sg24
g25
sg26
I0
sg27
I0
sg28
Nsg29
F4.8630000151206332e-06
sba(iandrea.events
WeatherEvent
p54
(dp55
g4
I0
sg5
F512.90905216600004
sg6
I0
sg7
Nsg8
I00
sg9
F512.90905763199999
sg10
(dp56
g12
I0
sg13
I0
sg14
I0
sg15
I0
sg16
I0
sg17
I0
sg18
I0
sg19
I0
sg20
I1
sg21
I0
ssg22
g23
sg24
g25
sg26
I0
sg27
I0
sg28
Nsg29
F5.4659999477735255e-06
sba(iandrea.events
WeatherEvent
p57
(dp58
g4
I0
sg5
F522.91001894999999
sg6
I0
sg7
Nsg8
I00
sg9
F522.91002721799998
sg10
(dp59
g12
I0
sg13
I0
sg14
I0
sg15
I0
sg16
I0
sg17
I0
sg18
I0
sg19
I0
sg20
I1
sg21
I0
ssg22
g23
sg24
g25
sg26
I0
sg27
I0
sg28
Nsg29
F8.2679999877655064e-06
sba(iandrea.events
WeatherEvent
p60
(dp61
g4
I0
sg5
F532.91048030100001
sg6
I0
sg7
Nsg8
I00
sg9
F532.91048554500003
sg10
(dp62
g12
I0
sg13
I0
sg14
I0
sg15
I0
sg16
I0
sg17
I0
sg18
I0
sg19
I0
sg20
I1
sg21
I0
ssg22
g23
sg24
g25
sg26
I0
sg27
I0
sg28
Nsg29
F5.2440000217757188e-06
sba(iandrea.events
WeatherEvent
p63
(dp64
g4
I0
sg5
F542.91214192200005
sg6
I0
sg7
Nsg8
I00
sg9
F542.91214773299998
sg10
(dp65
g12
I0
sg13
I0
sg14
I0
sg15
I0
sg16
I0
sg17
I0
sg18
I0
sg19
I0
sg20
I1
sg21
I0
ssg22
g23
sg24
g25
sg26
I0
sg27
I0
sg28
Nsg29
F5.810999937239103e-06
sba(iandrea.events
WeatherEvent
p66
(dp67
g4
I0
sg5
F552.91336278200004
sg6
I0
sg7
Nsg8
I00
sg9
F552.91336809799998
sg10
(dp68
g12
I0
sg13
I0
sg14
I0
sg15
I0
sg16
I0
sg17
I0
sg18
I0
sg19
I0
sg20
I1
sg21
I0
ssg22
g23
sg24
g25
sg26
I0
sg27
I0
sg28
Nsg29
F5.3159999424678972e-06
sba(iandrea.events
WeatherEvent
p69
(dp70
g4
I0
sg5
F562.914656982
sg6
I0
sg7
Nsg8
I00
sg9
F562.914663002
sg10
(dp71
g12
I0
sg13
I0
sg14
I0
sg15
I0
sg16
I0
sg17
I0
sg18
I0
sg19
I0
sg20
I1
sg21
I0
ssg22
g23
sg24
g25
sg26
I0
sg27
I0
sg28
Nsg29
F6.0200000007171184e-06
sba(iandrea.events
WeatherEvent
p72
(dp73
g4
I0
sg5
F572.91574425199997
sg6
I0
sg7
Nsg8
I00
sg9
F572.91574915900003
sg10
(dp74
g12
I0
sg13
I0
sg14
I0
sg15
I0
sg16
I0
sg17
I0
sg18
I0
sg19
I0
sg20
I1
sg21
I0
ssg22
g23
sg24
g25
sg26
I0
sg27
I0
sg28
Nsg29
F4.9070000613937736e-06
sba(iandrea.events
WeatherEvent
p75
(dp76
g4
I0
sg5
F582.91679061599996
sg6
I0
sg7
Nsg8
I00
sg9
F582.91679573800002
sg10
(dp77
g12
I0
sg13
I0
sg14
I0
sg15
I0
sg16
I0
sg17
I0
sg18
I0
sg19
I0
sg20
I1
sg21
I0
ssg22
g23
sg24
g25
sg26
I0
sg27
I0
sg28
Nsg29
F5.122000061419385e-06
sba(iandrea.events
WeatherEvent
p78
(dp79
g4
I0
sg5
F592.91887808800004
sg6
I0
sg7
Nsg8
I00
sg9
F592.91888577099996
sg10
(dp80
g12
I0
sg13
I0
sg14
I0
sg15
I0
sg16
I0
sg17
I0
sg18
I0
sg19
I0
sg20
I1
sg21
I0
ssg22
g23
sg24
g25
sg26
I0
sg27
I0
sg28
Nsg29
F7.6829999215988209e-06
sba(iandrea.events
WeatherEvent
p81
(dp82
g4
I0
sg5
F602.91904730500005
sg6
I0
sg7
Nsg8
I00
sg9
F602.91905167799996
sg10
(dp83
g12
I0
sg13
I0
sg14
I0
sg15
I0
sg16
I0
sg17
I0
sg18
I0
sg19
I0
sg20
I1
sg21
I0
ssg22
g23
sg24
g25
sg26
I0
sg27
I0
sg28
Nsg29
F4.3729999106290052e-06
sba(iandrea.events
WeatherEvent
p84
(dp85
g4
I0
sg5
F612.91920675899996
sg6
I0
sg7
Nsg8
I00
sg9
F612.91921145900005
sg10
(dp86
g12
I0
sg13
I0
sg14
I0
sg15
I0
sg16
I0
sg17
I0
sg18
I0
sg19
I0
sg20
I1
sg21
I0
ssg22
g23
sg24
g25
sg26
I0
sg27
I0
sg28
Nsg29
F4.7000000904517947e-06
sba(iandrea.events
WeatherEvent
p87
(dp88
g4
I0
sg5
F622.91965582700004
sg6
I0
sg7
Nsg8
I00
sg9
F622.91966057299999
sg10
(dp89
g12
I0
sg13
I0
sg14
I0
sg15
I0
sg16
I0
sg17
I0
sg18
I0
sg19
I0
sg20
I1
sg21
I0
ssg22
g23
sg24
g25
sg26
I0
sg27
I0
sg28
Nsg29
F4.7459999450438772e-06
sba.(lp1
(iandrea.events
WeatherEvent
p2
(dp3
S'src'
p4
I0
sS't_i'
p5
F632.92109112499998
sS'level'
p6
I0
sS'res'
p7
NsS'inv'
p8
I00
sS't_f'
p9
F632.92109627699995
sS'etc'
p10
(dp11
S'workers_idle'
p12
I0
sS'workers_busy'
p13
I0
sS'tasks_busy'
p14
I0
sS'MEMOUT'
p15
I0
sS'UNSAT'
p16
I0
sS'TIMEOUT'
p17
I0
sS'ERROR'
p18
I0
sS'tasks_done'
p19
I0
sS'tasks_idle'
p20
I1
sS'SAT'
p21
I0
ssS'gid'
p22
S'wrep'
p23
sS'eid'
p24
S'update'
p25
sS'timeout'
p26
I0
sS'max'
p27
I0
sS'tid'
p28
NsS'dur'
p29
F5.1519999715310405e-06
sba(iandrea.events
WeatherEvent
p30
(dp31
g4
I0
sg5
F642.92532629000004
sg6
I0
sg7
Nsg8
I00
sg9
F642.92533442900003
sg10
(dp32
g12
I0
sg13
I0
sg14
I0
sg15
I0
sg16
I0
sg17
I0
sg18
I0
sg19
I0
sg20
I1
sg21
I0
ssg22
g23
sg24
g25
sg26
I0
sg27
I0
sg28
Nsg29
F8.1389999877501396e-06
sba(iandrea.events
WeatherEvent
p33
(dp34
g4
I0
sg5
F652.92874398200001
sg6
I0
sg7
Nsg8
I00
sg9
F652.92875230200002
sg10
(dp35
g12
I0
sg13
I0
sg14
I0
sg15
I0
sg16
I0
sg17
I0
sg18
I0
sg19
I0
sg20
I1
sg21
I0
ssg22
g23
sg24
g25
sg26
I0
sg27
I0
sg28
Nsg29
F8.3200000062788604e-06
sba(iandrea.events
WeatherEvent
p36
(dp37
g4
I0
sg5
F662.92918643500002
sg6
I0
sg7
Nsg8
I00
sg9
F662.92919485100003
sg10
(dp38
g12
I0
sg13
I0
sg14
I0
sg15
I0
sg16
I0
sg17
I0
sg18
I0
sg19
I0
sg20
I1
sg21
I0
ssg22
g23
sg24
g25
sg26
I0
sg27
I0
sg28
Nsg29
F8.416000014221936e-06
sba(iandrea.events
WeatherEvent
p39
(dp40
g4
I0
sg5
F672.93036009000002
sg6
I0
sg7
Nsg8
I00
sg9
F672.93036484599997
sg10
(dp41
g12
I0
sg13
I0
sg14
I0
sg15
I0
sg16
I0
sg17
I0
sg18
I0
sg19
I0
sg20
I1
sg21
I0
ssg22
g23
sg24
g25
sg26
I0
sg27
I0
sg28
Nsg29
F4.7559999529767083e-06
sba(iandrea.events
WeatherEvent
p42
(dp43
g4
I0
sg5
F682.93087721699999
sg6
I0
sg7
Nsg8
I00
sg9
F682.930881828
sg10
(dp44
g12
I0
sg13
I0
sg14
I0
sg15
I0
sg16
I0
sg17
I0
sg18
I0
sg19
I0
sg20
I1
sg21
I0
ssg22
g23
sg24
g25
sg26
I0
sg27
I0
sg28
Nsg29
F4.6110000084809144e-06
sba(iandrea.events
WeatherEvent
p45
(dp46
g4
I0
sg5
F692.932887618
sg6
I0
sg7
Nsg8
I00
sg9
F692.93289584900003
sg10
(dp47
g12
I0
sg13
I0
sg14
I0
sg15
I0
sg16
I0
sg17
I0
sg18
I0
sg19
I0
sg20
I1
sg21
I0
ssg22
g23
sg24
g25
sg26
I0
sg27
I0
sg28
Nsg29
F8.2310000379948178e-06
sba(iandrea.events
WeatherEvent
p48
(dp49
g4
I0
sg5
F702.93442476799999
sg6
I0
sg7
Nsg8
I00
sg9
F702.93443203200002
sg10
(dp50
g12
I0
sg13
I0
sg14
I0
sg15
I0
sg16
I0
sg17
I0
sg18
I0
sg19
I0
sg20
I1
sg21
I0
ssg22
g23
sg24
g25
sg26
I0
sg27
I0
sg28
Nsg29
F7.2640000325918663e-06
sba(iandrea.events
WeatherEvent
p51
(dp52
g4
I0
sg5
F712.93581695499995
sg6
I0
sg7
Nsg8
I00
sg9
F712.93582169199999
sg10
(dp53
g12
I0
sg13
I0
sg14
I0
sg15
I0
sg16
I0
sg17
I0
sg18
I0
sg19
I0
sg20
I1
sg21
I0
ssg22
g23
sg24
g25
sg26
I0
sg27
I0
sg28
Nsg29
F4.7370000402224832e-06
sba(iandrea.events
WeatherEvent
p54
(dp55
g4
I0
sg5
F722.93605928900001
sg6
I0
sg7
Nsg8
I00
sg9
F722.93606486500005
sg10
(dp56
g12
I0
sg13
I0
sg14
I0
sg15
I0
sg16
I0
sg17
I0
sg18
I0
sg19
I0
sg20
I1
sg21
I0
ssg22
g23
sg24
g25
sg26
I0
sg27
I0
sg28
Nsg29
F5.5760000350346672e-06
sba(iandrea.events
WeatherEvent
p57
(dp58
g4
I0
sg5
F732.93795331000001
sg6
I0
sg7
Nsg8
I00
sg9
F732.93796092299999
sg10
(dp59
g12
I0
sg13
I0
sg14
I0
sg15
I0
sg16
I0
sg17
I0
sg18
I0
sg19
I0
sg20
I1
sg21
I0
ssg22
g23
sg24
g25
sg26
I0
sg27
I0
sg28
Nsg29
F7.6129999797558412e-06
sba(iandrea.events
WeatherEvent
p60
(dp61
g4
I0
sg5
F742.93888174400001
sg6
I0
sg7
Nsg8
I00
sg9
F742.93888760499999
sg10
(dp62
g12
I0
sg13
I0
sg14
I0
sg15
I0
sg16
I0
sg17
I0
sg18
I0
sg19
I0
sg20
I1
sg21
I0
ssg22
g23
sg24
g25
sg26
I0
sg27
I0
sg28
Nsg29
F5.8609999769032584e-06
sba(iandrea.events
WeatherEvent
p63
(dp64
g4
I0
sg5
F752.94275240499996
sg6
I0
sg7
Nsg8
I00
sg9
F752.94276166199995
sg10
(dp65
g12
I0
sg13
I0
sg14
I0
sg15
I0
sg16
I0
sg17
I0
sg18
I0
sg19
I0
sg20
I1
sg21
I0
ssg22
g23
sg24
g25
sg26
I0
sg27
I0
sg28
Nsg29
F9.2569999878833187e-06
sba(iandrea.events
WeatherEvent
p66
(dp67
g4
I0
sg5
F762.94330874000002
sg6
I0
sg7
Nsg8
I00
sg9
F762.94331393200002
sg10
(dp68
g12
I0
sg13
I0
sg14
I0
sg15
I0
sg16
I0
sg17
I0
sg18
I0
sg19
I0
sg20
I1
sg21
I0
ssg22
g23
sg24
g25
sg26
I0
sg27
I0
sg28
Nsg29
F5.1920000032623648e-06
sba(iandrea.events
WeatherEvent
p69
(dp70
g4
I0
sg5
F772.94349649100002
sg6
I0
sg7
Nsg8
I00
sg9
F772.94350130199996
sg10
(dp71
g12
I0
sg13
I0
sg14
I0
sg15
I0
sg16
I0
sg17
I0
sg18
I0
sg19
I0
sg20
I1
sg21
I0
ssg22
g23
sg24
g25
sg26
I0
sg27
I0
sg28
Nsg29
F4.8109999397638603e-06
sba(iandrea.events
WeatherEvent
p72
(dp73
g4
I0
sg5
F782.94516512300004
sg6
I0
sg7
Nsg8
I00
sg9
F782.94517389199996
sg10
(dp74
g12
I0
sg13
I0
sg14
I0
sg15
I0
sg16
I0
sg17
I0
sg18
I0
sg19
I0
sg20
I1
sg21
I0
ssg22
g23
sg24
g25
sg26
I0
sg27
I0
sg28
Nsg29
F8.7689999190843082e-06
sba(iandrea.events
WeatherEvent
p75
(dp76
g4
I0
sg5
F792.94644370900005
sg6
I0
sg7
Nsg8
I00
sg9
F792.94645131499999
sg10
(dp77
g12
I0
sg13
I0
sg14
I0
sg15
I0
sg16
I0
sg17
I0
sg18
I0
sg19
I0
sg20
I1
sg21
I0
ssg22
g23
sg24
g25
sg26
I0
sg27
I0
sg28
Nsg29
F7.6059999400968081e-06
sba(iandrea.events
WeatherEvent
p78
(dp79
g4
I0
sg5
F802.94713189100003
sg6
I0
sg7
Nsg8
I00
sg9
F802.94713652099995
sg10
(dp80
g12
I0
sg13
I0
sg14
I0
sg15
I0
sg16
I0
sg17
I0
sg18
I0
sg19
I0
sg20
I1
sg21
I0
ssg22
g23
sg24
g25
sg26
I0
sg27
I0
sg28
Nsg29
F4.6299999212351395e-06
sba(iandrea.events
WeatherEvent
p81
(dp82
g4
I0
sg5
F812.94782196599999
sg6
I0
sg7
Nsg8
I00
sg9
F812.94782964000001
sg10
(dp83
g12
I0
sg13
I0
sg14
I0
sg15
I0
sg16
I0
sg17
I0
sg18
I0
sg19
I0
sg20
I1
sg21
I0
ssg22
g23
sg24
g25
sg26
I0
sg27
I0
sg28
Nsg29
F7.6740000167774269e-06
sba(iandrea.events
WeatherEvent
p84
(dp85
g4
I0
sg5
F822.949722114
sg6
I0
sg7
Nsg8
I00
sg9
F822.94972947300005
sg10
(dp86
g12
I0
sg13
I0
sg14
I0
sg15
I0
sg16
I0
sg17
I0
sg18
I0
sg19
I0
sg20
I1
sg21
I0
ssg22
g23
sg24
g25
sg26
I0
sg27
I0
sg28
Nsg29
F7.3590000511103426e-06
sba(iandrea.events
WeatherEvent
p87
(dp88
g4
I0
sg5
F832.95163063300004
sg6
I0
sg7
Nsg8
I00
sg9
F832.95163581500003
sg10
(dp89
g12
I0
sg13
I0
sg14
I0
sg15
I0
sg16
I0
sg17
I0
sg18
I0
sg19
I0
sg20
I1
sg21
I0
ssg22
g23
sg24
g25
sg26
I0
sg27
I0
sg28
Nsg29
F5.1819999953295337e-06
sba.(lp1
(iandrea.events
WeatherEvent
p2
(dp3
S'src'
p4
I0
sS't_i'
p5
F842.95315255599996
sS'level'
p6
I0
sS'res'
p7
NsS'inv'
p8
I00
sS't_f'
p9
F842.953160389
sS'etc'
p10
(dp11
S'workers_idle'
p12
I0
sS'workers_busy'
p13
I0
sS'tasks_busy'
p14
I0
sS'MEMOUT'
p15
I0
sS'UNSAT'
p16
I0
sS'TIMEOUT'
p17
I0
sS'ERROR'
p18
I0
sS'tasks_done'
p19
I0
sS'tasks_idle'
p20
I1
sS'SAT'
p21
I0
ssS'gid'
p22
S'wrep'
p23
sS'eid'
p24
S'update'
p25
sS'timeout'
p26
I0
sS'max'
p27
I0
sS'tid'
p28
NsS'dur'
p29
F7.833000040591287e-06
sba(iandrea.events
WeatherEvent
p30
(dp31
g4
I0
sg5
F852.95448900500003
sg6
I0
sg7
Nsg8
I00
sg9
F852.954496963
sg10
(dp32
g12
I0
sg13
I0
sg14
I0
sg15
I0
sg16
I0
sg17
I0
sg18
I0
sg19
I0
sg20
I1
sg21
I0
ssg22
g23
sg24
g25
sg26
I0
sg27
I0
sg28
Nsg29
F7.9579999692214187e-06
sba(iandrea.events
WeatherEvent
p33
(dp34
g4
I0
sg5
F862.95484661099999
sg6
I0
sg7
Nsg8
I00
sg9
F862.95485423699995
sg10
(dp35
g12
I0
sg13
I0
sg14
I0
sg15
I0
sg16
I0
sg17
I0
sg18
I0
sg19
I0
sg20
I1
sg21
I0
ssg22
g23
sg24
g25
sg26
I0
sg27
I0
sg28
Nsg29
F7.6259999559624703e-06
sba(iandrea.events
WeatherEvent
p36
(dp37
g4
I0
sg5
F872.95522436900001
sg6
I0
sg7
Nsg8
I00
sg9
F872.95523376400001
sg10
(dp38
g12
I0
sg13
I0
sg14
I0
sg15
I0
sg16
I0
sg17
I0
sg18
I0
sg19
I0
sg20
I1
sg21
I0
ssg22
g23
sg24
g25
sg26
I0
sg27
I0
sg28
Nsg29
F9.3950000064069172e-06
sba(iandrea.events
WeatherEvent
p39
(dp40
g4
I0
sg5
F882.95574306000003
sg6
I0
sg7
Nsg8
I00
sg9
F882.95575110100003
sg10
(dp41
g12
I0
sg13
I0
sg14
I0
sg15
I0
sg16
I0
sg17
I0
sg18
I0
sg19
I0
sg20
I1
sg21
I0
ssg22
g23
sg24
g25
sg26
I0
sg27
I0
sg28
Nsg29
F8.0410000009578653e-06
sba(iandrea.events
WeatherEvent
p42
(dp43
g4
I0
sg5
F892.95723410100004
sg6
I0
sg7
Nsg8
I00
sg9
F892.957241415
sg10
(dp44
g12
I0
sg13
I0
sg14
I0
sg15
I0
sg16
I0
sg17
I0
sg18
I0
sg19
I0
sg20
I1
sg21
I0
ssg22
g23
sg24
g25
sg26
I0
sg27
I0
sg28
Nsg29
F7.3139999585691839e-06
sba(iandrea.events
WeatherEvent
p45
(dp46
g4
I0
sg5
F902.95761429100003
sg6
I0
sg7
Nsg8
I00
sg9
F902.95762146799996
sg10
(dp47
g12
I0
sg13
I0
sg14
I0
sg15
I0
sg16
I0
sg17
I0
sg18
I0
sg19
I0
sg20
I1
sg21
I0
ssg22
g23
sg24
g25
sg26
I0
sg27
I0
sg28
Nsg29
F7.1769999294701847e-06
sba(iandrea.events
WeatherEvent
p48
(dp49
g4
I0
sg5
F912.959779819
sg6
I0
sg7
Nsg8
I00
sg9
F912.959789505
sg10
(dp50
g12
I0
sg13
I0
sg14
I0
sg15
I0
sg16
I0
sg17
I0
sg18
I0
sg19
I0
sg20
I1
sg21
I0
ssg22
g23
sg24
g25
sg26
I0
sg27
I0
sg28
Nsg29
F9.6859999985099421e-06
sba(iandrea.events
WeatherEvent
p51
(dp52
g4
I0
sg5
F922.96033229399995
sg6
I0
sg7
Nsg8
I00
sg9
F922.960338095
sg10
(dp53
g12
I0
sg13
I0
sg14
I0
sg15
I0
sg16
I0
sg17
I0
sg18
I0
sg19
I0
sg20
I1
sg21
I0
ssg22
g23
sg24
g25
sg26
I0
sg27
I0
sg28
Nsg29
F5.8010000429931097e-06
sba(iandrea.events
WeatherEvent
p54
(dp55
g4
I0
sg5
F932.96228728899996
sg6
I0
sg7
Nsg8
I00
sg9
F932.96229548700001
sg10
(dp56
g12
I0
sg13
I0
sg14
I0
sg15
I0
sg16
I0
sg17
I0
sg18
I0
sg19
I0
sg20
I1
sg21
I0
ssg22
g23
sg24
g25
sg26
I0
sg27
I0
sg28
Nsg29
F8.1980000459225266e-06
sba(iandrea.events
WeatherEvent
p57
(dp58
g4
I0
sg5
F942.96363734199997
sg6
I0
sg7
Nsg8
I00
sg9
F942.96364629699997
sg10
(dp59
g12
I0
sg13
I0
sg14
I0
sg15
I0
sg16
I0
sg17
I0
sg18
I0
sg19
I0
sg20
I1
sg21
I0
ssg22
g23
sg24
g25
sg26
I0
sg27
I0
sg28
Nsg29
F8.9549999984228634e-06
sba(iandrea.events
WeatherEvent
p60
(dp61
g4
I0
sg5
F952.96554708300005
sg6
I0
sg7
Nsg8
I00
sg9
F952.96555906599997
sg10
(dp62
g12
I0
sg13
I0
sg14
I0
sg15
I0
sg16
I0
sg17
I0
sg18
I0
sg19
I0
sg20
I1
sg21
I0
ssg22
g23
sg24
g25
sg26
I0
sg27
I0
sg28
Nsg29
F1.1982999922111048e-05
sba(iandrea.events
WeatherEvent
p63
(dp64
g4
I0
sg5
F962.96582654600002
sg6
I0
sg7
Nsg8
I00
sg9
F962.96583267999995
sg10
(dp65
g12
I0
sg13
I0
sg14
I0
sg15
I0
sg16
I0
sg17
I0
sg18
I0
sg19
I0
sg20
I1
sg21
I0
ssg22
g23
sg24
g25
sg26
I0
sg27
I0
sg28
Nsg29
F6.1339999319898197e-06
sba(iandrea.events
WeatherEvent
p66
(dp67
g4
I0
sg5
F972.96683633400005
sg6
I0
sg7
Nsg8
I00
sg9
F972.96684255499997
sg10
(dp68
g12
I0
sg13
I0
sg14
I0
sg15
I0
sg16
I0
sg17
I0
sg18
I0
sg19
I0
sg20
I1
sg21
I0
ssg22
g23
sg24
g25
sg26
I0
sg27
I0
sg28
Nsg29
F6.2209999214246636e-06
sba(iandrea.events
WeatherEvent
p69
(dp70
g4
I0
sg5
F982.96847752300005
sg6
I0
sg7
Nsg8
I00
sg9
F982.96848237400002
sg10
(dp71
g12
I0
sg13
I0
sg14
I0
sg15
I0
sg16
I0
sg17
I0
sg18
I0
sg19
I0
sg20
I1
sg21
I0
ssg22
g23
sg24
g25
sg26
I0
sg27
I0
sg28
Nsg29
F4.8509999714951846e-06
sba(iandrea.events
WeatherEvent
p72
(dp73
g4
I0
sg5
F992.96987425600003
sg6
I0
sg7
Nsg8
I00
sg9
F992.97926937499994
sg10
(dp74
g12
I0
sg13
I0
sg14
I0
sg15
I0
sg16
I0
sg17
I0
sg18
I0
sg19
I0
sg20
I1
sg21
I0
ssg22
g23
sg24
g25
sg26
I0
sg27
I0
sg28
Nsg29
F0.00939511899991885
sba(iandrea.events
WeatherEvent
p75
(dp76
g4
I0
sg5
F1002.970683165
sg6
I0
sg7
Nsg8
I00
sg9
F1002.970688674
sg10
(dp77
g12
I0
sg13
I0
sg14
I0
sg15
I0
sg16
I0
sg17
I0
sg18
I0
sg19
I0
sg20
I1
sg21
I0
ssg22
g23
sg24
g25
sg26
I0
sg27
I0
sg28
Nsg29
F5.5090000614654855e-06
sba(iandrea.events
WeatherEvent
p78
(dp79
g4
I0
sg5
F1012.972478152
sg6
I0
sg7
Nsg8
I00
sg9
F1012.9724833510001
sg10
(dp80
g12
I0
sg13
I0
sg14
I0
sg15
I0
sg16
I0
sg17
I0
sg18
I0
sg19
I0
sg20
I1
sg21
I0
ssg22
g23
sg24
g25
sg26
I0
sg27
I0
sg28
Nsg29
F5.1990000429213978e-06
sba(iandrea.events
WeatherEvent
p81
(dp82
g4
I0
sg5
F1022.973472905
sg6
I0
sg7
Nsg8
I00
sg9
F1022.973478364
sg10
(dp83
g12
I0
sg13
I0
sg14
I0
sg15
I0
sg16
I0
sg17
I0
sg18
I0
sg19
I0
sg20
I1
sg21
I0
ssg22
g23
sg24
g25
sg26
I0
sg27
I0
sg28
Nsg29
F5.4590000218013301e-06
sba(iandrea.events
WeatherEvent
p84
(dp85
g4
I0
sg5
F1032.973641845
sg6
I0
sg7
Nsg8
I00
sg9
F1032.973646913
sg10
(dp86
g12
I0
sg13
I0
sg14
I0
sg15
I0
sg16
I0
sg17
I0
sg18
I0
sg19
I0
sg20
I1
sg21
I0
ssg22
g23
sg24
g25
sg26
I0
sg27
I0
sg28
Nsg29
F5.0680000640568323e-06
sba(iandrea.events
WeatherEvent
p87
(dp88
g4
I0
sg5
F1042.974921535
sg6
I0
sg7
Nsg8
I00
sg9
F1042.974929663
sg10
(dp89
g12
I0
sg13
I0
sg14
I0
sg15
I0
sg16
I0
sg17
I0
sg18
I0
sg19
I0
sg20
I1
sg21
I0
ssg22
g23
sg24
g25
sg26
I0
sg27
I0
sg28
Nsg29
F8.1279999903927092e-06
sba.(lp1
(iandrea.events
WeatherEvent
p2
(dp3
S'src'
p4
I0
sS't_i'
p5
F1052.9755349479999
sS'level'
p6
I0
sS'res'
p7
NsS'inv'
p8
I00
sS't_f'
p9
F1052.975539927
sS'etc'
p10
(dp11
S'workers_idle'
p12
I0
sS'workers_busy'
p13
I0
sS'tasks_busy'
p14
I0
sS'MEMOUT'
p15
I0
sS'UNSAT'
p16
I0
sS'TIMEOUT'
p17
I0
sS'ERROR'
p18
I0
sS'tasks_done'
p19
I0
sS'tasks_idle'
p20
I1
sS'SAT'
p21
I0
ssS'gid'
p22
S'wrep'
p23
sS'eid'
p24
S'update'
p25
sS'timeout'
p26
I0
sS'max'
p27
I0
sS'tid'
p28
NsS'dur'
p29
F4.9790000957727898e-06
sba(iandrea.events
WeatherEvent
p30
(dp31
g4
I0
sg5
F1062.976188457
sg6
I0
sg7
Nsg8
I00
sg9
F1062.9761932409999
sg10
(dp32
g12
I0
sg13
I0
sg14
I0
sg15
I0
sg16
I0
sg17
I0
sg18
I0
sg19
I0
sg20
I1
sg21
I0
ssg22
g23
sg24
g25
sg26
I0
sg27
I0
sg28
Nsg29
F4.7839998842391651e-06
sba(iandrea.events
WeatherEvent
p33
(dp34
g4
I0
sg5
F1072.9775582909999
sg6
I0
sg7
Nsg8
I00
sg9
F1072.977564779
sg10
(dp35
g12
I0
sg13
I0
sg14
I0
sg15
I0
sg16
I0
sg17
I0
sg18
I0
sg19
I0
sg20
I1
sg21
I0
ssg22
g23
sg24
g25
sg26
I0
sg27
I0
sg28
Nsg29
F6.4880000536504667e-06
sba(iandrea.events
WeatherEvent
p36
(dp37
g4
I0
sg5
F1082.980893125
sg6
I0
sg7
Nsg8
I00
sg9
F1082.9809099399999
sg10
(dp38
g12
I0
sg13
I0
sg14
I0
sg15
I0
sg16
I0
sg17
I0
sg18
I0
sg19
I0
sg20
I1
sg21
I0
ssg22
g23
sg24
g25
sg26
I0
sg27
I0
sg28
Nsg29
F1.6814999980852008e-05
sba(iandrea.events
WeatherEvent
p39
(dp40
g4
I0
sg5
F1092.9843730810001
sg6
I0
sg7
Nsg8
I00
sg9
F1092.9843861700001
sg10
(dp41
g12
I0
sg13
I0
sg14
I0
sg15
I0
sg16
I0
sg17
I0
sg18
I0
sg19
I0
sg20
I1
sg21
I0
ssg22
g23
sg24
g25
sg26
I0
sg27
I0
sg28
Nsg29
F1.3089000049149035e-05
sba(iandrea.events
WeatherEvent
p42
(dp43
g4
I0
sg5
F1102.985828222
sg6
I0
sg7
Nsg8
I00
sg9
F1102.9858380559999
sg10
(dp44
g12
I0
sg13
I0
sg14
I0
sg15
I0
sg16
I0
sg17
I0
sg18
I0
sg19
I0
sg20
I1
sg21
I0
ssg22
g23
sg24
g25
sg26
I0
sg27
I0
sg28
Nsg29
F9.833999911279534e-06
sba(iandrea.events
WeatherEvent
p45
(dp46
g4
I0
sg5
F1112.983533012
sg6
I0
sg7
Nsg8
I00
sg9
F1112.9844206570001
sg10
(dp47
g12
I0
sg13
I0
sg14
I0
sg15
I0
sg16
I0
sg17
I0
sg18
I0
sg19
I0
sg20
I1
sg21
I0
ssg22
g23
sg24
g25
sg26
I0
sg27
I0
sg28
Nsg29
F0.00088764500014804071
sba(iandrea.events
WeatherEvent
p48
(dp49
g4
I0
sg5
F1122.9848846939999
sg6
I0
sg7
Nsg8
I00
sg9
F1122.984892809
sg10
(dp50
g12
I0
sg13
I0
sg14
I0
sg15
I0
sg16
I0
sg17
I0
sg18
I0
sg19
I0
sg20
I1
sg21
I0
ssg22
g23
sg24
g25
sg26
I0
sg27
I0
sg28
Nsg29
F8.1150001278729178e-06
sba(iandrea.events
WeatherEvent
p51
(dp52
g4
I0
sg5
F1132.986783044
sg6
I0
sg7
Nsg8
I00
sg9
F1132.986792468
sg10
(dp53
g12
I0
sg13
I0
sg14
I0
sg15
I0
sg16
I0
sg17
I0
sg18
I0
sg19
I0
sg20
I1
sg21
I0
ssg22
g23
sg24
g25
sg26
I0
sg27
I0
sg28
Nsg29
F9.4239999270939734e-06
sba(iandrea.events
WeatherEvent
p54
(dp55
g4
I0
sg5
F1142.9878057190001
sg6
I0
sg7
Nsg8
I00
sg9
F1142.987822065
sg10
(dp56
g12
I0
sg13
I0
sg14
I0
sg15
I0
sg16
I0
sg17
I0
sg18
I0
sg19
I0
sg20
I1
sg21
I0
ssg22
g23
sg24
g25
sg26
I0
sg27
I0
sg28
Nsg29
F1.634599993849406e-05
sba(iandrea.events
WeatherEvent
p57
(dp58
g4
I0
sg5
F1152.9898998609999
sg6
I0
sg7
Nsg8
I00
sg9
F1152.9899080749999
sg10
(dp59
g12
I0
sg13
I0
sg14
I0
sg15
I0
sg16
I0
sg17
I0
sg18
I0
sg19
I0
sg20
I1
sg21
I0
ssg22
g23
sg24
g25
sg26
I0
sg27
I0
sg28
Nsg29
F8.2139999904029537e-06
sba(iandrea.events
WeatherEvent
p60
(dp61
g4
I0
sg5
F1162.9914573220001
sg6
I0
sg7
Nsg8
I00
sg9
F1162.9914669289999
sg10
(dp62
g12
I0
sg13
I0
sg14
I0
sg15
I0
sg16
I0
sg17
I0
sg18
I0
sg19
I0
sg20
I1
sg21
I0
ssg22
g23
sg24
g25
sg26
I0
sg27
I0
sg28
Nsg29
F9.6069998107850552e-06
sba(iandrea.events
WeatherEvent
p63
(dp64
g4
I0
sg5
F1172.993167907
sg6
I0
sg7
Nsg8
I00
sg9
F1172.993176127
sg10
(dp65
g12
I0
sg13
I0
sg14
I0
sg15
I0
sg16
I0
sg17
I0
sg18
I0
sg19
I0
sg20
I1
sg21
I0
ssg22
g23
sg24
g25
sg26
I0
sg27
I0
sg28
Nsg29
F8.2199999269505497e-06
sba(iandrea.events
WeatherEvent
p66
(dp67
g4
I0
sg5
F1182.9942148729999
sg6
I0
sg7
Nsg8
I00
sg9
F1182.9942238470001
sg10
(dp68
g12
I0
sg13
I0
sg14
I0
sg15
I0
sg16
I0
sg17
I0
sg18
I0
sg19
I0
sg20
I1
sg21
I0
ssg22
g23
sg24
g25
sg26
I0
sg27
I0
sg28
Nsg29
F8.9740001385507639e-06
sba(iandrea.events
WeatherEvent
p69
(dp70
g4
I0
sg5
F1192.9967778759999
sg6
I0
sg7
Nsg8
I00
sg9
F1192.9967853620001
sg10
(dp71
g12
I0
sg13
I0
sg14
I0
sg15
I0
sg16
I0
sg17
I0
sg18
I0
sg19
I0
sg20
I1
sg21
I0
ssg22
g23
sg24
g25
sg26
I0
sg27
I0
sg28
Nsg29
F7.4860001859633485e-06
sba(iandrea.events
WeatherEvent
p72
(dp73
g4
I0
sg5
F1202.996935935
sg6
I0
sg7
Nsg8
I00
sg9
F1203.005650885
sg10
(dp74
g12
I0
sg13
I0
sg14
I0
sg15
I0
sg16
I0
sg17
I0
sg18
I0
sg19
I0
sg20
I1
sg21
I0
ssg22
g23
sg24
g25
sg26
I0
sg27
I0
sg28
Nsg29
F0.0087149500000123226
sba(iandrea.events
WeatherEvent
p75
(dp76
g4
I0
sg5
F1212.9980375759999
sg6
I0
sg7
Nsg8
I00
sg9
F1212.9980450529999
sg10
(dp77
g12
I0
sg13
I0
sg14
I0
sg15
I0
sg16
I0
sg17
I0
sg18
I0
sg19
I0
sg20
I1
sg21
I0
ssg22
g23
sg24
g25
sg26
I0
sg27
I0
sg28
Nsg29
F7.477000053768279e-06
sba(iandrea.events
WeatherEvent
p78
(dp79
g4
I0
sg5
F1222.9980935579999
sg6
I0
sg7
Nsg8
I00
sg9
F1222.998103247
sg10
(dp80
g12
I0
sg13
I0
sg14
I0
sg15
I0
sg16
I0
sg17
I0
sg18
I0
sg19
I0
sg20
I1
sg21
I0
ssg22
g23
sg24
g25
sg26
I0
sg27
I0
sg28
Nsg29
F9.6890000804705778e-06
sba(iandrea.events
WeatherEvent
p81
(dp82
g4
I0
sg5
F1233.0017709839999
sg6
I0
sg7
Nsg8
I00
sg9
F1233.001783528
sg10
(dp83
g12
I0
sg13
I0
sg14
I0
sg15
I0
sg16
I0
sg17
I0
sg18
I0
sg19
I0
sg20
I1
sg21
I0
ssg22
g23
sg24
g25
sg26
I0
sg27
I0
sg28
Nsg29
F1.2544000128400512e-05
sba(iandrea.events
WeatherEvent
p84
(dp85
g4
I0
sg5
F1243.0027895349999
sg6
I0
sg7
Nsg8
I00
sg9
F1243.00280236
sg10
(dp86
g12
I0
sg13
I0
sg14
I0
sg15
I0
sg16
I0
sg17
I0
sg18
I0
sg19
I0
sg20
I1
sg21
I0
ssg22
g23
sg24
g25
sg26
I0
sg27
I0
sg28
Nsg29
F1.2825000112570706e-05
sba(iandrea.events
WeatherEvent
p87
(dp88
g4
I0
sg5
F1253.006960469
sg6
I0
sg7
Nsg8
I00
sg9
F1253.006972094
sg10
(dp89
g12
I0
sg13
I0
sg14
I0
sg15
I0
sg16
I0
sg17
I0
sg18
I0
sg19
I0
sg20
I1
sg21
I0
ssg22
g23
sg24
g25
sg26
I0
sg27
I0
sg28
Nsg29
F1.1625000070125679e-05
sba.(lp1
(iandrea.events
WeatherEvent
p2
(dp3
S'src'
p4
I0
sS't_i'
p5
F1263.0087480489999
sS'level'
p6
I0
sS'res'
p7
NsS'inv'
p8
I00
sS't_f'
p9
F1263.008755711
sS'etc'
p10
(dp11
S'workers_idle'
p12
I0
sS'workers_busy'
p13
I0
sS'tasks_busy'
p14
I0
sS'MEMOUT'
p15
I0
sS'UNSAT'
p16
I0
sS'TIMEOUT'
p17
I0
sS'ERROR'
p18
I0
sS'tasks_done'
p19
I0
sS'tasks_idle'
p20
I1
sS'SAT'
p21
I0
ssS'gid'
p22
S'wrep'
p23
sS'eid'
p24
S'update'
p25
sS'timeout'
p26
I0
sS'max'
p27
I0
sS'tid'
p28
NsS'dur'
p29
F7.6620001436822349e-06
sba(iandrea.events
WeatherEvent
p30
(dp31
g4
I0
sg5
F1273.009728089
sg6
I0
sg7
Nsg8
I00
sg9
F1273.009736214
sg10
(dp32
g12
I0
sg13
I0
sg14
I0
sg15
I0
sg16
I0
sg17
I0
sg18
I0
sg19
I0
sg20
I1
sg21
I0
ssg22
g23
sg24
g25
sg26
I0
sg27
I0
sg28
Nsg29
F8.1250000221189111e-06
sba(iandrea.events
WeatherEvent
p33
(dp34
g4
I0
sg5
F1283.010376491
sg6
I0
sg7
Nsg8
I00
sg9
F1283.0103838069999
sg10
(dp35
g12
I0
sg13
I0
sg14
I0
sg15
I0
sg16
I0
sg17
I0
sg18
I0
sg19
I0
sg20
I1
sg21
I0
ssg22
g23
sg24
g25
sg26
I0
sg27
I0
sg28
Nsg29
F7.3159999374183826e-06
sba(iandrea.events
WeatherEvent
p36
(dp37
g4
I0
sg5
F1293.011538538
sg6
I0
sg7
Nsg8
I00
sg9
F1293.0115472299999
sg10
(dp38
g12
I0
sg13
I0
sg14
I0
sg15
I0
sg16
I0
sg17
I0
sg18
I0
sg19
I0
sg20
I1
sg21
I0
ssg22
g23
sg24
g25
sg26
I0
sg27
I0
sg28
Nsg29
F8.6919999375822954e-06
sba(iandrea.events
WeatherEvent
p39
(dp40
g4
I0
sg5
F1303.0129914229999
sg6
I0
sg7
Nsg8
I00
sg9
F1303.0129963740001
sg10
(dp41
g12
I0
sg13
I0
sg14
I0
sg15
I0
sg16
I0
sg17
I0
sg18
I0
sg19
I0
sg20
I1
sg21
I0
ssg22
g23
sg24
g25
sg26
I0
sg27
I0
sg28
Nsg29
F4.951000164510333e-06
sba(iandrea.events
WeatherEvent
p42
(dp43
g4
I0
sg5
F1313.0134539749999
sg6
I0
sg7
Nsg8
I00
sg9
F1313.0134592439999
sg10
(dp44
g12
I0
sg13
I0
sg14
I0
sg15
I0
sg16
I0
sg17
I0
sg18
I0
sg19
I0
sg20
I1
sg21
I0
ssg22
g23
sg24
g25
sg26
I0
sg27
I0
sg28
Nsg29
F5.2689999847643776e-06
sba(iandrea.events
WeatherEvent
p45
(dp46
g4
I0
sg5
F1323.014528167
sg6
I0
sg7
Nsg8
I00
sg9
F1323.0145369480001
sg10
(dp47
g12
I0
sg13
I0
sg14
I0
sg15
I0
sg16
I0
sg17
I0
sg18
I0
sg19
I0
sg20
I1
sg21
I0
ssg22
g23
sg24
g25
sg26
I0
sg27
I0
sg28
Nsg29
F8.7810001332400134e-06
sba(iandrea.events
WeatherEvent
p48
(dp49
g4
I0
sg5
F1333.015397743
sg6
I0
sg7
Nsg8
I00
sg9
F1333.015405397
sg10
(dp50
g12
I0
sg13
I0
sg14
I0
sg15
I0
sg16
I0
sg17
I0
sg18
I0
sg19
I0
sg20
I1
sg21
I0
ssg22
g23
sg24
g25
sg26
I0
sg27
I0
sg28
Nsg29
F7.6540000009117648e-06
sba(iandrea.events
WeatherEvent
p51
(dp52
g4
I0
sg5
F1343.0173365769999
sg6
I0
sg7
Nsg8
I00
sg9
F1343.017343902
sg10
(dp53
g12
I0
sg13
I0
sg14
I0
sg15
I0
sg16
I0
sg17
I0
sg18
I0
sg19
I0
sg20
I1
sg21
I0
ssg22
g23
sg24
g25
sg26
I0
sg27
I0
sg28
Nsg29
F7.3250000696134521e-06
sba(iandrea.events
WeatherEvent
p54
(dp55
g4
I0
sg5
F1353.018056935
sg6
I0
sg7
Nsg8
I00
sg9
F1353.0180623470001
sg10
(dp56
g12
I0
sg13
I0
sg14
I0
sg15
I0
sg16
I0
sg17
I0
sg18
I0
sg19
I0
sg20
I1
sg21
I0
ssg22
g23
sg24
g25
sg26
I0
sg27
I0
sg28
Nsg29
F5.4120000640978105e-06
sba(iandrea.events
WeatherEvent
p57
(dp58
g4
I0
sg5
F1363.019927867
sg6
I0
sg7
Nsg8
I00
sg9
F1363.0199378530001
sg10
(dp59
g12
I0
sg13
I0
sg14
I0
sg15
I0
sg16
I0
sg17
I0
sg18
I0
sg19
I0
sg20
I1
sg21
I0
ssg22
g23
sg24
g25
sg26
I0
sg27
I0
sg28
Nsg29
F9.9860001228080364e-06
sba(iandrea.events
WeatherEvent
p60
(dp61
g4
I0
sg5
F1373.020249958
sg6
I0
sg7
Nsg8
I00
sg9
F1373.020255159
sg10
(dp62
g12
I0
sg13
I0
sg14
I0
sg15
I0
sg16
I0
sg17
I0
sg18
I0
sg19
I0
sg20
I1
sg21
I0
ssg22
g23
sg24
g25
sg26
I0
sg27
I0
sg28
Nsg29
F5.2010000217705965e-06
sba(iandrea.events
WeatherEvent
p63
(dp64
g4
I0
sg5
F1383.0245542939999
sg6
I0
sg7
Nsg8
I00
sg9
F1383.0245690019999
sg10
(dp65
g12
I0
sg13
I0
sg14
I0
sg15
I0
sg16
I0
sg17
I0
sg18
I0
sg19
I0
sg20
I1
sg21
I0
ssg22
g23
sg24
g25
sg26
I0
sg27
I0
sg28
Nsg29
F1.4707999980601016e-05
sba(iandrea.events
WeatherEvent
p66
(dp67
g4
I0
sg5
F1393.024859117
sg6
I0
sg7
Nsg8
I00
sg9
F1393.0248751429999
sg10
(dp68
g12
I0
sg13
I0
sg14
I0
sg15
I0
sg16
I0
sg17
I0
sg18
I0
sg19
I0
sg20
I1
sg21
I0
ssg22
g23
sg24
g25
sg26
I0
sg27
I0
sg28
Nsg29
F1.6025999912017141e-05
sba(iandrea.events
WeatherEvent
p69
(dp70
g4
I0
sg5
F1403.0258719789999
sg6
I0
sg7
Nsg8
I00
sg9
F1403.026011103
sg10
(dp71
g12
I0
sg13
I0
sg14
I0
sg15
I0
sg16
I0
sg17
I0
sg18
I0
sg19
I0
sg20
I1
sg21
I0
ssg22
g23
sg24
g25
sg26
I0
sg27
I0
sg28
Nsg29
F0.00013912400004301162
sba(iandrea.events
WeatherEvent
p72
(dp73
g4
I0
sg5
F1413.025576813
sg6
I0
sg7
Nsg8
I00
sg9
F1413.025587112
sg10
(dp74
g12
I0
sg13
I0
sg14
I0
sg15
I0
sg16
I0
sg17
I0
sg18
I0
sg19
I0
sg20
I1
sg21
I0
ssg22
g23
sg24
g25
sg26
I0
sg27
I0
sg28
Nsg29
F1.0298999995939084e-05
sba(iandrea.events
WeatherEvent
p75
(dp76
g4
I0
sg5
F1423.0278086979999
sg6
I0
sg7
Nsg8
I00
sg9
F1423.0278209559999
sg10
(dp77
g12
I0
sg13
I0
sg14
I0
sg15
I0
sg16
I0
sg17
I0
sg18
I0
sg19
I0
sg20
I1
sg21
I0
ssg22
g23
sg24
g25
sg26
I0
sg27
I0
sg28
Nsg29
F1.2257999969733646e-05
sba(iandrea.events
WeatherEvent
p78
(dp79
g4
I0
sg5
F1433.029183891
sg6
I0
sg7
Nsg8
I00
sg9
F1433.029196384
sg10
(dp80
g12
I0
sg13
I0
sg14
I0
sg15
I0
sg16
I0
sg17
I0
sg18
I0
sg19
I0
sg20
I1
sg21
I0
ssg22
g23
sg24
g25
sg26
I0
sg27
I0
sg28
Nsg29
F1.249299998562492e-05
sba(iandrea.events
WeatherEvent
p81
(dp82
g4
I0
sg5
F1443.0297538110001
sg6
I0
sg7
Nsg8
I00
sg9
F1443.030678951
sg10
(dp83
g12
I0
sg13
I0
sg14
I0
sg15
I0
sg16
I0
sg17
I0
sg18
I0
sg19
I0
sg20
I1
sg21
I0
ssg22
g23
sg24
g25
sg26
I0
sg27
I0
sg28
Nsg29
F0.00092513999993570906
sba(iandrea.events
WeatherEvent
p84
(dp85
g4
I0
sg5
F1453.0301409419999
sg6
I0
sg7
Nsg8
I00
sg9
F1453.0301483149999
sg10
(dp86
g12
I0
sg13
I0
sg14
I0
sg15
I0
sg16
I0
sg17
I0
sg18
I0
sg19
I0
sg20
I1
sg21
I0
ssg22
g23
sg24
g25
sg26
I0
sg27
I0
sg28
Nsg29
F7.373000016741571e-06
sba(iandrea.events
WeatherEvent
p87
(dp88
g4
I0
sg5
F1463.03373119
sg6
I0
sg7
Nsg8
I00
sg9
F1463.033738671
sg10
(dp89
g12
I0
sg13
I0
sg14
I0
sg15
I0
sg16
I0
sg17
I0
sg18
I0
sg19
I0
sg20
I1
sg21
I0
ssg22
g23
sg24
g25
sg26
I0
sg27
I0
sg28
Nsg29
F7.4810000114666764e-06
sba.(lp1
(iandrea.events
WeatherEvent
p2
(dp3
S'src'
p4
I0
sS't_i'
p5
F1473.035666299
sS'level'
p6
I0
sS'res'
p7
NsS'inv'
p8
I00
sS't_f'
p9
F1473.0356744630001
sS'etc'
p10
(dp11
S'workers_idle'
p12
I0
sS'workers_busy'
p13
I0
sS'tasks_busy'
p14
I0
sS'MEMOUT'
p15
I0
sS'UNSAT'
p16
I0
sS'TIMEOUT'
p17
I0
sS'ERROR'
p18
I0
sS'tasks_done'
p19
I0
sS'tasks_idle'
p20
I1
sS'SAT'
p21
I0
ssS'gid'
p22
S'wrep'
p23
sS'eid'
p24
S'update'
p25
sS'timeout'
p26
I0
sS'max'
p27
I0
sS'tid'
p28
NsS'dur'
p29
F8.1640000644256361e-06
sba(iandrea.events
WeatherEvent
p30
(dp31
g4
I0
sg5
F1483.0368951810001
sg6
I0
sg7
Nsg8
I00
sg9
F1483.0369031610001
sg10
(dp32
g12
I0
sg13
I0
sg14
I0
sg15
I0
sg16
I0
sg17
I0
sg18
I0
sg19
I0
sg20
I1
sg21
I0
ssg22
g23
sg24
g25
sg26
I0
sg27
I0
sg28
Nsg29
F7.9799999639362795e-06
sba(iandrea.events
WeatherEvent
p33
(dp34
g4
I0
sg5
F1493.0417453079999
sg6
I0
sg7
Nsg8
I00
sg9
F1493.0417535669999
sg10
(dp35
g12
I0
sg13
I0
sg14
I0
sg15
I0
sg16
I0
sg17
I0
sg18
I0
sg19
I0
sg20
I1
sg21
I0
ssg22
g23
sg24
g25
sg26
I0
sg27
I0
sg28
Nsg29
F8.2589999692572746e-06
sba(iandrea.events
WeatherEvent
p36
(dp37
g4
I0
sg5
F1503.043417675
sg6
I0
sg7
Nsg8
I00
sg9
F1503.0434273830001
sg10
(dp38
g12
I0
sg13
I0
sg14
I0
sg15
I0
sg16
I0
sg17
I0
sg18
I0
sg19
I0
sg20
I1
sg21
I0
ssg22
g23
sg24
g25
sg26
I0
sg27
I0
sg28
Nsg29
F9.7080001069116406e-06
sba(iandrea.events
WeatherEvent
p39
(dp40
g4
I0
sg5
F1513.0447636470001
sg6
I0
sg7
Nsg8
I00
sg9
F1513.0447708849999
sg10
(dp41
g12
I0
sg13
I0
sg14
I0
sg15
I0
sg16
I0
sg17
I0
sg18
I0
sg19
I0
sg20
I1
sg21
I0
ssg22
g23
sg24
g25
sg26
I0
sg27
I0
sg28
Nsg29
F7.2379998528049327e-06
sba(iandrea.events
WeatherEvent
p42
(dp43
g4
I0
sg5
F1523.0494106250001
sg6
I0
sg7
Nsg8
I00
sg9
F1523.049421271
sg10
(dp44
g12
I0
sg13
I0
sg14
I0
sg15
I0
sg16
I0
sg17
I0
sg18
I0
sg19
I0
sg20
I1
sg21
I0
ssg22
g23
sg24
g25
sg26
I0
sg27
I0
sg28
Nsg29
F1.0645999964253861e-05
sba(iandrea.events
WeatherEvent
p45
(dp46
g4
I0
sg5
F1533.0496525799999
sg6
I0
sg7
Nsg8
I00
sg9
F1533.0496625809999
sg10
(dp47
g12
I0
sg13
I0
sg14
I0
sg15
I0
sg16
I0
sg17
I0
sg18
I0
sg19
I0
sg20
I1
sg21
I0
ssg22
g23
sg24
g25
sg26
I0
sg27
I0
sg28
Nsg29
F1.0000999964177026e-05
sba(iandrea.events
WeatherEvent
p48
(dp49
g4
I0
sg5
F1543.0516446260001
sg6
I0
sg7
Nsg8
I00
sg9
F1543.0516530519999
sg10
(dp50
g12
I0
sg13
I0
sg14
I0
sg15
I0
sg16
I0
sg17
I0
sg18
I0
sg19
I0
sg20
I1
sg21
I0
ssg22
g23
sg24
g25
sg26
I0
sg27
I0
sg28
Nsg29
F8.4259997947810916e-06
sba(iandrea.events
WeatherEvent
p51
(dp52
g4
I0
sg5
F1553.0558147950001
sg6
I0
sg7
Nsg8
I00
sg9
F1553.055829031
sg10
(dp53
g12
I0
sg13
I0
sg14
I0
sg15
I0
sg16
I0
sg17
I0
sg18
I0
sg19
I0
sg20
I1
sg21
I0
ssg22
g23
sg24
g25
sg26
I0
sg27
I0
sg28
Nsg29
F1.4235999969969271e-05
sba(iandrea.events
WeatherEvent
p54
(dp55
g4
I0
sg5
F1563.056512394
sg6
I0
sg7
Nsg8
I00
sg9
F1563.056518097
sg10
(dp56
g12
I0
sg13
I0
sg14
I0
sg15
I0
sg16
I0
sg17
I0
sg18
I0
sg19
I0
sg20
I1
sg21
I0
ssg22
g23
sg24
g25
sg26
I0
sg27
I0
sg28
Nsg29
F5.7029999425139977e-06
sba(iandrea.events
WeatherEvent
p57
(dp58
g4
I0
sg5
F1573.058102187
sg6
I0
sg7
Nsg8
I00
sg9
F1573.058107202
sg10
(dp59
g12
I0
sg13
I0
sg14
I0
sg15
I0
sg16
I0
sg17
I0
sg18
I0
sg19
I0
sg20
I1
sg21
I0
ssg22
g23
sg24
g25
sg26
I0
sg27
I0
sg28
Nsg29
F5.0149999424320413e-06
sba(iandrea.events
WeatherEvent
p60
(dp61
g4
I0
sg5
F1583.0591948220001
sg6
I0
sg7
Nsg8
I00
sg9
F1583.0592003950001
sg10
(dp62
g12
I0
sg13
I0
sg14
I0
sg15
I0
sg16
I0
sg17
I0
sg18
I0
sg19
I0
sg20
I1
sg21
I0
ssg22
g23
sg24
g25
sg26
I0
sg27
I0
sg28
Nsg29
F5.5729999530740315e-06
sba(iandrea.events
WeatherEvent
p63
(dp64
g4
I0
sg5
F1593.059963166
sg6
I0
sg7
Nsg8
I00
sg9
F1593.0599679869999
sg10
(dp65
g12
I0
sg13
I0
sg14
I0
sg15
I0
sg16
I0
sg17
I0
sg18
I0
sg19
I0
sg20
I1
sg21
I0
ssg22
g23
sg24
g25
sg26
I0
sg27
I0
sg28
Nsg29
F4.8209999476966914e-06
sba(iandrea.events
WeatherEvent
p66
(dp67
g4
I0
sg5
F1603.060978688
sg6
I0
sg7
Nsg8
I00
sg9
F1603.0609865849999
sg10
(dp68
g12
I0
sg13
I0
sg14
I0
sg15
I0
sg16
I0
sg17
I0
sg18
I0
sg19
I0
sg20
I1
sg21
I0
ssg22
g23
sg24
g25
sg26
I0
sg27
I0
sg28
Nsg29
F7.896999932199833e-06
sba(iandrea.events
WeatherEvent
p69
(dp70
g4
I0
sg5
F1613.0617954889999
sg6
I0
sg7
Nsg8
I00
sg9
F1613.061800295
sg10
(dp71
g12
I0
sg13
I0
sg14
I0
sg15
I0
sg16
I0
sg17
I0
sg18
I0
sg19
I0
sg20
I1
sg21
I0
ssg22
g23
sg24
g25
sg26
I0
sg27
I0
sg28
Nsg29
F4.8060001063277014e-06
sba(iandrea.events
WeatherEvent
p72
(dp73
g4
I0
sg5
F1623.0633876209999
sg6
I0
sg7
Nsg8
I00
sg9
F1623.0633957340001
sg10
(dp74
g12
I0
sg13
I0
sg14
I0
sg15
I0
sg16
I0
sg17
I0
sg18
I0
sg19
I0
sg20
I1
sg21
I0
ssg22
g23
sg24
g25
sg26
I0
sg27
I0
sg28
Nsg29
F8.1130001490237191e-06
sba(iandrea.events
WeatherEvent
p75
(dp76
g4
I0
sg5
F1633.063658565
sg6
I0
sg7
Nsg8
I00
sg9
F1633.0636637299999
sg10
(dp77
g12
I0
sg13
I0
sg14
I0
sg15
I0
sg16
I0
sg17
I0
sg18
I0
sg19
I0
sg20
I1
sg21
I0
ssg22
g23
sg24
g25
sg26
I0
sg27
I0
sg28
Nsg29
F5.1649999477376696e-06
sba(iandrea.events
WeatherEvent
p78
(dp79
g4
I0
sg5
F1643.064487521
sg6
I0
sg7
Nsg8
I00
sg9
F1643.064492772
sg10
(dp80
g12
I0
sg13
I0
sg14
I0
sg15
I0
sg16
I0
sg17
I0
sg18
I0
sg19
I0
sg20
I1
sg21
I0
ssg22
g23
sg24
g25
sg26
I0
sg27
I0
sg28
Nsg29
F5.2509999477479141e-06
sba(iandrea.events
WeatherEvent
p81
(dp82
g4
I0
sg5
F1653.06469449
sg6
I0
sg7
Nsg8
I00
sg9
F1653.0647019569999
sg10
(dp83
g12
I0
sg13
I0
sg14
I0
sg15
I0
sg16
I0
sg17
I0
sg18
I0
sg19
I0
sg20
I1
sg21
I0
ssg22
g23
sg24
g25
sg26
I0
sg27
I0
sg28
Nsg29
F7.4669999321486102e-06
sba(iandrea.events
WeatherEvent
p84
(dp85
g4
I0
sg5
F1663.0658508639999
sg6
I0
sg7
Nsg8
I00
sg9
F1663.0658582230001
sg10
(dp86
g12
I0
sg13
I0
sg14
I0
sg15
I0
sg16
I0
sg17
I0
sg18
I0
sg19
I0
sg20
I1
sg21
I0
ssg22
g23
sg24
g25
sg26
I0
sg27
I0
sg28
Nsg29
F7.3590001647971803e-06
sba(iandrea.events
WeatherEvent
p87
(dp88
g4
I0
sg5
F1673.0667617710001
sg6
I0
sg7
Nsg8
I00
sg9
F1673.066766964
sg10
(dp89
g12
I0
sg13
I0
sg14
I0
sg15
I0
sg16
I0
sg17
I0
sg18
I0
sg19
I0
sg20
I1
sg21
I0
ssg22
g23
sg24
g25
sg26
I0
sg27
I0
sg28
Nsg29
F5.1929998790001264e-06
sba.(lp1
(iandrea.events
WeatherEvent
p2
(dp3
S'src'
p4
I0
sS't_i'
p5
F1683.067450558
sS'level'
p6
I0
sS'res'
p7
NsS'inv'
p8
I00
sS't_f'
p9
F1683.0674552580001
sS'etc'
p10
(dp11
S'workers_idle'
p12
I0
sS'workers_busy'
p13
I0
sS'tasks_busy'
p14
I0
sS'MEMOUT'
p15
I0
sS'UNSAT'
p16
I0
sS'TIMEOUT'
p17
I0
sS'ERROR'
p18
I0
sS'tasks_done'
p19
I0
sS'tasks_idle'
p20
I1
sS'SAT'
p21
I0
ssS'gid'
p22
S'wrep'
p23
sS'eid'
p24
S'update'
p25
sS'timeout'
p26
I0
sS'max'
p27
I0
sS'tid'
p28
NsS'dur'
p29
F4.7000000904517947e-06
sba(iandrea.events
WeatherEvent
p30
(dp31
g4
I0
sg5
F1693.067753175
sg6
I0
sg7
Nsg8
I00
sg9
F1693.0677582860001
sg10
(dp32
g12
I0
sg13
I0
sg14
I0
sg15
I0
sg16
I0
sg17
I0
sg18
I0
sg19
I0
sg20
I1
sg21
I0
ssg22
g23
sg24
g25
sg26
I0
sg27
I0
sg28
Nsg29
F5.1110000640619546e-06
sba(iandrea.events
WeatherEvent
p33
(dp34
g4
I0
sg5
F1703.0696802540001
sg6
I0
sg7
Nsg8
I00
sg9
F1703.0696877329999
sg10
(dp35
g12
I0
sg13
I0
sg14
I0
sg15
I0
sg16
I0
sg17
I0
sg18
I0
sg19
I0
sg20
I1
sg21
I0
ssg22
g23
sg24
g25
sg26
I0
sg27
I0
sg28
Nsg29
F7.4789998052438023e-06
sba(iandrea.events
WeatherEvent
p36
(dp37
g4
I0
sg5
F1713.070174293
sg6
I0
sg7
Nsg8
I00
sg9
F1713.070179718
sg10
(dp38
g12
I0
sg13
I0
sg14
I0
sg15
I0
sg16
I0
sg17
I0
sg18
I0
sg19
I0
sg20
I1
sg21
I0
ssg22
g23
sg24
g25
sg26
I0
sg27
I0
sg28
Nsg29
F5.4249999266176019e-06
sba(iandrea.events
WeatherEvent
p39
(dp40
g4
I0
sg5
F1723.072020225
sg6
I0
sg7
Nsg8
I00
sg9
F1723.0720254769999
sg10
(dp41
g12
I0
sg13
I0
sg14
I0
sg15
I0
sg16
I0
sg17
I0
sg18
I0
sg19
I0
sg20
I1
sg21
I0
ssg22
g23
sg24
g25
sg26
I0
sg27
I0
sg28
Nsg29
F5.2519999371725135e-06
sba(iandrea.events
WeatherEvent
p42
(dp43
g4
I0
sg5
F1733.072435279
sg6
I0
sg7
Nsg8
I00
sg9
F1733.072442877
sg10
(dp44
g12
I0
sg13
I0
sg14
I0
sg15
I0
sg16
I0
sg17
I0
sg18
I0
sg19
I0
sg20
I1
sg21
I0
ssg22
g23
sg24
g25
sg26
I0
sg27
I0
sg28
Nsg29
F7.5979999110131757e-06
sba(iandrea.events
WeatherEvent
p45
(dp46
g4
I0
sg5
F1743.0732947859999
sg6
I0
sg7
Nsg8
I00
sg9
F1743.073303395
sg10
(dp47
g12
I0
sg13
I0
sg14
I0
sg15
I0
sg16
I0
sg17
I0
sg18
I0
sg19
I0
sg20
I1
sg21
I0
ssg22
g23
sg24
g25
sg26
I0
sg27
I0
sg28
Nsg29
F8.6090001332195243e-06
sba(iandrea.events
WeatherEvent
p48
(dp49
g4
I0
sg5
F1753.0749280120001
sg6
I0
sg7
Nsg8
I00
sg9
F1753.074933092
sg10
(dp50
g12
I0
sg13
I0
sg14
I0
sg15
I0
sg16
I0
sg17
I0
sg18
I0
sg19
I0
sg20
I1
sg21
I0
ssg22
g23
sg24
g25
sg26
I0
sg27
I0
sg28
Nsg29
F5.0799999371520244e-06
sba(iandrea.events
WeatherEvent
p51
(dp52
g4
I0
sg5
F1763.075891875
sg6
I0
sg7
Nsg8
I00
sg9
F1763.075896801
sg10
(dp53
g12
I0
sg13
I0
sg14
I0
sg15
I0
sg16
I0
sg17
I0
sg18
I0
sg19
I0
sg20
I1
sg21
I0
ssg22
g23
sg24
g25
sg26
I0
sg27
I0
sg28
Nsg29
F4.9259999741479987e-06
sba(iandrea.events
WeatherEvent
p54
(dp55
g4
I0
sg5
F1773.076539983
sg6
I0
sg7
Nsg8
I00
sg9
F1773.076545459
sg10
(dp56
g12
I0
sg13
I0
sg14
I0
sg15
I0
sg16
I0
sg17
I0
sg18
I0
sg19
I0
sg20
I1
sg21
I0
ssg22
g23
sg24
g25
sg26
I0
sg27
I0
sg28
Nsg29
F5.4760000693931943e-06
sba(iandrea.events
WeatherEvent
p57
(dp58
g4
I0
sg5
F1783.077978106
sg6
I0
sg7
Nsg8
I00
sg9
F1783.0779856629999
sg10
(dp59
g12
I0
sg13
I0
sg14
I0
sg15
I0
sg16
I0
sg17
I0
sg18
I0
sg19
I0
sg20
I1
sg21
I0
ssg22
g23
sg24
g25
sg26
I0
sg27
I0
sg28
Nsg29
F7.5569998898572521e-06
sba(iandrea.events
WeatherEvent
p60
(dp61
g4
I0
sg5
F1793.078446944
sg6
I0
sg7
Nsg8
I00
sg9
F1793.078452535
sg10
(dp62
g12
I0
sg13
I0
sg14
I0
sg15
I0
sg16
I0
sg17
I0
sg18
I0
sg19
I0
sg20
I1
sg21
I0
ssg22
g23
sg24
g25
sg26
I0
sg27
I0
sg28
Nsg29
F5.590999990090495e-06
sba(iandrea.events
WeatherEvent
p63
(dp64
g4
I0
sg5
F1803.0789118130001
sg6
I0
sg7
Nsg8
I00
sg9
F1803.07891692
sg10
(dp65
g12
I0
sg13
I0
sg14
I0
sg15
I0
sg16
I0
sg17
I0
sg18
I0
sg19
I0
sg20
I1
sg21
I0
ssg22
g23
sg24
g25
sg26
I0
sg27
I0
sg28
Nsg29
F5.1069998789898818e-06
sba(iandrea.events
WeatherEvent
p66
(dp67
g4
I0
sg5
F1813.0806301770001
sg6
I0
sg7
Nsg8
I00
sg9
F1813.080636054
sg10
(dp68
g12
I0
sg13
I0
sg14
I0
sg15
I0
sg16
I0
sg17
I0
sg18
I0
sg19
I0
sg20
I1
sg21
I0
ssg22
g23
sg24
g25
sg26
I0
sg27
I0
sg28
Nsg29
F5.8769999213836854e-06
sba(iandrea.events
WeatherEvent
p69
(dp70
g4
I0
sg5
F1823.0826610209999
sg6
I0
sg7
Nsg8
I00
sg9
F1823.0826660949999
sg10
(dp71
g12
I0
sg13
I0
sg14
I0
sg15
I0
sg16
I0
sg17
I0
sg18
I0
sg19
I0
sg20
I1
sg21
I0
ssg22
g23
sg24
g25
sg26
I0
sg27
I0
sg28
Nsg29
F5.0740000006044284e-06
sba(iandrea.events
WeatherEvent
p72
(dp73
g4
I0
sg5
F1833.0828164039999
sg6
I0
sg7
Nsg8
I00
sg9
F1833.0828214200001
sg10
(dp74
g12
I0
sg13
I0
sg14
I0
sg15
I0
sg16
I0
sg17
I0
sg18
I0
sg19
I0
sg20
I1
sg21
I0
ssg22
g23
sg24
g25
sg26
I0
sg27
I0
sg28
Nsg29
F5.0160001592303161e-06
sba(iandrea.events
WeatherEvent
p75
(dp76
g4
I0
sg5
F1843.0843731269999
sg6
I0
sg7
Nsg8
I00
sg9
F1843.0843779879999
sg10
(dp77
g12
I0
sg13
I0
sg14
I0
sg15
I0
sg16
I0
sg17
I0
sg18
I0
sg19
I0
sg20
I1
sg21
I0
ssg22
g23
sg24
g25
sg26
I0
sg27
I0
sg28
Nsg29
F4.8609999794280156e-06
sba(iandrea.events
WeatherEvent
p78
(dp79
g4
I0
sg5
F1853.0862173129999
sg6
I0
sg7
Nsg8
I00
sg9
F1853.0862225010001
sg10
(dp80
g12
I0
sg13
I0
sg14
I0
sg15
I0
sg16
I0
sg17
I0
sg18
I0
sg19
I0
sg20
I1
sg21
I0
ssg22
g23
sg24
g25
sg26
I0
sg27
I0
sg28
Nsg29
F5.1880001592508052e-06
sba(iandrea.events
WeatherEvent
p81
(dp82
g4
I0
sg5
F1863.088156257
sg6
I0
sg7
Nsg8
I00
sg9
F1863.0881612820001
sg10
(dp83
g12
I0
sg13
I0
sg14
I0
sg15
I0
sg16
I0
sg17
I0
sg18
I0
sg19
I0
sg20
I1
sg21
I0
ssg22
g23
sg24
g25
sg26
I0
sg27
I0
sg28
Nsg29
F5.0250000640517101e-06
sba(iandrea.events
WeatherEvent
p84
(dp85
g4
I0
sg5
F1873.0890494719999
sg6
I0
sg7
Nsg8
I00
sg9
F1873.089054694
sg10
(dp86
g12
I0
sg13
I0
sg14
I0
sg15
I0
sg16
I0
sg17
I0
sg18
I0
sg19
I0
sg20
I1
sg21
I0
ssg22
g23
sg24
g25
sg26
I0
sg27
I0
sg28
Nsg29
F5.222000027060858e-06
sba(iandrea.events
WeatherEvent
p87
(dp88
g4
I0
sg5
F1883.090025345
sg6
I0
sg7
Nsg8
I00
sg9
F1883.090030226
sg10
(dp89
g12
I0
sg13
I0
sg14
I0
sg15
I0
sg16
I0
sg17
I0
sg18
I0
sg19
I0
sg20
I1
sg21
I0
ssg22
g23
sg24
g25
sg26
I0
sg27
I0
sg28
Nsg29
F4.8809999952936778e-06
sba.(lp1
(iandrea.events
WeatherEvent
p2
(dp3
S'src'
p4
I0
sS't_i'
p5
F1893.090611069
sS'level'
p6
I0
sS'res'
p7
NsS'inv'
p8
I00
sS't_f'
p9
F1893.090616404
sS'etc'
p10
(dp11
S'workers_idle'
p12
I0
sS'workers_busy'
p13
I0
sS'tasks_busy'
p14
I0
sS'MEMOUT'
p15
I0
sS'UNSAT'
p16
I0
sS'TIMEOUT'
p17
I0
sS'ERROR'
p18
I0
sS'tasks_done'
p19
I0
sS'tasks_idle'
p20
I1
sS'SAT'
p21
I0
ssS'gid'
p22
S'wrep'
p23
sS'eid'
p24
S'update'
p25
sS'timeout'
p26
I0
sS'max'
p27
I0
sS'tid'
p28
NsS'dur'
p29
F5.33499996890896e-06
sba(iandrea.events
WeatherEvent
p30
(dp31
g4
I0
sg5
F1903.0906719039999
sg6
I0
sg7
Nsg8
I00
sg9
F1903.090676649
sg10
(dp32
g12
I0
sg13
I0
sg14
I0
sg15
I0
sg16
I0
sg17
I0
sg18
I0
sg19
I0
sg20
I1
sg21
I0
ssg22
g23
sg24
g25
sg26
I0
sg27
I0
sg28
Nsg29
F4.7450000693061156e-06
sba(iandrea.events
WeatherEvent
p33
(dp34
g4
I0
sg5
F1913.092058772
sg6
I0
sg7
Nsg8
I00
sg9
F1913.0920639410001
sg10
(dp35
g12
I0
sg13
I0
sg14
I0
sg15
I0
sg16
I0
sg17
I0
sg18
I0
sg19
I0
sg20
I1
sg21
I0
ssg22
g23
sg24
g25
sg26
I0
sg27
I0
sg28
Nsg29
F5.1690001328097424e-06
sba(iandrea.events
WeatherEvent
p36
(dp37
g4
I0
sg5
F1923.092181388
sg6
I0
sg7
Nsg8
I00
sg9
F1923.092189062
sg10
(dp38
g12
I0
sg13
I0
sg14
I0
sg15
I0
sg16
I0
sg17
I0
sg18
I0
sg19
I0
sg20
I1
sg21
I0
ssg22
g23
sg24
g25
sg26
I0
sg27
I0
sg28
Nsg29
F7.6740000167774269e-06
sba(iandrea.events
WeatherEvent
p39
(dp40
g4
I0
sg5
F1933.0926278009999
sg6
I0
sg7
Nsg8
I00
sg9
F1933.092632718
sg10
(dp41
g12
I0
sg13
I0
sg14
I0
sg15
I0
sg16
I0
sg17
I0
sg18
I0
sg19
I0
sg20
I1
sg21
I0
ssg22
g23
sg24
g25
sg26
I0
sg27
I0
sg28
Nsg29
F4.9170000693266047e-06
sba(iandrea.events
WeatherEvent
p42
(dp43
g4
I0
sg5
F1943.093234751
sg6
I0
sg7
Nsg8
I00
sg9
F1943.0932403960001
sg10
(dp44
g12
I0
sg13
I0
sg14
I0
sg15
I0
sg16
I0
sg17
I0
sg18
I0
sg19
I0
sg20
I1
sg21
I0
ssg22
g23
sg24
g25
sg26
I0
sg27
I0
sg28
Nsg29
F5.6450001011398854e-06
sba(iandrea.events
WeatherEvent
p45
(dp46
g4
I0
sg5
F1953.093409734
sg6
I0
sg7
Nsg8
I00
sg9
F1953.0934154720001
sg10
(dp47
g12
I0
sg13
I0
sg14
I0
sg15
I0
sg16
I0
sg17
I0
sg18
I0
sg19
I0
sg20
I1
sg21
I0
ssg22
g23
sg24
g25
sg26
I0
sg27
I0
sg28
Nsg29
F5.7380000271223253e-06
sba(iandrea.events
WeatherEvent
p48
(dp49
g4
I0
sg5
F1963.095259878
sg6
I0
sg7
Nsg8
I00
sg9
F1963.0952645949999
sg10
(dp50
g12
I0
sg13
I0
sg14
I0
sg15
I0
sg16
I0
sg17
I0
sg18
I0
sg19
I0
sg20
I1
sg21
I0
ssg22
g23
sg24
g25
sg26
I0
sg27
I0
sg28
Nsg29
F4.7169999106699834e-06
sba(iandrea.events
WeatherEvent
p51
(dp52
g4
I0
sg5
F1973.0955854230001
sg6
I0
sg7
Nsg8
I00
sg9
F1973.0955933790001
sg10
(dp53
g12
I0
sg13
I0
sg14
I0
sg15
I0
sg16
I0
sg17
I0
sg18
I0
sg19
I0
sg20
I1
sg21
I0
ssg22
g23
sg24
g25
sg26
I0
sg27
I0
sg28
Nsg29
F7.9559999903722201e-06
sba(iandrea.events
WeatherEvent
p54
(dp55
g4
I0
sg5
F1983.096501408
sg6
I0
sg7
Nsg8
I00
sg9
F1983.0965069060001
sg10
(dp56
g12
I0
sg13
I0
sg14
I0
sg15
I0
sg16
I0
sg17
I0
sg18
I0
sg19
I0
sg20
I1
sg21
I0
ssg22
g23
sg24
g25
sg26
I0
sg27
I0
sg28
Nsg29
F5.4980000641080551e-06
sba(iandrea.events
WeatherEvent
p57
(dp58
g4
I0
sg5
F1993.097467071
sg6
I0
sg7
Nsg8
I00
sg9
F1993.0974751220001
sg10
(dp59
g12
I0
sg13
I0
sg14
I0
sg15
I0
sg16
I0
sg17
I0
sg18
I0
sg19
I0
sg20
I1
sg21
I0
ssg22
g23
sg24
g25
sg26
I0
sg27
I0
sg28
Nsg29
F8.0510001225775341e-06
sba(iandrea.events
WeatherEvent
p60
(dp61
g4
I0
sg5
F2003.0992708419999
sg6
I0
sg7
Nsg8
I00
sg9
F2003.099276959
sg10
(dp62
g12
I0
sg13
I0
sg14
I0
sg15
I0
sg16
I0
sg17
I0
sg18
I0
sg19
I0
sg20
I1
sg21
I0
ssg22
g23
sg24
g25
sg26
I0
sg27
I0
sg28
Nsg29
F6.1170001117716311e-06
sba(iandrea.events
WeatherEvent
p63
(dp64
g4
I0
sg5
F2013.1013779919999
sg6
I0
sg7
Nsg8
I00
sg9
F2013.1013859
sg10
(dp65
g12
I0
sg13
I0
sg14
I0
sg15
I0
sg16
I0
sg17
I0
sg18
I0
sg19
I0
sg20
I1
sg21
I0
ssg22
g23
sg24
g25
sg26
I0
sg27
I0
sg28
Nsg29
F7.9080000432441011e-06
sba(iandrea.events
WeatherEvent
p66
(dp67
g4
I0
sg5
F2023.103125139
sg6
I0
sg7
Nsg8
I00
sg9
F2023.1031330210001
sg10
(dp68
g12
I0
sg13
I0
sg14
I0
sg15
I0
sg16
I0
sg17
I0
sg18
I0
sg19
I0
sg20
I1
sg21
I0
ssg22
g23
sg24
g25
sg26
I0
sg27
I0
sg28
Nsg29
F7.882000090830843e-06
sba(iandrea.events
WeatherEvent
p69
(dp70
g4
I0
sg5
F2033.103509646
sg6
I0
sg7
Nsg8
I00
sg9
F2033.103517411
sg10
(dp71
g12
I0
sg13
I0
sg14
I0
sg15
I0
sg16
I0
sg17
I0
sg18
I0
sg19
I0
sg20
I1
sg21
I0
ssg22
g23
sg24
g25
sg26
I0
sg27
I0
sg28
Nsg29
F7.7649999639106682e-06
sba(iandrea.events
WeatherEvent
p72
(dp73
g4
I0
sg5
F2043.1044105880001
sg6
I0
sg7
Nsg8
I00
sg9
F2043.1044180900001
sg10
(dp74
g12
I0
sg13
I0
sg14
I0
sg15
I0
sg16
I0
sg17
I0
sg18
I0
sg19
I0
sg20
I1
sg21
I0
ssg22
g23
sg24
g25
sg26
I0
sg27
I0
sg28
Nsg29
F7.5020000167569378e-06
sba(iandrea.events
WeatherEvent
p75
(dp76
g4
I0
sg5
F2053.1046613069998
sg6
I0
sg7
Nsg8
I00
sg9
F2053.104666407
sg10
(dp77
g12
I0
sg13
I0
sg14
I0
sg15
I0
sg16
I0
sg17
I0
sg18
I0
sg19
I0
sg20
I1
sg21
I0
ssg22
g23
sg24
g25
sg26
I0
sg27
I0
sg28
Nsg29
F5.1000001803913619e-06
sba(iandrea.events
WeatherEvent
p78
(dp79
g4
I0
sg5
F2063.1058348010001
sg6
I0
sg7
Nsg8
I00
sg9
F2063.1058398820001
sg10
(dp80
g12
I0
sg13
I0
sg14
I0
sg15
I0
sg16
I0
sg17
I0
sg18
I0
sg19
I0
sg20
I1
sg21
I0
ssg22
g23
sg24
g25
sg26
I0
sg27
I0
sg28
Nsg29
F5.0809999265766237e-06
sba(iandrea.events
WeatherEvent
p81
(dp82
g4
I0
sg5
F2073.1206676460001
sg6
I0
sg7
Nsg8
I00
sg9
F2073.121316969
sg10
(dp83
g12
I0
sg13
I0
sg14
I0
sg15
I0
sg16
I0
sg17
I0
sg18
I0
sg19
I0
sg20
I1
sg21
I0
ssg22
g23
sg24
g25
sg26
I0
sg27
I0
sg28
Nsg29
F0.00064932299983411212
sba(iandrea.events
WeatherEvent
p84
(dp85
g4
I0
sg5
F2083.1336619449999
sg6
I0
sg7
Nsg8
I00
sg9
F2083.1336793189998
sg10
(dp86
g12
I0
sg13
I0
sg14
I0
sg15
I0
sg16
I0
sg17
I0
sg18
I0
sg19
I0
sg20
I1
sg21
I0
ssg22
g23
sg24
g25
sg26
I0
sg27
I0
sg28
Nsg29
F1.7373999980918597e-05
sba(iandrea.events
WeatherEvent
p87
(dp88
g4
I0
sg5
F2093.1257795910001
sg6
I0
sg7
Nsg8
I00
sg9
F2093.1257894199998
sg10
(dp89
g12
I0
sg13
I0
sg14
I0
sg15
I0
sg16
I0
sg17
I0
sg18
I0
sg19
I0
sg20
I1
sg21
I0
ssg22
g23
sg24
g25
sg26
I0
sg27
I0
sg28
Nsg29
F9.8289997367828619e-06
sba.(lp1
(iandrea.events
WeatherEvent
p2
(dp3
S'src'
p4
I0
sS't_i'
p5
F2103.1266784959998
sS'level'
p6
I0
sS'res'
p7
NsS'inv'
p8
I00
sS't_f'
p9
F2103.1266868910002
sS'etc'
p10
(dp11
S'workers_idle'
p12
I0
sS'workers_busy'
p13
I0
sS'tasks_busy'
p14
I0
sS'MEMOUT'
p15
I0
sS'UNSAT'
p16
I0
sS'TIMEOUT'
p17
I0
sS'ERROR'
p18
I0
sS'tasks_done'
p19
I0
sS'tasks_idle'
p20
I1
sS'SAT'
p21
I0
ssS'gid'
p22
S'wrep'
p23
sS'eid'
p24
S'update'
p25
sS'timeout'
p26
I0
sS'max'
p27
I0
sS'tid'
p28
NsS'dur'
p29
F8.3950003499921877e-06
sba(iandrea.events
WeatherEvent
p30
(dp31
g4
I0
sg5
F2113.127925835
sg6
I0
sg7
Nsg8
I00
sg9
F2113.1279348899998
sg10
(dp32
g12
I0
sg13
I0
sg14
I0
sg15
I0
sg16
I0
sg17
I0
sg18
I0
sg19
I0
sg20
I1
sg21
I0
ssg22
g23
sg24
g25
sg26
I0
sg27
I0
sg28
Nsg29
F9.0549997366906609e-06
sba(iandrea.events
WeatherEvent
p33
(dp34
g4
I0
sg5
F2123.128281197
sg6
I0
sg7
Nsg8
I00
sg9
F2123.128289581
sg10
(dp35
g12
I0
sg13
I0
sg14
I0
sg15
I0
sg16
I0
sg17
I0
sg18
I0
sg19
I0
sg20
I1
sg21
I0
ssg22
g23
sg24
g25
sg26
I0
sg27
I0
sg28
Nsg29
F8.3840000115742441e-06
sba(iandrea.events
WeatherEvent
p36
(dp37
g4
I0
sg5
F2133.129500733
sg6
I0
sg7
Nsg8
I00
sg9
F2133.1295115309999
sg10
(dp38
g12
I0
sg13
I0
sg14
I0
sg15
I0
sg16
I0
sg17
I0
sg18
I0
sg19
I0
sg20
I1
sg21
I0
ssg22
g23
sg24
g25
sg26
I0
sg27
I0
sg28
Nsg29
F1.0797999948408687e-05
sba(iandrea.events
WeatherEvent
p39
(dp40
g4
I0
sg5
F2143.1293101880001
sg6
I0
sg7
Nsg8
I00
sg9
F2143.1293197220002
sg10
(dp41
g12
I0
sg13
I0
sg14
I0
sg15
I0
sg16
I0
sg17
I0
sg18
I0
sg19
I0
sg20
I1
sg21
I0
ssg22
g23
sg24
g25
sg26
I0
sg27
I0
sg28
Nsg29
F9.5340001280419528e-06
sba(iandrea.events
WeatherEvent
p42
(dp43
g4
I0
sg5
F2153.1487364630002
sg6
I0
sg7
Nsg8
I00
sg9
F2153.1487515650001
sg10
(dp44
g12
I0
sg13
I0
sg14
I0
sg15
I0
sg16
I0
sg17
I0
sg18
I0
sg19
I0
sg20
I1
sg21
I0
ssg22
g23
sg24
g25
sg26
I0
sg27
I0
sg28
Nsg29
F1.5101999906619312e-05
sba(iandrea.events
WeatherEvent
p45
(dp46
g4
I0
sg5
F2163.1357486070001
sg6
I0
sg7
Nsg8
I00
sg9
F2163.1357615460001
sg10
(dp47
g12
I0
sg13
I0
sg14
I0
sg15
I0
sg16
I0
sg17
I0
sg18
I0
sg19
I0
sg20
I1
sg21
I0
ssg22
g23
sg24
g25
sg26
I0
sg27
I0
sg28
Nsg29
F1.2939000043843407e-05
sba(iandrea.events
WeatherEvent
p48
(dp49
g4
I0
sg5
F2173.137183326
sg6
I0
sg7
Nsg8
I00
sg9
F2173.1371952250001
sg10
(dp50
g12
I0
sg13
I0
sg14
I0
sg15
I0
sg16
I0
sg17
I0
sg18
I0
sg19
I0
sg20
I1
sg21
I0
ssg22
g23
sg24
g25
sg26
I0
sg27
I0
sg28
Nsg29
F1.1899000128323678e-05
sba(iandrea.events
WeatherEvent
p51
(dp52
g4
I0
sg5
F2183.1428009739998
sg6
I0
sg7
Nsg8
I00
sg9
F2183.1428154609998
sg10
(dp53
g12
I0
sg13
I0
sg14
I0
sg15
I0
sg16
I0
sg17
I0
sg18
I0
sg19
I0
sg20
I1
sg21
I0
ssg22
g23
sg24
g25
sg26
I0
sg27
I0
sg28
Nsg29
F1.4487000044027809e-05
sba(iandrea.events
WeatherEvent
p54
(dp55
g4
I0
sg5
F2193.1447720390001
sg6
I0
sg7
Nsg8
I00
sg9
F2193.1447815219999
sg10
(dp56
g12
I0
sg13
I0
sg14
I0
sg15
I0
sg16
I0
sg17
I0
sg18
I0
sg19
I0
sg20
I1
sg21
I0
ssg22
g23
sg24
g25
sg26
I0
sg27
I0
sg28
Nsg29
F9.482999757892685e-06
sba(iandrea.events
WeatherEvent
p57
(dp58
g4
I0
sg5
F2203.1597772929999
sg6
I0
sg7
Nsg8
I00
sg9
F2203.1597878130001
sg10
(dp59
g12
I0
sg13
I0
sg14
I0
sg15
I0
sg16
I0
sg17
I0
sg18
I0
sg19
I0
sg20
I1
sg21
I0
ssg22
g23
sg24
g25
sg26
I0
sg27
I0
sg28
Nsg29
F1.0520000159885967e-05
sba(iandrea.events
WeatherEvent
p60
(dp61
g4
I0
sg5
F2213.1602220660002
sg6
I0
sg7
Nsg8
I00
sg9
F2213.1602304799999
sg10
(dp62
g12
I0
sg13
I0
sg14
I0
sg15
I0
sg16
I0
sg17
I0
sg18
I0
sg19
I0
sg20
I1
sg21
I0
ssg22
g23
sg24
g25
sg26
I0
sg27
I0
sg28
Nsg29
F8.4139996943122242e-06
sba(iandrea.events
WeatherEvent
p63
(dp64
g4
I0
sg5
F2223.1616211330002
sg6
I0
sg7
Nsg8
I00
sg9
F2223.1616295550002
sg10
(dp65
g12
I0
sg13
I0
sg14
I0
sg15
I0
sg16
I0
sg17
I0
sg18
I0
sg19
I0
sg20
I1
sg21
I0
ssg22
g23
sg24
g25
sg26
I0
sg27
I0
sg28
Nsg29
F8.4220000644563697e-06
sba(iandrea.events
WeatherEvent
p66
(dp67
g4
I0
sg5
F2233.1632858050002
sg6
I0
sg7
Nsg8
I00
sg9
F2233.1632935900002
sg10
(dp68
g12
I0
sg13
I0
sg14
I0
sg15
I0
sg16
I0
sg17
I0
sg18
I0
sg19
I0
sg20
I1
sg21
I0
ssg22
g23
sg24
g25
sg26
I0
sg27
I0
sg28
Nsg29
F7.7849999797763303e-06
sba(iandrea.events
WeatherEvent
p69
(dp70
g4
I0
sg5
F2243.164753818
sg6
I0
sg7
Nsg8
I00
sg9
F2243.1647640320002
sg10
(dp71
g12
I0
sg13
I0
sg14
I0
sg15
I0
sg16
I0
sg17
I0
sg18
I0
sg19
I0
sg20
I1
sg21
I0
ssg22
g23
sg24
g25
sg26
I0
sg27
I0
sg28
Nsg29
F1.0214000212727115e-05
sba(iandrea.events
WeatherEvent
p72
(dp73
g4
I0
sg5
F2253.1657992350001
sg6
I0
sg7
Nsg8
I00
sg9
F2253.165814208
sg10
(dp74
g12
I0
sg13
I0
sg14
I0
sg15
I0
sg16
I0
sg17
I0
sg18
I0
sg19
I0
sg20
I1
sg21
I0
ssg22
g23
sg24
g25
sg26
I0
sg27
I0
sg28
Nsg29
F1.4972999906603945e-05
sba(iandrea.events
WeatherEvent
p75
(dp76
g4
I0
sg5
F2263.1667149300001
sg6
I0
sg7
Nsg8
I00
sg9
F2263.1667295490001
sg10
(dp77
g12
I0
sg13
I0
sg14
I0
sg15
I0
sg16
I0
sg17
I0
sg18
I0
sg19
I0
sg20
I1
sg21
I0
ssg22
g23
sg24
g25
sg26
I0
sg27
I0
sg28
Nsg29
F1.4619000012316974e-05
sba(iandrea.events
WeatherEvent
p78
(dp79
g4
I0
sg5
F2273.1668210339999
sg6
I0
sg7
Nsg8
I00
sg9
F2273.1668298280001
sg10
(dp80
g12
I0
sg13
I0
sg14
I0
sg15
I0
sg16
I0
sg17
I0
sg18
I0
sg19
I0
sg20
I1
sg21
I0
ssg22
g23
sg24
g25
sg26
I0
sg27
I0
sg28
Nsg29
F8.7940002231334802e-06
sba(iandrea.events
WeatherEvent
p81
(dp82
g4
I0
sg5
F2283.1679735849998
sg6
I0
sg7
Nsg8
I00
sg9
F2283.1679818809998
sg10
(dp83
g12
I0
sg13
I0
sg14
I0
sg15
I0
sg16
I0
sg17
I0
sg18
I0
sg19
I0
sg20
I1
sg21
I0
ssg22
g23
sg24
g25
sg26
I0
sg27
I0
sg28
Nsg29
F8.2960000327148009e-06
sba(iandrea.events
WeatherEvent
p84
(dp85
g4
I0
sg5
F2293.1683582730002
sg6
I0
sg7
Nsg8
I00
sg9
F2293.1683661679999
sg10
(dp86
g12
I0
sg13
I0
sg14
I0
sg15
I0
sg16
I0
sg17
I0
sg18
I0
sg19
I0
sg20
I1
sg21
I0
ssg22
g23
sg24
g25
sg26
I0
sg27
I0
sg28
Nsg29
F7.8949997259769589e-06
sba(iandrea.events
WeatherEvent
p87
(dp88
g4
I0
sg5
F2303.1700589299999
sg6
I0
sg7
Nsg8
I00
sg9
F2303.1700640439999
sg10
(dp89
g12
I0
sg13
I0
sg14
I0
sg15
I0
sg16
I0
sg17
I0
sg18
I0
sg19
I0
sg20
I1
sg21
I0
ssg22
g23
sg24
g25
sg26
I0
sg27
I0
sg28
Nsg29
F5.1140000323357526e-06
sba.(lp1
(iandrea.events
WeatherEvent
p2
(dp3
S'src'
p4
I0
sS't_i'
p5
F2313.1718829400002
sS'level'
p6
I0
sS'res'
p7
NsS'inv'
p8
I00
sS't_f'
p9
F2313.171891082
sS'etc'
p10
(dp11
S'workers_idle'
p12
I0
sS'workers_busy'
p13
I0
sS'tasks_busy'
p14
I0
sS'MEMOUT'
p15
I0
sS'UNSAT'
p16
I0
sS'TIMEOUT'
p17
I0
sS'ERROR'
p18
I0
sS'tasks_done'
p19
I0
sS'tasks_idle'
p20
I1
sS'SAT'
p21
I0
ssS'gid'
p22
S'wrep'
p23
sS'eid'
p24
S'update'
p25
sS'timeout'
p26
I0
sS'max'
p27
I0
sS'tid'
p28
NsS'dur'
p29
F8.1419998423370998e-06
sba(iandrea.events
WeatherEvent
p30
(dp31
g4
I0
sg5
F2323.172326462
sg6
I0
sg7
Nsg8
I00
sg9
F2323.172333812
sg10
(dp32
g12
I0
sg13
I0
sg14
I0
sg15
I0
sg16
I0
sg17
I0
sg18
I0
sg19
I0
sg20
I1
sg21
I0
ssg22
g23
sg24
g25
sg26
I0
sg27
I0
sg28
Nsg29
F7.3500000326021109e-06
sba(iandrea.events
WeatherEvent
p33
(dp34
g4
I0
sg5
F2333.173074589
sg6
I0
sg7
Nsg8
I00
sg9
F2333.1730794670002
sg10
(dp35
g12
I0
sg13
I0
sg14
I0
sg15
I0
sg16
I0
sg17
I0
sg18
I0
sg19
I0
sg20
I1
sg21
I0
ssg22
g23
sg24
g25
sg26
I0
sg27
I0
sg28
Nsg29
F4.8780002543935552e-06
sba(iandrea.events
WeatherEvent
p36
(dp37
g4
I0
sg5
F2343.1735017770002
sg6
I0
sg7
Nsg8
I00
sg9
F2343.1735104989998
sg10
(dp38
g12
I0
sg13
I0
sg14
I0
sg15
I0
sg16
I0
sg17
I0
sg18
I0
sg19
I0
sg20
I1
sg21
I0
ssg22
g23
sg24
g25
sg26
I0
sg27
I0
sg28
Nsg29
F8.7219996203202754e-06
sba(iandrea.events
WeatherEvent
p39
(dp40
g4
I0
sg5
F2353.1744060689998
sg6
I0
sg7
Nsg8
I00
sg9
F2353.1744108429998
sg10
(dp41
g12
I0
sg13
I0
sg14
I0
sg15
I0
sg16
I0
sg17
I0
sg18
I0
sg19
I0
sg20
I1
sg21
I0
ssg22
g23
sg24
g25
sg26
I0
sg27
I0
sg28
Nsg29
F4.7739999899931718e-06
sba(iandrea.events
WeatherEvent
p42
(dp43
g4
I0
sg5
F2363.1750959659998
sg6
I0
sg7
Nsg8
I00
sg9
F2363.1751011739998
sg10
(dp44
g12
I0
sg13
I0
sg14
I0
sg15
I0
sg16
I0
sg17
I0
sg18
I0
sg19
I0
sg20
I1
sg21
I0
ssg22
g23
sg24
g25
sg26
I0
sg27
I0
sg28
Nsg29
F5.2079999477427918e-06
sba(iandrea.events
WeatherEvent
p45
(dp46
g4
I0
sg5
F2373.1761940380002
sg6
I0
sg7
Nsg8
I00
sg9
F2373.1761996149999
sg10
(dp47
g12
I0
sg13
I0
sg14
I0
sg15
I0
sg16
I0
sg17
I0
sg18
I0
sg19
I0
sg20
I1
sg21
I0
ssg22
g23
sg24
g25
sg26
I0
sg27
I0
sg28
Nsg29
F5.5769996833987534e-06
sba(iandrea.events
WeatherEvent
p48
(dp49
g4
I0
sg5
F2383.1770270500001
sg6
I0
sg7
Nsg8
I00
sg9
F2383.177035616
sg10
(dp50
g12
I0
sg13
I0
sg14
I0
sg15
I0
sg16
I0
sg17
I0
sg18
I0
sg19
I0
sg20
I1
sg21
I0
ssg22
g23
sg24
g25
sg26
I0
sg27
I0
sg28
Nsg29
F8.5659999058407266e-06
sba(iandrea.events
WeatherEvent
p51
(dp52
g4
I0
sg5
F2393.1790121280001
sg6
I0
sg7
Nsg8
I00
sg9
F2393.179020347
sg10
(dp53
g12
I0
sg13
I0
sg14
I0
sg15
I0
sg16
I0
sg17
I0
sg18
I0
sg19
I0
sg20
I1
sg21
I0
ssg22
g23
sg24
g25
sg26
I0
sg27
I0
sg28
Nsg29
F8.2189999375259504e-06
sba(iandrea.events
WeatherEvent
p54
(dp55
g4
I0
sg5
F2403.1807005290002
sg6
I0
sg7
Nsg8
I00
sg9
F2403.18070872
sg10
(dp56
g12
I0
sg13
I0
sg14
I0
sg15
I0
sg16
I0
sg17
I0
sg18
I0
sg19
I0
sg20
I1
sg21
I0
ssg22
g23
sg24
g25
sg26
I0
sg27
I0
sg28
Nsg29
F8.1909997788898181e-06
sba(iandrea.events
WeatherEvent
p57
(dp58
g4
I0
sg5
F2413.1807146470001
sg6
I0
sg7
Nsg8
I00
sg9
F2413.1807219249999
sg10
(dp59
g12
I0
sg13
I0
sg14
I0
sg15
I0
sg16
I0
sg17
I0
sg18
I0
sg19
I0
sg20
I1
sg21
I0
ssg22
g23
sg24
g25
sg26
I0
sg27
I0
sg28
Nsg29
F7.277999884536257e-06
sba(iandrea.events
WeatherEvent
p60
(dp61
g4
I0
sg5
F2423.1821323300001
sg6
I0
sg7
Nsg8
I00
sg9
F2423.1821406270001
sg10
(dp62
g12
I0
sg13
I0
sg14
I0
sg15
I0
sg16
I0
sg17
I0
sg18
I0
sg19
I0
sg20
I1
sg21
I0
ssg22
g23
sg24
g25
sg26
I0
sg27
I0
sg28
Nsg29
F8.2970000221394002e-06
sba(iandrea.events
WeatherEvent
p63
(dp64
g4
I0
sg5
F2433.1822657379998
sg6
I0
sg7
Nsg8
I00
sg9
F2433.1822705180002
sg10
(dp65
g12
I0
sg13
I0
sg14
I0
sg15
I0
sg16
I0
sg17
I0
sg18
I0
sg19
I0
sg20
I1
sg21
I0
ssg22
g23
sg24
g25
sg26
I0
sg27
I0
sg28
Nsg29
F4.7800003812881187e-06
sba(iandrea.events
WeatherEvent
p66
(dp67
g4
I0
sg5
F2443.183556773
sg6
I0
sg7
Nsg8
I00
sg9
F2443.1835689330001
sg10
(dp68
g12
I0
sg13
I0
sg14
I0
sg15
I0
sg16
I0
sg17
I0
sg18
I0
sg19
I0
sg20
I1
sg21
I0
ssg22
g23
sg24
g25
sg26
I0
sg27
I0
sg28
Nsg29
F1.216000009662821e-05
sba(iandrea.events
WeatherEvent
p69
(dp70
g4
I0
sg5
F2453.1847879400002
sg6
I0
sg7
Nsg8
I00
sg9
F2453.1847928759998
sg10
(dp71
g12
I0
sg13
I0
sg14
I0
sg15
I0
sg16
I0
sg17
I0
sg18
I0
sg19
I0
sg20
I1
sg21
I0
ssg22
g23
sg24
g25
sg26
I0
sg27
I0
sg28
Nsg29
F4.9359996410203166e-06
sba(iandrea.events
WeatherEvent
p72
(dp73
g4
I0
sg5
F2463.1857341640002
sg6
I0
sg7
Nsg8
I00
sg9
F2463.1857389800002
sg10
(dp74
g12
I0
sg13
I0
sg14
I0
sg15
I0
sg16
I0
sg17
I0
sg18
I0
sg19
I0
sg20
I1
sg21
I0
ssg22
g23
sg24
g25
sg26
I0
sg27
I0
sg28
Nsg29
F4.8160000005736947e-06
sba(iandrea.events
WeatherEvent
p75
(dp76
g4
I0
sg5
F2473.1858531819998
sg6
I0
sg7
Nsg8
I00
sg9
F2473.1858611799998
sg10
(dp77
g12
I0
sg13
I0
sg14
I0
sg15
I0
sg16
I0
sg17
I0
sg18
I0
sg19
I0
sg20
I1
sg21
I0
ssg22
g23
sg24
g25
sg26
I0
sg27
I0
sg28
Nsg29
F7.998000000952743e-06
sba(iandrea.events
WeatherEvent
p78
(dp79
g4
I0
sg5
F2483.1864117079999
sg6
I0
sg7
Nsg8
I00
sg9
F2483.1864164409999
sg10
(dp80
g12
I0
sg13
I0
sg14
I0
sg15
I0
sg16
I0
sg17
I0
sg18
I0
sg19
I0
sg20
I1
sg21
I0
ssg22
g23
sg24
g25
sg26
I0
sg27
I0
sg28
Nsg29
F4.7329999688372482e-06
sba(iandrea.events
WeatherEvent
p81
(dp82
g4
I0
sg5
F2493.188071218
sg6
I0
sg7
Nsg8
I00
sg9
F2493.1880760700001
sg10
(dp83
g12
I0
sg13
I0
sg14
I0
sg15
I0
sg16
I0
sg17
I0
sg18
I0
sg19
I0
sg20
I1
sg21
I0
ssg22
g23
sg24
g25
sg26
I0
sg27
I0
sg28
Nsg29
F4.8520000746066216e-06
sba(iandrea.events
WeatherEvent
p84
(dp85
g4
I0
sg5
F2503.188634527
sg6
I0
sg7
Nsg8
I00
sg9
F2503.188644283
sg10
(dp86
g12
I0
sg13
I0
sg14
I0
sg15
I0
sg16
I0
sg17
I0
sg18
I0
sg19
I0
sg20
I1
sg21
I0
ssg22
g23
sg24
g25
sg26
I0
sg27
I0
sg28
Nsg29
F9.7560000540397596e-06
sba(iandrea.events
WeatherEvent
p87
(dp88
g4
I0
sg5
F2513.190624497
sg6
I0
sg7
Nsg8
I00
sg9
F2513.1906294680002
sg10
(dp89
g12
I0
sg13
I0
sg14
I0
sg15
I0
sg16
I0
sg17
I0
sg18
I0
sg19
I0
sg20
I1
sg21
I0
ssg22
g23
sg24
g25
sg26
I0
sg27
I0
sg28
Nsg29
F4.9710001803759951e-06
sba.(lp1
(iandrea.events
WeatherEvent
p2
(dp3
S'src'
p4
I0
sS't_i'
p5
F2523.191405387
sS'level'
p6
I0
sS'res'
p7
NsS'inv'
p8
I00
sS't_f'
p9
F2523.1914127
sS'etc'
p10
(dp11
S'workers_idle'
p12
I0
sS'workers_busy'
p13
I0
sS'tasks_busy'
p14
I0
sS'MEMOUT'
p15
I0
sS'UNSAT'
p16
I0
sS'TIMEOUT'
p17
I0
sS'ERROR'
p18
I0
sS'tasks_done'
p19
I0
sS'tasks_idle'
p20
I1
sS'SAT'
p21
I0
ssS'gid'
p22
S'wrep'
p23
sS'eid'
p24
S'update'
p25
sS'timeout'
p26
I0
sS'max'
p27
I0
sS'tid'
p28
NsS'dur'
p29
F7.3129999691445846e-06
sba(iandrea.events
WeatherEvent
p30
(dp31
g4
I0
sg5
F2533.1921045089998
sg6
I0
sg7
Nsg8
I00
sg9
F2533.1921098590001
sg10
(dp32
g12
I0
sg13
I0
sg14
I0
sg15
I0
sg16
I0
sg17
I0
sg18
I0
sg19
I0
sg20
I1
sg21
I0
ssg22
g23
sg24
g25
sg26
I0
sg27
I0
sg28
Nsg29
F5.3500002650253009e-06
sba(iandrea.events
WeatherEvent
p33
(dp34
g4
I0
sg5
F2543.1926731180001
sg6
I0
sg7
Nsg8
I00
sg9
F2543.1926778490001
sg10
(dp35
g12
I0
sg13
I0
sg14
I0
sg15
I0
sg16
I0
sg17
I0
sg18
I0
sg19
I0
sg20
I1
sg21
I0
ssg22
g23
sg24
g25
sg26
I0
sg27
I0
sg28
Nsg29
F4.7309999899880495e-06
sba(iandrea.events
WeatherEvent
p36
(dp37
g4
I0
sg5
F2553.1939260019999
sg6
I0
sg7
Nsg8
I00
sg9
F2553.193931754
sg10
(dp38
g12
I0
sg13
I0
sg14
I0
sg15
I0
sg16
I0
sg17
I0
sg18
I0
sg19
I0
sg20
I1
sg21
I0
ssg22
g23
sg24
g25
sg26
I0
sg27
I0
sg28
Nsg29
F5.7520001064403914e-06
sba(iandrea.events
WeatherEvent
p39
(dp40
g4
I0
sg5
F2563.1957865899999
sg6
I0
sg7
Nsg8
I00
sg9
F2563.1957943369998
sg10
(dp41
g12
I0
sg13
I0
sg14
I0
sg15
I0
sg16
I0
sg17
I0
sg18
I0
sg19
I0
sg20
I1
sg21
I0
ssg22
g23
sg24
g25
sg26
I0
sg27
I0
sg28
Nsg29
F7.7469999268942047e-06
sba(iandrea.events
WeatherEvent
p42
(dp43
g4
I0
sg5
F2573.1966422410001
sg6
I0
sg7
Nsg8
I00
sg9
F2573.1966504090001
sg10
(dp44
g12
I0
sg13
I0
sg14
I0
sg15
I0
sg16
I0
sg17
I0
sg18
I0
sg19
I0
sg20
I1
sg21
I0
ssg22
g23
sg24
g25
sg26
I0
sg27
I0
sg28
Nsg29
F8.1680000221240334e-06
sba(iandrea.events
WeatherEvent
p45
(dp46
g4
I0
sg5
F2583.1971282270001
sg6
I0
sg7
Nsg8
I00
sg9
F2583.1971364020001
sg10
(dp47
g12
I0
sg13
I0
sg14
I0
sg15
I0
sg16
I0
sg17
I0
sg18
I0
sg19
I0
sg20
I1
sg21
I0
ssg22
g23
sg24
g25
sg26
I0
sg27
I0
sg28
Nsg29
F8.1749999480962288e-06
sba(iandrea.events
WeatherEvent
p48
(dp49
g4
I0
sg5
F2593.1982697879998
sg6
I0
sg7
Nsg8
I00
sg9
F2593.1982747850002
sg10
(dp50
g12
I0
sg13
I0
sg14
I0
sg15
I0
sg16
I0
sg17
I0
sg18
I0
sg19
I0
sg20
I1
sg21
I0
ssg22
g23
sg24
g25
sg26
I0
sg27
I0
sg28
Nsg29
F4.9970003601629287e-06
sba(iandrea.events
WeatherEvent
p51
(dp52
g4
I0
sg5
F2603.1994830389999
sg6
I0
sg7
Nsg8
I00
sg9
F2603.1994900969999
sg10
(dp53
g12
I0
sg13
I0
sg14
I0
sg15
I0
sg16
I0
sg17
I0
sg18
I0
sg19
I0
sg20
I1
sg21
I0
ssg22
g23
sg24
g25
sg26
I0
sg27
I0
sg28
Nsg29
F7.057999937387649e-06
sba(iandrea.events
WeatherEvent
p54
(dp55
g4
I0
sg5
F2613.2011593279999
sg6
I0
sg7
Nsg8
I00
sg9
F2613.2011677420001
sg10
(dp56
g12
I0
sg13
I0
sg14
I0
sg15
I0
sg16
I0
sg17
I0
sg18
I0
sg19
I0
sg20
I1
sg21
I0
ssg22
g23
sg24
g25
sg26
I0
sg27
I0
sg28
Nsg29
F8.4140001490595751e-06
sba(iandrea.events
WeatherEvent
p57
(dp58
g4
I0
sg5
F2623.202793981
sg6
I0
sg7
Nsg8
I00
sg9
F2623.2028002450002
sg10
(dp59
g12
I0
sg13
I0
sg14
I0
sg15
I0
sg16
I0
sg17
I0
sg18
I0
sg19
I0
sg20
I1
sg21
I0
ssg22
g23
sg24
g25
sg26
I0
sg27
I0
sg28
Nsg29
F6.2640001488034613e-06
sba(iandrea.events
WeatherEvent
p60
(dp61
g4
I0
sg5
F2633.204000406
sg6
I0
sg7
Nsg8
I00
sg9
F2633.2040081660002
sg10
(dp62
g12
I0
sg13
I0
sg14
I0
sg15
I0
sg16
I0
sg17
I0
sg18
I0
sg19
I0
sg20
I1
sg21
I0
ssg22
g23
sg24
g25
sg26
I0
sg27
I0
sg28
Nsg29
F7.7600002441613469e-06
sba(iandrea.events
WeatherEvent
p63
(dp64
g4
I0
sg5
F2643.2045464510002
sg6
I0
sg7
Nsg8
I00
sg9
F2643.204553862
sg10
(dp65
g12
I0
sg13
I0
sg14
I0
sg15
I0
sg16
I0
sg17
I0
sg18
I0
sg19
I0
sg20
I1
sg21
I0
ssg22
g23
sg24
g25
sg26
I0
sg27
I0
sg28
Nsg29
F7.4109998422500212e-06
sba(iandrea.events
WeatherEvent
p66
(dp67
g4
I0
sg5
F2653.2060563109999
sg6
I0
sg7
Nsg8
I00
sg9
F2653.2060648820002
sg10
(dp68
g12
I0
sg13
I0
sg14
I0
sg15
I0
sg16
I0
sg17
I0
sg18
I0
sg19
I0
sg20
I1
sg21
I0
ssg22
g23
sg24
g25
sg26
I0
sg27
I0
sg28
Nsg29
F8.5710003077110741e-06
sba(iandrea.events
WeatherEvent
p69
(dp70
g4
I0
sg5
F2663.2069858189998
sg6
I0
sg7
Nsg8
I00
sg9
F2663.2069931639999
sg10
(dp71
g12
I0
sg13
I0
sg14
I0
sg15
I0
sg16
I0
sg17
I0
sg18
I0
sg19
I0
sg20
I1
sg21
I0
ssg22
g23
sg24
g25
sg26
I0
sg27
I0
sg28
Nsg29
F7.3450000854791142e-06
sba(iandrea.events
WeatherEvent
p72
(dp73
g4
I0
sg5
F2673.2072595169998
sg6
I0
sg7
Nsg8
I00
sg9
F2673.2072675979998
sg10
(dp74
g12
I0
sg13
I0
sg14
I0
sg15
I0
sg16
I0
sg17
I0
sg18
I0
sg19
I0
sg20
I1
sg21
I0
ssg22
g23
sg24
g25
sg26
I0
sg27
I0
sg28
Nsg29
F8.0810000326891895e-06
sba(iandrea.events
WeatherEvent
p75
(dp76
g4
I0
sg5
F2683.2092053820002
sg6
I0
sg7
Nsg8
I00
sg9
F2683.2092138859998
sg10
(dp77
g12
I0
sg13
I0
sg14
I0
sg15
I0
sg16
I0
sg17
I0
sg18
I0
sg19
I0
sg20
I1
sg21
I0
ssg22
g23
sg24
g25
sg26
I0
sg27
I0
sg28
Nsg29
F8.5039996520208661e-06
sba(iandrea.events
WeatherEvent
p78
(dp79
g4
I0
sg5
F2693.2107651689998
sg6
I0
sg7
Nsg8
I00
sg9
F2693.2107723200002
sg10
(dp80
g12
I0
sg13
I0
sg14
I0
sg15
I0
sg16
I0
sg17
I0
sg18
I0
sg19
I0
sg20
I1
sg21
I0
ssg22
g23
sg24
g25
sg26
I0
sg27
I0
sg28
Nsg29
F7.1510003181174397e-06
sba(iandrea.events
WeatherEvent
p81
(dp82
g4
I0
sg5
F2703.212383049
sg6
I0
sg7
Nsg8
I00
sg9
F2703.212390875
sg10
(dp83
g12
I0
sg13
I0
sg14
I0
sg15
I0
sg16
I0
sg17
I0
sg18
I0
sg19
I0
sg20
I1
sg21
I0
ssg22
g23
sg24
g25
sg26
I0
sg27
I0
sg28
Nsg29
F7.8260000009322539e-06
sba(iandrea.events
WeatherEvent
p84
(dp85
g4
I0
sg5
F2713.2130414379999
sg6
I0
sg7
Nsg8
I00
sg9
F2713.2130462710002
sg10
(dp86
g12
I0
sg13
I0
sg14
I0
sg15
I0
sg16
I0
sg17
I0
sg18
I0
sg19
I0
sg20
I1
sg21
I0
ssg22
g23
sg24
g25
sg26
I0
sg27
I0
sg28
Nsg29
F4.8330002755392343e-06
sba(iandrea.events
WeatherEvent
p87
(dp88
g4
I0
sg5
F2723.213386204
sg6
I0
sg7
Nsg8
I00
sg9
F2723.2133919550001
sg10
(dp89
g12
I0
sg13
I0
sg14
I0
sg15
I0
sg16
I0
sg17
I0
sg18
I0
sg19
I0
sg20
I1
sg21
I0
ssg22
g23
sg24
g25
sg26
I0
sg27
I0
sg28
Nsg29
F5.7510001170157921e-06
sba.(lp1
(iandrea.events
WeatherEvent
p2
(dp3
S'src'
p4
I0
sS't_i'
p5
F2733.2150748459999
sS'level'
p6
I0
sS'res'
p7
NsS'inv'
p8
I00
sS't_f'
p9
F2733.215080128
sS'etc'
p10
(dp11
S'workers_idle'
p12
I0
sS'workers_busy'
p13
I0
sS'tasks_busy'
p14
I0
sS'MEMOUT'
p15
I0
sS'UNSAT'
p16
I0
sS'TIMEOUT'
p17
I0
sS'ERROR'
p18
I0
sS'tasks_done'
p19
I0
sS'tasks_idle'
p20
I1
sS'SAT'
p21
I0
ssS'gid'
p22
S'wrep'
p23
sS'eid'
p24
S'update'
p25
sS'timeout'
p26
I0
sS'max'
p27
I0
sS'tid'
p28
NsS'dur'
p29
F5.2820000746578444e-06
sba(iandrea.events
WeatherEvent
p30
(dp31
g4
I0
sg5
F2743.2159435580002
sg6
I0
sg7
Nsg8
I00
sg9
F2743.2159485729999
sg10
(dp32
g12
I0
sg13
I0
sg14
I0
sg15
I0
sg16
I0
sg17
I0
sg18
I0
sg19
I0
sg20
I1
sg21
I0
ssg22
g23
sg24
g25
sg26
I0
sg27
I0
sg28
Nsg29
F5.0149997150583658e-06
sba(iandrea.events
WeatherEvent
p33
(dp34
g4
I0
sg5
F2753.2164434410001
sg6
I0
sg7
Nsg8
I00
sg9
F2753.2164487989999
sg10
(dp35
g12
I0
sg13
I0
sg14
I0
sg15
I0
sg16
I0
sg17
I0
sg18
I0
sg19
I0
sg20
I1
sg21
I0
ssg22
g23
sg24
g25
sg26
I0
sg27
I0
sg28
Nsg29
F5.3579997256747447e-06
sba(iandrea.events
WeatherEvent
p36
(dp37
g4
I0
sg5
F2763.219845091
sg6
I0
sg7
Nsg8
I00
sg9
F2763.219853306
sg10
(dp38
g12
I0
sg13
I0
sg14
I0
sg15
I0
sg16
I0
sg17
I0
sg18
I0
sg19
I0
sg20
I1
sg21
I0
ssg22
g23
sg24
g25
sg26
I0
sg27
I0
sg28
Nsg29
F8.214999979827553e-06
sba(iandrea.events
WeatherEvent
p39
(dp40
g4
I0
sg5
F2773.2211803939999
sg6
I0
sg7
Nsg8
I00
sg9
F2773.2211877039999
sg10
(dp41
g12
I0
sg13
I0
sg14
I0
sg15
I0
sg16
I0
sg17
I0
sg18
I0
sg19
I0
sg20
I1
sg21
I0
ssg22
g23
sg24
g25
sg26
I0
sg27
I0
sg28
Nsg29
F7.3100000008707866e-06
sba(iandrea.events
WeatherEvent
p42
(dp43
g4
I0
sg5
F2783.22306996
sg6
I0
sg7
Nsg8
I00
sg9
F2783.223074726
sg10
(dp44
g12
I0
sg13
I0
sg14
I0
sg15
I0
sg16
I0
sg17
I0
sg18
I0
sg19
I0
sg20
I1
sg21
I0
ssg22
g23
sg24
g25
sg26
I0
sg27
I0
sg28
Nsg29
F4.7660000745963771e-06
sba(iandrea.events
WeatherEvent
p45
(dp46
g4
I0
sg5
F2793.2235295820001
sg6
I0
sg7
Nsg8
I00
sg9
F2793.2235351459999
sg10
(dp47
g12
I0
sg13
I0
sg14
I0
sg15
I0
sg16
I0
sg17
I0
sg18
I0
sg19
I0
sg20
I1
sg21
I0
ssg22
g23
sg24
g25
sg26
I0
sg27
I0
sg28
Nsg29
F5.5639998208789621e-06
sba(iandrea.events
WeatherEvent
p48
(dp49
g4
I0
sg5
F2803.2249977010001
sg6
I0
sg7
Nsg8
I00
sg9
F2803.2250051010001
sg10
(dp50
g12
I0
sg13
I0
sg14
I0
sg15
I0
sg16
I0
sg17
I0
sg18
I0
sg19
I0
sg20
I1
sg21
I0
ssg22
g23
sg24
g25
sg26
I0
sg27
I0
sg28
Nsg29
F7.3999999585794285e-06
sba(iandrea.events
WeatherEvent
p51
(dp52
g4
I0
sg5
F2813.2266287819998
sg6
I0
sg7
Nsg8
I00
sg9
F2813.2266338760001
sg10
(dp53
g12
I0
sg13
I0
sg14
I0
sg15
I0
sg16
I0
sg17
I0
sg18
I0
sg19
I0
sg20
I1
sg21
I0
ssg22
g23
sg24
g25
sg26
I0
sg27
I0
sg28
Nsg29
F5.0940002438437659e-06
sba(iandrea.events
WeatherEvent
p54
(dp55
g4
I0
sg5
F2823.2270886450001
sg6
I0
sg7
Nsg8
I00
sg9
F2823.227094203
sg10
(dp56
g12
I0
sg13
I0
sg14
I0
sg15
I0
sg16
I0
sg17
I0
sg18
I0
sg19
I0
sg20
I1
sg21
I0
ssg22
g23
sg24
g25
sg26
I0
sg27
I0
sg28
Nsg29
F5.557999884331366e-06
sba(iandrea.events
WeatherEvent
p57
(dp58
g4
I0
sg5
F2833.228303421
sg6
I0
sg7
Nsg8
I00
sg9
F2833.2283114090001
sg10
(dp59
g12
I0
sg13
I0
sg14
I0
sg15
I0
sg16
I0
sg17
I0
sg18
I0
sg19
I0
sg20
I1
sg21
I0
ssg22
g23
sg24
g25
sg26
I0
sg27
I0
sg28
Nsg29
F7.9880001067067496e-06
sba(iandrea.events
WeatherEvent
p60
(dp61
g4
I0
sg5
F2843.2299938400001
sg6
I0
sg7
Nsg8
I00
sg9
F2843.2300001039998
sg10
(dp62
g12
I0
sg13
I0
sg14
I0
sg15
I0
sg16
I0
sg17
I0
sg18
I0
sg19
I0
sg20
I1
sg21
I0
ssg22
g23
sg24
g25
sg26
I0
sg27
I0
sg28
Nsg29
F6.2639996940561105e-06
sba(iandrea.events
WeatherEvent
p63
(dp64
g4
I0
sg5
F2853.2301608160001
sg6
I0
sg7
Nsg8
I00
sg9
F2853.2301683249998
sg10
(dp65
g12
I0
sg13
I0
sg14
I0
sg15
I0
sg16
I0
sg17
I0
sg18
I0
sg19
I0
sg20
I1
sg21
I0
ssg22
g23
sg24
g25
sg26
I0
sg27
I0
sg28
Nsg29
F7.5089997153554577e-06
sba(iandrea.events
WeatherEvent
p66
(dp67
g4
I0
sg5
F2863.2302530729999
sg6
I0
sg7
Nsg8
I00
sg9
F2863.23026097
sg10
(dp68
g12
I0
sg13
I0
sg14
I0
sg15
I0
sg16
I0
sg17
I0
sg18
I0
sg19
I0
sg20
I1
sg21
I0
ssg22
g23
sg24
g25
sg26
I0
sg27
I0
sg28
Nsg29
F7.8970001595735084e-06
sba(iandrea.events
WeatherEvent
p69
(dp70
g4
I0
sg5
F2873.2333302940001
sg6
I0
sg7
Nsg8
I00
sg9
F2873.233339202
sg10
(dp71
g12
I0
sg13
I0
sg14
I0
sg15
I0
sg16
I0
sg17
I0
sg18
I0
sg19
I0
sg20
I1
sg21
I0
ssg22
g23
sg24
g25
sg26
I0
sg27
I0
sg28
Nsg29
F8.9079999270325061e-06
sba(iandrea.events
WeatherEvent
p72
(dp73
g4
I0
sg5
F2883.2340515390001
sg6
I0
sg7
Nsg8
I00
sg9
F2883.2340584120002
sg10
(dp74
g12
I0
sg13
I0
sg14
I0
sg15
I0
sg16
I0
sg17
I0
sg18
I0
sg19
I0
sg20
I1
sg21
I0
ssg22
g23
sg24
g25
sg26
I0
sg27
I0
sg28
Nsg29
F6.8730000748473685e-06
sba(iandrea.events
WeatherEvent
p75
(dp76
g4
I0
sg5
F2893.2353621809998
sg6
I0
sg7
Nsg8
I00
sg9
F2893.2353701649999
sg10
(dp77
g12
I0
sg13
I0
sg14
I0
sg15
I0
sg16
I0
sg17
I0
sg18
I0
sg19
I0
sg20
I1
sg21
I0
ssg22
g23
sg24
g25
sg26
I0
sg27
I0
sg28
Nsg29
F7.9840001490083523e-06
sba(iandrea.events
WeatherEvent
p78
(dp79
g4
I0
sg5
F2903.236738947
sg6
I0
sg7
Nsg8
I00
sg9
F2903.236747422
sg10
(dp80
g12
I0
sg13
I0
sg14
I0
sg15
I0
sg16
I0
sg17
I0
sg18
I0
sg19
I0
sg20
I1
sg21
I0
ssg22
g23
sg24
g25
sg26
I0
sg27
I0
sg28
Nsg29
F8.4749999587074853e-06
sba(iandrea.events
WeatherEvent
p81
(dp82
g4
I0
sg5
F2913.23675181
sg6
I0
sg7
Nsg8
I00
sg9
F2913.236759161
sg10
(dp83
g12
I0
sg13
I0
sg14
I0
sg15
I0
sg16
I0
sg17
I0
sg18
I0
sg19
I0
sg20
I1
sg21
I0
ssg22
g23
sg24
g25
sg26
I0
sg27
I0
sg28
Nsg29
F7.3510000220267102e-06
sba(iandrea.events
WeatherEvent
p84
(dp85
g4
I0
sg5
F2923.238626931
sg6
I0
sg7
Nsg8
I00
sg9
F2923.2386339620002
sg10
(dp86
g12
I0
sg13
I0
sg14
I0
sg15
I0
sg16
I0
sg17
I0
sg18
I0
sg19
I0
sg20
I1
sg21
I0
ssg22
g23
sg24
g25
sg26
I0
sg27
I0
sg28
Nsg29
F7.0310002229234669e-06
sba(iandrea.events
WeatherEvent
p87
(dp88
g4
I0
sg5
F2933.2395295780002
sg6
I0
sg7
Nsg8
I00
sg9
F2933.2395349849999
sg10
(dp89
g12
I0
sg13
I0
sg14
I0
sg15
I0
sg16
I0
sg17
I0
sg18
I0
sg19
I0
sg20
I1
sg21
I0
ssg22
g23
sg24
g25
sg26
I0
sg27
I0
sg28
Nsg29
F5.406999662227463e-06
sba.(lp1
(iandrea.events
WeatherEvent
p2
(dp3
S'src'
p4
I0
sS't_i'
p5
F2943.2396696410001
sS'level'
p6
I0
sS'res'
p7
NsS'inv'
p8
I00
sS't_f'
p9
F2943.2396768939998
sS'etc'
p10
(dp11
S'workers_idle'
p12
I0
sS'workers_busy'
p13
I0
sS'tasks_busy'
p14
I0
sS'MEMOUT'
p15
I0
sS'UNSAT'
p16
I0
sS'TIMEOUT'
p17
I0
sS'ERROR'
p18
I0
sS'tasks_done'
p19
I0
sS'tasks_idle'
p20
I1
sS'SAT'
p21
I0
ssS'gid'
p22
S'wrep'
p23
sS'eid'
p24
S'update'
p25
sS'timeout'
p26
I0
sS'max'
p27
I0
sS'tid'
p28
NsS'dur'
p29
F7.2529996941739228e-06
sba(iandrea.events
WeatherEvent
p30
(dp31
g4
I0
sg5
F2953.2407510029998
sg6
I0
sg7
Nsg8
I00
sg9
F2953.2407558199998
sg10
(dp32
g12
I0
sg13
I0
sg14
I0
sg15
I0
sg16
I0
sg17
I0
sg18
I0
sg19
I0
sg20
I1
sg21
I0
ssg22
g23
sg24
g25
sg26
I0
sg27
I0
sg28
Nsg29
F4.816999989998294e-06
sba(iandrea.events
WeatherEvent
p33
(dp34
g4
I0
sg5
F2963.2418408079998
sg6
I0
sg7
Nsg8
I00
sg9
F2963.2418459360001
sg10
(dp35
g12
I0
sg13
I0
sg14
I0
sg15
I0
sg16
I0
sg17
I0
sg18
I0
sg19
I0
sg20
I1
sg21
I0
ssg22
g23
sg24
g25
sg26
I0
sg27
I0
sg28
Nsg29
F5.1280003390274942e-06
sba(iandrea.events
WeatherEvent
p36
(dp37
g4
I0
sg5
F2973.2439186199999
sg6
I0
sg7
Nsg8
I00
sg9
F2973.243923985
sg10
(dp38
g12
I0
sg13
I0
sg14
I0
sg15
I0
sg16
I0
sg17
I0
sg18
I0
sg19
I0
sg20
I1
sg21
I0
ssg22
g23
sg24
g25
sg26
I0
sg27
I0
sg28
Nsg29
F5.3650001063942909e-06
sba(iandrea.events
WeatherEvent
p39
(dp40
g4
I0
sg5
F2983.2457335650001
sg6
I0
sg7
Nsg8
I00
sg9
F2983.2457389619999
sg10
(dp41
g12
I0
sg13
I0
sg14
I0
sg15
I0
sg16
I0
sg17
I0
sg18
I0
sg19
I0
sg20
I1
sg21
I0
ssg22
g23
sg24
g25
sg26
I0
sg27
I0
sg28
Nsg29
F5.3969997679814696e-06
sba(iandrea.events
WeatherEvent
p42
(dp43
g4
I0
sg5
F2993.2468282360001
sg6
I0
sg7
Nsg8
I00
sg9
F2993.2468360070002
sg10
(dp44
g12
I0
sg13
I0
sg14
I0
sg15
I0
sg16
I0
sg17
I0
sg18
I0
sg19
I0
sg20
I1
sg21
I0
ssg22
g23
sg24
g25
sg26
I0
sg27
I0
sg28
Nsg29
F7.7710001278319396e-06
sba(iandrea.events
WeatherEvent
p45
(dp46
g4
I0
sg5
F3003.2471811820001
sg6
I0
sg7
Nsg8
I00
sg9
F3003.2471864590002
sg10
(dp47
g12
I0
sg13
I0
sg14
I0
sg15
I0
sg16
I0
sg17
I0
sg18
I0
sg19
I0
sg20
I1
sg21
I0
ssg22
g23
sg24
g25
sg26
I0
sg27
I0
sg28
Nsg29
F5.2770001275348477e-06
sba(iandrea.events
WeatherEvent
p48
(dp49
g4
I0
sg5
F3013.2478754160002
sg6
I0
sg7
Nsg8
I00
sg9
F3013.247880551
sg10
(dp50
g12
I0
sg13
I0
sg14
I0
sg15
I0
sg16
I0
sg17
I0
sg18
I0
sg19
I0
sg20
I1
sg21
I0
ssg22
g23
sg24
g25
sg26
I0
sg27
I0
sg28
Nsg29
F5.1349998102523386e-06
sba(iandrea.events
WeatherEvent
p51
(dp52
g4
I0
sg5
F3023.249748831
sg6
I0
sg7
Nsg8
I00
sg9
F3023.2497564089999
sg10
(dp53
g12
I0
sg13
I0
sg14
I0
sg15
I0
sg16
I0
sg17
I0
sg18
I0
sg19
I0
sg20
I1
sg21
I0
ssg22
g23
sg24
g25
sg26
I0
sg27
I0
sg28
Nsg29
F7.5779998951475136e-06
sba(iandrea.events
WeatherEvent
p54
(dp55
g4
I0
sg5
F3033.2507096129998
sg6
I0
sg7
Nsg8
I00
sg9
F3033.250717288
sg10
(dp56
g12
I0
sg13
I0
sg14
I0
sg15
I0
sg16
I0
sg17
I0
sg18
I0
sg19
I0
sg20
I1
sg21
I0
ssg22
g23
sg24
g25
sg26
I0
sg27
I0
sg28
Nsg29
F7.6750002335757017e-06
sba(iandrea.events
WeatherEvent
p57
(dp58
g4
I0
sg5
F3043.250980884
sg6
I0
sg7
Nsg8
I00
sg9
F3043.2509870539998
sg10
(dp59
g12
I0
sg13
I0
sg14
I0
sg15
I0
sg16
I0
sg17
I0
sg18
I0
sg19
I0
sg20
I1
sg21
I0
ssg22
g23
sg24
g25
sg26
I0
sg27
I0
sg28
Nsg29
F6.1699997786490712e-06
sba(iandrea.events
WeatherEvent
p60
(dp61
g4
I0
sg5
F3053.2521445010002
sg6
I0
sg7
Nsg8
I00
sg9
F3053.252149418
sg10
(dp62
g12
I0
sg13
I0
sg14
I0
sg15
I0
sg16
I0
sg17
I0
sg18
I0
sg19
I0
sg20
I1
sg21
I0
ssg22
g23
sg24
g25
sg26
I0
sg27
I0
sg28
Nsg29
F4.9169998419529293e-06
sba(iandrea.events
WeatherEvent
p63
(dp64
g4
I0
sg5
F3063.2533498940002
sg6
I0
sg7
Nsg8
I00
sg9
F3063.2533556479998
sg10
(dp65
g12
I0
sg13
I0
sg14
I0
sg15
I0
sg16
I0
sg17
I0
sg18
I0
sg19
I0
sg20
I1
sg21
I0
ssg22
g23
sg24
g25
sg26
I0
sg27
I0
sg28
Nsg29
F5.7539996305422392e-06
sba(iandrea.events
WeatherEvent
p66
(dp67
g4
I0
sg5
F3073.254664304
sg6
I0
sg7
Nsg8
I00
sg9
F3073.2546722100001
sg10
(dp68
g12
I0
sg13
I0
sg14
I0
sg15
I0
sg16
I0
sg17
I0
sg18
I0
sg19
I0
sg20
I1
sg21
I0
ssg22
g23
sg24
g25
sg26
I0
sg27
I0
sg28
Nsg29
F7.9060000643949024e-06
sba(iandrea.events
WeatherEvent
p69
(dp70
g4
I0
sg5
F3083.2557933839998
sg6
I0
sg7
Nsg8
I00
sg9
F3083.2557989480001
sg10
(dp71
g12
I0
sg13
I0
sg14
I0
sg15
I0
sg16
I0
sg17
I0
sg18
I0
sg19
I0
sg20
I1
sg21
I0
ssg22
g23
sg24
g25
sg26
I0
sg27
I0
sg28
Nsg29
F5.5640002756263129e-06
sba(iandrea.events
WeatherEvent
p72
(dp73
g4
I0
sg5
F3093.2567463659998
sg6
I0
sg7
Nsg8
I00
sg9
F3093.2567546820001
sg10
(dp74
g12
I0
sg13
I0
sg14
I0
sg15
I0
sg16
I0
sg17
I0
sg18
I0
sg19
I0
sg20
I1
sg21
I0
ssg22
g23
sg24
g25
sg26
I0
sg27
I0
sg28
Nsg29
F8.3160002759541385e-06
sba(iandrea.events
WeatherEvent
p75
(dp76
g4
I0
sg5
F3103.2567960770002
sg6
I0
sg7
Nsg8
I00
sg9
F3103.256803145
sg10
(dp77
g12
I0
sg13
I0
sg14
I0
sg15
I0
sg16
I0
sg17
I0
sg18
I0
sg19
I0
sg20
I1
sg21
I0
ssg22
g23
sg24
g25
sg26
I0
sg27
I0
sg28
Nsg29
F7.0679998316336423e-06
sba(iandrea.events
WeatherEvent
p78
(dp79
g4
I0
sg5
F3113.258049174
sg6
I0
sg7
Nsg8
I00
sg9
F3113.258057216
sg10
(dp80
g12
I0
sg13
I0
sg14
I0
sg15
I0
sg16
I0
sg17
I0
sg18
I0
sg19
I0
sg20
I1
sg21
I0
ssg22
g23
sg24
g25
sg26
I0
sg27
I0
sg28
Nsg29
F8.0419999903824646e-06
sba(iandrea.events
WeatherEvent
p81
(dp82
g4
I0
sg5
F3123.259097137
sg6
I0
sg7
Nsg8
I00
sg9
F3123.2591022790002
sg10
(dp83
g12
I0
sg13
I0
sg14
I0
sg15
I0
sg16
I0
sg17
I0
sg18
I0
sg19
I0
sg20
I1
sg21
I0
ssg22
g23
sg24
g25
sg26
I0
sg27
I0
sg28
Nsg29
F5.1420001909718849e-06
sba(iandrea.events
WeatherEvent
p84
(dp85
g4
I0
sg5
F3133.2598369430002
sg6
I0
sg7
Nsg8
I00
sg9
F3133.2598415389998
sg10
(dp86
g12
I0
sg13
I0
sg14
I0
sg15
I0
sg16
I0
sg17
I0
sg18
I0
sg19
I0
sg20
I1
sg21
I0
ssg22
g23
sg24
g25
sg26
I0
sg27
I0
sg28
Nsg29
F4.5959995986777358e-06
sba(iandrea.events
WeatherEvent
p87
(dp88
g4
I0
sg5
F3143.2618817020002
sg6
I0
sg7
Nsg8
I00
sg9
F3143.2618864279998
sg10
(dp89
g12
I0
sg13
I0
sg14
I0
sg15
I0
sg16
I0
sg17
I0
sg18
I0
sg19
I0
sg20
I1
sg21
I0
ssg22
g23
sg24
g25
sg26
I0
sg27
I0
sg28
Nsg29
F4.7259995881177019e-06
sba.(lp1
(iandrea.events
WeatherEvent
p2
(dp3
S'src'
p4
I0
sS't_i'
p5
F3153.263530146
sS'level'
p6
I0
sS'res'
p7
NsS'inv'
p8
I00
sS't_f'
p9
F3153.2635352679999
sS'etc'
p10
(dp11
S'workers_idle'
p12
I0
sS'workers_busy'
p13
I0
sS'tasks_busy'
p14
I0
sS'MEMOUT'
p15
I0
sS'UNSAT'
p16
I0
sS'TIMEOUT'
p17
I0
sS'ERROR'
p18
I0
sS'tasks_done'
p19
I0
sS'tasks_idle'
p20
I1
sS'SAT'
p21
I0
ssS'gid'
p22
S'wrep'
p23
sS'eid'
p24
S'update'
p25
sS'timeout'
p26
I0
sS'max'
p27
I0
sS'tid'
p28
NsS'dur'
p29
F5.1219999477325473e-06
sba(iandrea.events
WeatherEvent
p30
(dp31
g4
I0
sg5
F3163.2636449420002
sg6
I0
sg7
Nsg8
I00
sg9
F3163.2636525130001
sg10
(dp32
g12
I0
sg13
I0
sg14
I0
sg15
I0
sg16
I0
sg17
I0
sg18
I0
sg19
I0
sg20
I1
sg21
I0
ssg22
g23
sg24
g25
sg26
I0
sg27
I0
sg28
Nsg29
F7.5709999691753183e-06
sba(iandrea.events
WeatherEvent
p33
(dp34
g4
I0
sg5
F3173.265564158
sg6
I0
sg7
Nsg8
I00
sg9
F3173.265573095
sg10
(dp35
g12
I0
sg13
I0
sg14
I0
sg15
I0
sg16
I0
sg17
I0
sg18
I0
sg19
I0
sg20
I1
sg21
I0
ssg22
g23
sg24
g25
sg26
I0
sg27
I0
sg28
Nsg29
F8.9370000750932377e-06
sba(iandrea.events
WeatherEvent
p36
(dp37
g4
I0
sg5
F3183.267231971
sg6
I0
sg7
Nsg8
I00
sg9
F3183.2672395129998
sg10
(dp38
g12
I0
sg13
I0
sg14
I0
sg15
I0
sg16
I0
sg17
I0
sg18
I0
sg19
I0
sg20
I1
sg21
I0
ssg22
g23
sg24
g25
sg26
I0
sg27
I0
sg28
Nsg29
F7.5419998211145867e-06
sba(iandrea.events
WeatherEvent
p39
(dp40
g4
I0
sg5
F3193.269031025
sg6
I0
sg7
Nsg8
I00
sg9
F3193.2690361320001
sg10
(dp41
g12
I0
sg13
I0
sg14
I0
sg15
I0
sg16
I0
sg17
I0
sg18
I0
sg19
I0
sg20
I1
sg21
I0
ssg22
g23
sg24
g25
sg26
I0
sg27
I0
sg28
Nsg29
F5.1070001063635573e-06
sba(iandrea.events
WeatherEvent
p42
(dp43
g4
I0
sg5
F3203.2693837739998
sg6
I0
sg7
Nsg8
I00
sg9
F3203.2693913839998
sg10
(dp44
g12
I0
sg13
I0
sg14
I0
sg15
I0
sg16
I0
sg17
I0
sg18
I0
sg19
I0
sg20
I1
sg21
I0
ssg22
g23
sg24
g25
sg26
I0
sg27
I0
sg28
Nsg29
F7.6100000114820432e-06
sba(iandrea.events
WeatherEvent
p45
(dp46
g4
I0
sg5
F3213.27144348
sg6
I0
sg7
Nsg8
I00
sg9
F3213.2714491199999
sg10
(dp47
g12
I0
sg13
I0
sg14
I0
sg15
I0
sg16
I0
sg17
I0
sg18
I0
sg19
I0
sg20
I1
sg21
I0
ssg22
g23
sg24
g25
sg26
I0
sg27
I0
sg28
Nsg29
F5.6399999266432133e-06
sba(iandrea.events
WeatherEvent
p48
(dp49
g4
I0
sg5
F3223.2725886220001
sg6
I0
sg7
Nsg8
I00
sg9
F3223.2725958350002
sg10
(dp50
g12
I0
sg13
I0
sg14
I0
sg15
I0
sg16
I0
sg17
I0
sg18
I0
sg19
I0
sg20
I1
sg21
I0
ssg22
g23
sg24
g25
sg26
I0
sg27
I0
sg28
Nsg29
F7.2130001171899494e-06
sba(iandrea.events
WeatherEvent
p51
(dp52
g4
I0
sg5
F3233.2744628700002
sg6
I0
sg7
Nsg8
I00
sg9
F3233.2744704420002
sg10
(dp53
g12
I0
sg13
I0
sg14
I0
sg15
I0
sg16
I0
sg17
I0
sg18
I0
sg19
I0
sg20
I1
sg21
I0
ssg22
g23
sg24
g25
sg26
I0
sg27
I0
sg28
Nsg29
F7.5719999585999176e-06
sba(iandrea.events
WeatherEvent
p54
(dp55
g4
I0
sg5
F3243.2753219589999
sg6
I0
sg7
Nsg8
I00
sg9
F3243.2753274840002
sg10
(dp56
g12
I0
sg13
I0
sg14
I0
sg15
I0
sg16
I0
sg17
I0
sg18
I0
sg19
I0
sg20
I1
sg21
I0
ssg22
g23
sg24
g25
sg26
I0
sg27
I0
sg28
Nsg29
F5.525000233319588e-06
sba(iandrea.events
WeatherEvent
p57
(dp58
g4
I0
sg5
F3253.2757745899999
sg6
I0
sg7
Nsg8
I00
sg9
F3253.2757815770001
sg10
(dp59
g12
I0
sg13
I0
sg14
I0
sg15
I0
sg16
I0
sg17
I0
sg18
I0
sg19
I0
sg20
I1
sg21
I0
ssg22
g23
sg24
g25
sg26
I0
sg27
I0
sg28
Nsg29
F6.9870002334937453e-06
sba(iandrea.events
WeatherEvent
p60
(dp61
g4
I0
sg5
F3263.276318959
sg6
I0
sg7
Nsg8
I00
sg9
F3263.2763251739998
sg10
(dp62
g12
I0
sg13
I0
sg14
I0
sg15
I0
sg16
I0
sg17
I0
sg18
I0
sg19
I0
sg20
I1
sg21
I0
ssg22
g23
sg24
g25
sg26
I0
sg27
I0
sg28
Nsg29
F6.2149997575033922e-06
sba(iandrea.events
WeatherEvent
p63
(dp64
g4
I0
sg5
F3273.2765394100002
sg6
I0
sg7
Nsg8
I00
sg9
F3273.2765468729999
sg10
(dp65
g12
I0
sg13
I0
sg14
I0
sg15
I0
sg16
I0
sg17
I0
sg18
I0
sg19
I0
sg20
I1
sg21
I0
ssg22
g23
sg24
g25
sg26
I0
sg27
I0
sg28
Nsg29
F7.4629997470765375e-06
sba(iandrea.events
WeatherEvent
p66
(dp67
g4
I0
sg5
F3283.2771023109999
sg6
I0
sg7
Nsg8
I00
sg9
F3283.2771073069998
sg10
(dp68
g12
I0
sg13
I0
sg14
I0
sg15
I0
sg16
I0
sg17
I0
sg18
I0
sg19
I0
sg20
I1
sg21
I0
ssg22
g23
sg24
g25
sg26
I0
sg27
I0
sg28
Nsg29
F4.9959999159909785e-06
sba(iandrea.events
WeatherEvent
p69
(dp70
g4
I0
sg5
F3293.279157895
sg6
I0
sg7
Nsg8
I00
sg9
F3293.2791654960001
sg10
(dp71
g12
I0
sg13
I0
sg14
I0
sg15
I0
sg16
I0
sg17
I0
sg18
I0
sg19
I0
sg20
I1
sg21
I0
ssg22
g23
sg24
g25
sg26
I0
sg27
I0
sg28
Nsg29
F7.6010001066606492e-06
sba(iandrea.events
WeatherEvent
p72
(dp73
g4
I0
sg5
F3303.2794847240002
sg6
I0
sg7
Nsg8
I00
sg9
F3303.2794925889998
sg10
(dp74
g12
I0
sg13
I0
sg14
I0
sg15
I0
sg16
I0
sg17
I0
sg18
I0
sg19
I0
sg20
I1
sg21
I0
ssg22
g23
sg24
g25
sg26
I0
sg27
I0
sg28
Nsg29
F7.8649995884916279e-06
sba(iandrea.events
WeatherEvent
p75
(dp76
g4
I0
sg5
F3313.2809124109999
sg6
I0
sg7
Nsg8
I00
sg9
F3313.2809196449998
sg10
(dp77
g12
I0
sg13
I0
sg14
I0
sg15
I0
sg16
I0
sg17
I0
sg18
I0
sg19
I0
sg20
I1
sg21
I0
ssg22
g23
sg24
g25
sg26
I0
sg27
I0
sg28
Nsg29
F7.2339998951065354e-06
sba(iandrea.events
WeatherEvent
p78
(dp79
g4
I0
sg5
F3323.2818655440001
sg6
I0
sg7
Nsg8
I00
sg9
F3323.2818730570002
sg10
(dp80
g12
I0
sg13
I0
sg14
I0
sg15
I0
sg16
I0
sg17
I0
sg18
I0
sg19
I0
sg20
I1
sg21
I0
ssg22
g23
sg24
g25
sg26
I0
sg27
I0
sg28
Nsg29
F7.513000127801206e-06
sba(iandrea.events
WeatherEvent
p81
(dp82
g4
I0
sg5
F3333.2831694450001
sg6
I0
sg7
Nsg8
I00
sg9
F3333.2831745509998
sg10
(dp83
g12
I0
sg13
I0
sg14
I0
sg15
I0
sg16
I0
sg17
I0
sg18
I0
sg19
I0
sg20
I1
sg21
I0
ssg22
g23
sg24
g25
sg26
I0
sg27
I0
sg28
Nsg29
F5.1059996621916071e-06
sba(iandrea.events
WeatherEvent
p84
(dp85
g4
I0
sg5
F3343.2845035139999
sg6
I0
sg7
Nsg8
I00
sg9
F3343.284511204
sg10
(dp86
g12
I0
sg13
I0
sg14
I0
sg15
I0
sg16
I0
sg17
I0
sg18
I0
sg19
I0
sg20
I1
sg21
I0
ssg22
g23
sg24
g25
sg26
I0
sg27
I0
sg28
Nsg29
F7.6900000749446917e-06
sba(iandrea.events
WeatherEvent
p87
(dp88
g4
I0
sg5
F3353.2863795829999
sg6
I0
sg7
Nsg8
I00
sg9
F3353.2863867820001
sg10
(dp89
g12
I0
sg13
I0
sg14
I0
sg15
I0
sg16
I0
sg17
I0
sg18
I0
sg19
I0
sg20
I1
sg21
I0
ssg22
g23
sg24
g25
sg26
I0
sg27
I0
sg28
Nsg29
F7.1990002652455587e-06
sba.(lp1
(iandrea.events
WeatherEvent
p2
(dp3
S'src'
p4
I0
sS't_i'
p5
F3363.2870880730002
sS'level'
p6
I0
sS'res'
p7
NsS'inv'
p8
I00
sS't_f'
p9
F3363.287093204
sS'etc'
p10
(dp11
S'workers_idle'
p12
I0
sS'workers_busy'
p13
I0
sS'tasks_busy'
p14
I0
sS'MEMOUT'
p15
I0
sS'UNSAT'
p16
I0
sS'TIMEOUT'
p17
I0
sS'ERROR'
p18
I0
sS'tasks_done'
p19
I0
sS'tasks_idle'
p20
I1
sS'SAT'
p21
I0
ssS'gid'
p22
S'wrep'
p23
sS'eid'
p24
S'update'
p25
sS'timeout'
p26
I0
sS'max'
p27
I0
sS'tid'
p28
NsS'dur'
p29
F5.1309998525539413e-06
sba(iandrea.events
WeatherEvent
p30
(dp31
g4
I0
sg5
F3373.2873859790002
sg6
I0
sg7
Nsg8
I00
sg9
F3373.2873929540001
sg10
(dp32
g12
I0
sg13
I0
sg14
I0
sg15
I0
sg16
I0
sg17
I0
sg18
I0
sg19
I0
sg20
I1
sg21
I0
ssg22
g23
sg24
g25
sg26
I0
sg27
I0
sg28
Nsg29
F6.9749999056512024e-06
sba(iandrea.events
WeatherEvent
p33
(dp34
g4
I0
sg5
F3383.2880171460001
sg6
I0
sg7
Nsg8
I00
sg9
F3383.2880245790002
sg10
(dp35
g12
I0
sg13
I0
sg14
I0
sg15
I0
sg16
I0
sg17
I0
sg18
I0
sg19
I0
sg20
I1
sg21
I0
ssg22
g23
sg24
g25
sg26
I0
sg27
I0
sg28
Nsg29
F7.4330000643385574e-06
sba(iandrea.events
WeatherEvent
p36
(dp37
g4
I0
sg5
F3393.2897561539999
sg6
I0
sg7
Nsg8
I00
sg9
F3393.2897615530001
sg10
(dp38
g12
I0
sg13
I0
sg14
I0
sg15
I0
sg16
I0
sg17
I0
sg18
I0
sg19
I0
sg20
I1
sg21
I0
ssg22
g23
sg24
g25
sg26
I0
sg27
I0
sg28
Nsg29
F5.3990002015780192e-06
sba(iandrea.events
WeatherEvent
p39
(dp40
g4
I0
sg5
F3403.2901254909998
sg6
I0
sg7
Nsg8
I00
sg9
F3403.2901309280001
sg10
(dp41
g12
I0
sg13
I0
sg14
I0
sg15
I0
sg16
I0
sg17
I0
sg18
I0
sg19
I0
sg20
I1
sg21
I0
ssg22
g23
sg24
g25
sg26
I0
sg27
I0
sg28
Nsg29
F5.4370002544601448e-06
sba(iandrea.events
WeatherEvent
p42
(dp43
g4
I0
sg5
F3413.2906944800002
sg6
I0
sg7
Nsg8
I00
sg9
F3413.2907020719999
sg10
(dp44
g12
I0
sg13
I0
sg14
I0
sg15
I0
sg16
I0
sg17
I0
sg18
I0
sg19
I0
sg20
I1
sg21
I0
ssg22
g23
sg24
g25
sg26
I0
sg27
I0
sg28
Nsg29
F7.5919997470919043e-06
sba(iandrea.events
WeatherEvent
p45
(dp46
g4
I0
sg5
F3423.2907032540002
sg6
I0
sg7
Nsg8
I00
sg9
F3423.2907119490001
sg10
(dp47
g12
I0
sg13
I0
sg14
I0
sg15
I0
sg16
I0
sg17
I0
sg18
I0
sg19
I0
sg20
I1
sg21
I0
ssg22
g23
sg24
g25
sg26
I0
sg27
I0
sg28
Nsg29
F8.6949999058560934e-06
sba(iandrea.events
WeatherEvent
p48
(dp49
g4
I0
sg5
F3433.2911594729999
sg6
I0
sg7
Nsg8
I00
sg9
F3433.2911677840002
sg10
(dp50
g12
I0
sg13
I0
sg14
I0
sg15
I0
sg16
I0
sg17
I0
sg18
I0
sg19
I0
sg20
I1
sg21
I0
ssg22
g23
sg24
g25
sg26
I0
sg27
I0
sg28
Nsg29
F8.3110003288311418e-06
sba(iandrea.events
WeatherEvent
p51
(dp52
g4
I0
sg5
F3443.2931277520001
sg6
I0
sg7
Nsg8
I00
sg9
F3443.2931354130001
sg10
(dp53
g12
I0
sg13
I0
sg14
I0
sg15
I0
sg16
I0
sg17
I0
sg18
I0
sg19
I0
sg20
I1
sg21
I0
ssg22
g23
sg24
g25
sg26
I0
sg27
I0
sg28
Nsg29
F7.6609999268839601e-06
sba(iandrea.events
WeatherEvent
p54
(dp55
g4
I0
sg5
F3453.29443601
sg6
I0
sg7
Nsg8
I00
sg9
F3453.294441776
sg10
(dp56
g12
I0
sg13
I0
sg14
I0
sg15
I0
sg16
I0
sg17
I0
sg18
I0
sg19
I0
sg20
I1
sg21
I0
ssg22
g23
sg24
g25
sg26
I0
sg27
I0
sg28
Nsg29
F5.7659999583847821e-06
sba(iandrea.events
WeatherEvent
p57
(dp58
g4
I0
sg5
F3463.2962727230001
sg6
I0
sg7
Nsg8
I00
sg9
F3463.2962775219999
sg10
(dp59
g12
I0
sg13
I0
sg14
I0
sg15
I0
sg16
I0
sg17
I0
sg18
I0
sg19
I0
sg20
I1
sg21
I0
ssg22
g23
sg24
g25
sg26
I0
sg27
I0
sg28
Nsg29
F4.7989997256081551e-06
sba(iandrea.events
WeatherEvent
p60
(dp61
g4
I0
sg5
F3473.2976821130001
sg6
I0
sg7
Nsg8
I00
sg9
F3473.2976903059998
sg10
(dp62
g12
I0
sg13
I0
sg14
I0
sg15
I0
sg16
I0
sg17
I0
sg18
I0
sg19
I0
sg20
I1
sg21
I0
ssg22
g23
sg24
g25
sg26
I0
sg27
I0
sg28
Nsg29
F8.1929997577390168e-06
sba(iandrea.events
WeatherEvent
p63
(dp64
g4
I0
sg5
F3483.2977546410002
sg6
I0
sg7
Nsg8
I00
sg9
F3483.297759559
sg10
(dp65
g12
I0
sg13
I0
sg14
I0
sg15
I0
sg16
I0
sg17
I0
sg18
I0
sg19
I0
sg20
I1
sg21
I0
ssg22
g23
sg24
g25
sg26
I0
sg27
I0
sg28
Nsg29
F4.9179998313775286e-06
sba(iandrea.events
WeatherEvent
p66
(dp67
g4
I0
sg5
F3493.2997194610002
sg6
I0
sg7
Nsg8
I00
sg9
F3493.299725117
sg10
(dp68
g12
I0
sg13
I0
sg14
I0
sg15
I0
sg16
I0
sg17
I0
sg18
I0
sg19
I0
sg20
I1
sg21
I0
ssg22
g23
sg24
g25
sg26
I0
sg27
I0
sg28
Nsg29
F5.6559997574368026e-06
sba(iandrea.events
WeatherEvent
p69
(dp70
g4
I0
sg5
F3503.3015746579999
sg6
I0
sg7
Nsg8
I00
sg9
F3503.3015794100002
sg10
(dp71
g12
I0
sg13
I0
sg14
I0
sg15
I0
sg16
I0
sg17
I0
sg18
I0
sg19
I0
sg20
I1
sg21
I0
ssg22
g23
sg24
g25
sg26
I0
sg27
I0
sg28
Nsg29
F4.7520002226519864e-06
sba(iandrea.events
WeatherEvent
p72
(dp73
g4
I0
sg5
F3513.301751689
sg6
I0
sg7
Nsg8
I00
sg9
F3513.3017593220002
sg10
(dp74
g12
I0
sg13
I0
sg14
I0
sg15
I0
sg16
I0
sg17
I0
sg18
I0
sg19
I0
sg20
I1
sg21
I0
ssg22
g23
sg24
g25
sg26
I0
sg27
I0
sg28
Nsg29
F7.6330002229951788e-06
sba(iandrea.events
WeatherEvent
p75
(dp76
g4
I0
sg5
F3523.3018764180001
sg6
I0
sg7
Nsg8
I00
sg9
F3523.3018813019999
sg10
(dp77
g12
I0
sg13
I0
sg14
I0
sg15
I0
sg16
I0
sg17
I0
sg18
I0
sg19
I0
sg20
I1
sg21
I0
ssg22
g23
sg24
g25
sg26
I0
sg27
I0
sg28
Nsg29
F4.8839997361938003e-06
sba(iandrea.events
WeatherEvent
p78
(dp79
g4
I0
sg5
F3533.3027136589999
sg6
I0
sg7
Nsg8
I00
sg9
F3533.302718939
sg10
(dp80
g12
I0
sg13
I0
sg14
I0
sg15
I0
sg16
I0
sg17
I0
sg18
I0
sg19
I0
sg20
I1
sg21
I0
ssg22
g23
sg24
g25
sg26
I0
sg27
I0
sg28
Nsg29
F5.2800000958086457e-06
sba(iandrea.events
WeatherEvent
p81
(dp82
g4
I0
sg5
F3543.304574024
sg6
I0
sg7
Nsg8
I00
sg9
F3543.3045816859999
sg10
(dp83
g12
I0
sg13
I0
sg14
I0
sg15
I0
sg16
I0
sg17
I0
sg18
I0
sg19
I0
sg20
I1
sg21
I0
ssg22
g23
sg24
g25
sg26
I0
sg27
I0
sg28
Nsg29
F7.6619999163085595e-06
sba(iandrea.events
WeatherEvent
p84
(dp85
g4
I0
sg5
F3553.305446721
sg6
I0
sg7
Nsg8
I00
sg9
F3553.3054533979998
sg10
(dp86
g12
I0
sg13
I0
sg14
I0
sg15
I0
sg16
I0
sg17
I0
sg18
I0
sg19
I0
sg20
I1
sg21
I0
ssg22
g23
sg24
g25
sg26
I0
sg27
I0
sg28
Nsg29
F6.6769998738891445e-06
sba(iandrea.events
WeatherEvent
p87
(dp88
g4
I0
sg5
F3563.3067847389998
sg6
I0
sg7
Nsg8
I00
sg9
F3563.3067894420001
sg10
(dp89
g12
I0
sg13
I0
sg14
I0
sg15
I0
sg16
I0
sg17
I0
sg18
I0
sg19
I0
sg20
I1
sg21
I0
ssg22
g23
sg24
g25
sg26
I0
sg27
I0
sg28
Nsg29
F4.7030002860992681e-06
sba.(lp1
(iandrea.events
WeatherEvent
p2
(dp3
S'src'
p4
I0
sS't_i'
p5
F3573.3068763199999
sS'level'
p6
I0
sS'res'
p7
NsS'inv'
p8
I00
sS't_f'
p9
F3573.3068812840002
sS'etc'
p10
(dp11
S'workers_idle'
p12
I0
sS'workers_busy'
p13
I0
sS'tasks_busy'
p14
I0
sS'MEMOUT'
p15
I0
sS'UNSAT'
p16
I0
sS'TIMEOUT'
p17
I0
sS'ERROR'
p18
I0
sS'tasks_done'
p19
I0
sS'tasks_idle'
p20
I1
sS'SAT'
p21
I0
ssS'gid'
p22
S'wrep'
p23
sS'eid'
p24
S'update'
p25
sS'timeout'
p26
I0
sS'max'
p27
I0
sS'tid'
p28
NsS'dur'
p29
F4.9640002544037998e-06
sba(iandrea.events
WeatherEvent
p30
(dp31
g4
I0
sg5
F3583.3078705180001
sg6
I0
sg7
Nsg8
I00
sg9
F3583.3078754049998
sg10
(dp32
g12
I0
sg13
I0
sg14
I0
sg15
I0
sg16
I0
sg17
I0
sg18
I0
sg19
I0
sg20
I1
sg21
I0
ssg22
g23
sg24
g25
sg26
I0
sg27
I0
sg28
Nsg29
F4.8869997044675983e-06
sba(iandrea.events
WeatherEvent
p33
(dp34
g4
I0
sg5
F3593.308833173
sg6
I0
sg7
Nsg8
I00
sg9
F3593.3088383999998
sg10
(dp35
g12
I0
sg13
I0
sg14
I0
sg15
I0
sg16
I0
sg17
I0
sg18
I0
sg19
I0
sg20
I1
sg21
I0
ssg22
g23
sg24
g25
sg26
I0
sg27
I0
sg28
Nsg29
F5.2269997468101792e-06
sba(iandrea.events
WeatherEvent
p36
(dp37
g4
I0
sg5
F3603.310900382
sg6
I0
sg7
Nsg8
I00
sg9
F3603.3109057020001
sg10
(dp38
g12
I0
sg13
I0
sg14
I0
sg15
I0
sg16
I0
sg17
I0
sg18
I0
sg19
I0
sg20
I1
sg21
I0
ssg22
g23
sg24
g25
sg26
I0
sg27
I0
sg28
Nsg29
F5.32000012753997e-06
sba(iandrea.events
WeatherEvent
p39
(dp40
g4
I0
sg5
F3613.310949621
sg6
I0
sg7
Nsg8
I00
sg9
F3613.3109571720001
sg10
(dp41
g12
I0
sg13
I0
sg14
I0
sg15
I0
sg16
I0
sg17
I0
sg18
I0
sg19
I0
sg20
I1
sg21
I0
ssg22
g23
sg24
g25
sg26
I0
sg27
I0
sg28
Nsg29
F7.5510001806833316e-06
sba(iandrea.events
WeatherEvent
p42
(dp43
g4
I0
sg5
F3623.3116711100001
sg6
I0
sg7
Nsg8
I00
sg9
F3623.3116787409999
sg10
(dp44
g12
I0
sg13
I0
sg14
I0
sg15
I0
sg16
I0
sg17
I0
sg18
I0
sg19
I0
sg20
I1
sg21
I0
ssg22
g23
sg24
g25
sg26
I0
sg27
I0
sg28
Nsg29
F7.6309997893986292e-06
sba(iandrea.events
WeatherEvent
p45
(dp46
g4
I0
sg5
F3633.3128630669999
sg6
I0
sg7
Nsg8
I00
sg9
F3633.3128687510002
sg10
(dp47
g12
I0
sg13
I0
sg14
I0
sg15
I0
sg16
I0
sg17
I0
sg18
I0
sg19
I0
sg20
I1
sg21
I0
ssg22
g23
sg24
g25
sg26
I0
sg27
I0
sg28
Nsg29
F5.6840003708202858e-06
sba(iandrea.events
WeatherEvent
p48
(dp49
g4
I0
sg5
F3643.3147889850002
sg6
I0
sg7
Nsg8
I00
sg9
F3643.3147937889999
sg10
(dp50
g12
I0
sg13
I0
sg14
I0
sg15
I0
sg16
I0
sg17
I0
sg18
I0
sg19
I0
sg20
I1
sg21
I0
ssg22
g23
sg24
g25
sg26
I0
sg27
I0
sg28
Nsg29
F4.8039996727311518e-06
sba(iandrea.events
WeatherEvent
p51
(dp52
g4
I0
sg5
F3653.3164997680001
sg6
I0
sg7
Nsg8
I00
sg9
F3653.3165050590001
sg10
(dp53
g12
I0
sg13
I0
sg14
I0
sg15
I0
sg16
I0
sg17
I0
sg18
I0
sg19
I0
sg20
I1
sg21
I0
ssg22
g23
sg24
g25
sg26
I0
sg27
I0
sg28
Nsg29
F5.2909999794792384e-06
sba(iandrea.events
WeatherEvent
p54
(dp55
g4
I0
sg5
F3663.3182260570002
sg6
I0
sg7
Nsg8
I00
sg9
F3663.3182317169999
sg10
(dp56
g12
I0
sg13
I0
sg14
I0
sg15
I0
sg16
I0
sg17
I0
sg18
I0
sg19
I0
sg20
I1
sg21
I0
ssg22
g23
sg24
g25
sg26
I0
sg27
I0
sg28
Nsg29
F5.6599997151351999e-06
sba(iandrea.events
WeatherEvent
p57
(dp58
g4
I0
sg5
F3673.3202784360001
sg6
I0
sg7
Nsg8
I00
sg9
F3673.3202833189998
sg10
(dp59
g12
I0
sg13
I0
sg14
I0
sg15
I0
sg16
I0
sg17
I0
sg18
I0
sg19
I0
sg20
I1
sg21
I0
ssg22
g23
sg24
g25
sg26
I0
sg27
I0
sg28
Nsg29
F4.882999746769201e-06
sba(iandrea.events
WeatherEvent
p60
(dp61
g4
I0
sg5
F3683.3204455609998
sg6
I0
sg7
Nsg8
I00
sg9
F3683.3204535680002
sg10
(dp62
g12
I0
sg13
I0
sg14
I0
sg15
I0
sg16
I0
sg17
I0
sg18
I0
sg19
I0
sg20
I1
sg21
I0
ssg22
g23
sg24
g25
sg26
I0
sg27
I0
sg28
Nsg29
F8.0070003605214879e-06
sba(iandrea.events
WeatherEvent
p63
(dp64
g4
I0
sg5
F3693.3223125479999
sg6
I0
sg7
Nsg8
I00
sg9
F3693.3223174330001
sg10
(dp65
g12
I0
sg13
I0
sg14
I0
sg15
I0
sg16
I0
sg17
I0
sg18
I0
sg19
I0
sg20
I1
sg21
I0
ssg22
g23
sg24
g25
sg26
I0
sg27
I0
sg28
Nsg29
F4.8850001803657506e-06
sba(iandrea.events
WeatherEvent
p66
(dp67
g4
I0
sg5
F3703.3234892969999
sg6
I0
sg7
Nsg8
I00
sg9
F3703.323494152
sg10
(dp68
g12
I0
sg13
I0
sg14
I0
sg15
I0
sg16
I0
sg17
I0
sg18
I0
sg19
I0
sg20
I1
sg21
I0
ssg22
g23
sg24
g25
sg26
I0
sg27
I0
sg28
Nsg29
F4.8550000428804196e-06
sba(iandrea.events
WeatherEvent
p69
(dp70
g4
I0
sg5
F3713.3245735669998
sg6
I0
sg7
Nsg8
I00
sg9
F3713.3245809680002
sg10
(dp71
g12
I0
sg13
I0
sg14
I0
sg15
I0
sg16
I0
sg17
I0
sg18
I0
sg19
I0
sg20
I1
sg21
I0
ssg22
g23
sg24
g25
sg26
I0
sg27
I0
sg28
Nsg29
F7.4010004027513787e-06
sba(iandrea.events
WeatherEvent
p72
(dp73
g4
I0
sg5
F3723.3248706260001
sg6
I0
sg7
Nsg8
I00
sg9
F3723.3248759859998
sg10
(dp74
g12
I0
sg13
I0
sg14
I0
sg15
I0
sg16
I0
sg17
I0
sg18
I0
sg19
I0
sg20
I1
sg21
I0
ssg22
g23
sg24
g25
sg26
I0
sg27
I0
sg28
Nsg29
F5.3599997045239434e-06
sba(iandrea.events
WeatherEvent
p75
(dp76
g4
I0
sg5
F3733.3265636010001
sg6
I0
sg7
Nsg8
I00
sg9
F3733.3265706400002
sg10
(dp77
g12
I0
sg13
I0
sg14
I0
sg15
I0
sg16
I0
sg17
I0
sg18
I0
sg19
I0
sg20
I1
sg21
I0
ssg22
g23
sg24
g25
sg26
I0
sg27
I0
sg28
Nsg29
F7.0390001383202616e-06
sba(iandrea.events
WeatherEvent
p78
(dp79
g4
I0
sg5
F3743.3277962030002
sg6
I0
sg7
Nsg8
I00
sg9
F3743.3278012420001
sg10
(dp80
g12
I0
sg13
I0
sg14
I0
sg15
I0
sg16
I0
sg17
I0
sg18
I0
sg19
I0
sg20
I1
sg21
I0
ssg22
g23
sg24
g25
sg26
I0
sg27
I0
sg28
Nsg29
F5.0389999159961008e-06
sba(iandrea.events
WeatherEvent
p81
(dp82
g4
I0
sg5
F3753.3286261570001
sg6
I0
sg7
Nsg8
I00
sg9
F3753.3286311649999
sg10
(dp83
g12
I0
sg13
I0
sg14
I0
sg15
I0
sg16
I0
sg17
I0
sg18
I0
sg19
I0
sg20
I1
sg21
I0
ssg22
g23
sg24
g25
sg26
I0
sg27
I0
sg28
Nsg29
F5.0079997890861705e-06
sba(iandrea.events
WeatherEvent
p84
(dp85
g4
I0
sg5
F3763.328638724
sg6
I0
sg7
Nsg8
I00
sg9
F3763.3286438230002
sg10
(dp86
g12
I0
sg13
I0
sg14
I0
sg15
I0
sg16
I0
sg17
I0
sg18
I0
sg19
I0
sg20
I1
sg21
I0
ssg22
g23
sg24
g25
sg26
I0
sg27
I0
sg28
Nsg29
F5.0990001909667626e-06
sba(iandrea.events
WeatherEvent
p87
(dp88
g4
I0
sg5
F3773.3301402269999
sg6
I0
sg7
Nsg8
I00
sg9
F3773.3301453519998
sg10
(dp89
g12
I0
sg13
I0
sg14
I0
sg15
I0
sg16
I0
sg17
I0
sg18
I0
sg19
I0
sg20
I1
sg21
I0
ssg22
g23
sg24
g25
sg26
I0
sg27
I0
sg28
Nsg29
F5.1249999160063453e-06
sba.