(lp1
(iandrea.events
WeatherEvent
p2
(dp3
S'src'
p4
I0
sS't_i'
p5
F0.36912202835083008
sS'level'
p6
I0
sS'res'
p7
NsS'inv'
p8
I00
sS't_f'
p9
F0.36913061141967773
sS'etc'
p10
(dp11
S'workers_idle'
p12
I0
sS'workers_busy'
p13
I0
sS'tasks_busy'
p14
I0
sS'MEMOUT'
p15
I0
sS'UNSAT'
p16
I0
sS'TIMEOUT'
p17
I0
sS'ERROR'
p18
I0
sS'tasks_done'
p19
I0
sS'tasks_idle'
p20
I0
sS'SAT'
p21
I0
ssS'gid'
p22
S'wrep'
p23
sS'eid'
p24
S'preinit'
p25
sS'timeout'
p26
I0
sS'max'
p27
I0
sS'tid'
p28
NsS'dur'
p29
F8.58306884765625e-06
sba(iandrea.events
Event
p30
(dp31
g4
I0
sg5
F0.36933255195617676
sg6
I0
sg7
S'1 tasks'
p32
sg8
I00
sg9
F119.30383253097534
sg10
(dp33
sg22
S'main'
p34
sg24
S'queue.create'
p35
sg26
I0
sg27
I0
sg28
Nsg29
F118.93449997901917
sba(iandrea.events
WeatherEvent
p36
(dp37
g4
I0
sg5
F119.3045802116394
sg6
I0
sg7
Nsg8
I00
sg9
F119.30459046363831
sg10
(dp38
g12
I0
sg13
I0
sg14
I0
sg15
I0
sg16
I0
sg17
I0
sg18
I0
sg19
I0
sg20
I1
sg21
I0
ssg22
g23
sg24
S'initial'
p39
sg26
I0
sg27
I0
sg28
Nsg29
F1.0251998901367188e-05
sba(iandrea.events
WeatherEvent
p40
(dp41
g4
I0
sg5
F129.30531167984009
sg6
I0
sg7
Nsg8
I00
sg9
F129.30532050132751
sg10
(dp42
g12
I0
sg13
I7
sg14
I7
sg15
I0
sg16
I0
sg17
I0
sg18
I0
sg19
I0
sg20
I178
sg21
I0
ssg22
g23
sg24
S'update'
p43
sg26
I0
sg27
I0
sg28
Nsg29
F8.8214874267578125e-06
sba(iandrea.events
WeatherEvent
p44
(dp45
g4
I0
sg5
F139.30559587478638
sg6
I0
sg7
Nsg8
I00
sg9
F139.30560255050659
sg10
(dp46
g12
I0
sg13
I7
sg14
I7
sg15
I0
sg16
I0
sg17
I0
sg18
I0
sg19
I0
sg20
I178
sg21
I0
ssg22
g23
sg24
g43
sg26
I0
sg27
I0
sg28
Nsg29
F6.67572021484375e-06
sba(iandrea.events
WeatherEvent
p47
(dp48
g4
I0
sg5
F149.30621099472046
sg6
I0
sg7
Nsg8
I00
sg9
F149.30621767044067
sg10
(dp49
g12
I0
sg13
I7
sg14
I7
sg15
I0
sg16
I0
sg17
I0
sg18
I0
sg19
I0
sg20
I178
sg21
I0
ssg22
g23
sg24
g43
sg26
I0
sg27
I0
sg28
Nsg29
F6.67572021484375e-06
sba(iandrea.events
WeatherEvent
p50
(dp51
g4
I0
sg5
F159.30759453773499
sg6
I0
sg7
Nsg8
I00
sg9
F159.30760097503662
sg10
(dp52
g12
I0
sg13
I7
sg14
I7
sg15
I0
sg16
I0
sg17
I0
sg18
I0
sg19
I0
sg20
I178
sg21
I0
ssg22
g23
sg24
g43
sg26
I0
sg27
I0
sg28
Nsg29
F6.4373016357421875e-06
sba(iandrea.events
WeatherEvent
p53
(dp54
g4
I0
sg5
F169.30782961845398
sg6
I0
sg7
Nsg8
I00
sg9
F169.30783772468567
sg10
(dp55
g12
I0
sg13
I7
sg14
I7
sg15
I0
sg16
I0
sg17
I0
sg18
I0
sg19
I0
sg20
I178
sg21
I0
ssg22
g23
sg24
g43
sg26
I0
sg27
I0
sg28
Nsg29
F8.106231689453125e-06
sba(iandrea.events
WeatherEvent
p56
(dp57
g4
I0
sg5
F179.3093695640564
sg6
I0
sg7
Nsg8
I00
sg9
F179.30937600135803
sg10
(dp58
g12
I0
sg13
I7
sg14
I7
sg15
I0
sg16
I0
sg17
I0
sg18
I0
sg19
I0
sg20
I178
sg21
I0
ssg22
g23
sg24
g43
sg26
I0
sg27
I0
sg28
Nsg29
F6.4373016357421875e-06
sba(iandrea.events
WeatherEvent
p59
(dp60
g4
I0
sg5
F189.30993962287903
sg6
I0
sg7
Nsg8
I00
sg9
F189.30994606018066
sg10
(dp61
g12
I0
sg13
I7
sg14
I7
sg15
I0
sg16
I0
sg17
I0
sg18
I0
sg19
I0
sg20
I178
sg21
I0
ssg22
g23
sg24
g43
sg26
I0
sg27
I0
sg28
Nsg29
F6.4373016357421875e-06
sba(iandrea.events
WeatherEvent
p62
(dp63
g4
I0
sg5
F199.31136250495911
sg6
I0
sg7
Nsg8
I00
sg9
F199.31136894226074
sg10
(dp64
g12
I0
sg13
I7
sg14
I7
sg15
I0
sg16
I0
sg17
I0
sg18
I0
sg19
I0
sg20
I178
sg21
I0
ssg22
g23
sg24
g43
sg26
I0
sg27
I0
sg28
Nsg29
F6.4373016357421875e-06
sba(iandrea.events
WeatherEvent
p65
(dp66
g4
I0
sg5
F209.31249451637268
sg6
I0
sg7
Nsg8
I00
sg9
F209.31250095367432
sg10
(dp67
g12
I0
sg13
I7
sg14
I7
sg15
I0
sg16
I0
sg17
I0
sg18
I0
sg19
I0
sg20
I178
sg21
I0
ssg22
g23
sg24
g43
sg26
I0
sg27
I0
sg28
Nsg29
F6.4373016357421875e-06
sba(iandrea.events
WeatherEvent
p68
(dp69
g4
I0
sg5
F219.31335115432739
sg6
I0
sg7
Nsg8
I00
sg9
F219.31335735321045
sg10
(dp70
g12
I0
sg13
I7
sg14
I7
sg15
I0
sg16
I0
sg17
I0
sg18
I0
sg19
I0
sg20
I178
sg21
I0
ssg22
g23
sg24
g43
sg26
I0
sg27
I0
sg28
Nsg29
F6.198883056640625e-06
sba(iandrea.events
WeatherEvent
p71
(dp72
g4
I0
sg5
F229.31458330154419
sg6
I0
sg7
Nsg8
I00
sg9
F229.31458973884583
sg10
(dp73
g12
I0
sg13
I7
sg14
I7
sg15
I0
sg16
I0
sg17
I0
sg18
I0
sg19
I0
sg20
I178
sg21
I0
ssg22
g23
sg24
g43
sg26
I0
sg27
I0
sg28
Nsg29
F6.4373016357421875e-06
sba(iandrea.events
WeatherEvent
p74
(dp75
g4
I0
sg5
F239.31600522994995
sg6
I0
sg7
Nsg8
I00
sg9
F239.31601166725159
sg10
(dp76
g12
I0
sg13
I7
sg14
I7
sg15
I0
sg16
I0
sg17
I0
sg18
I0
sg19
I0
sg20
I178
sg21
I0
ssg22
g23
sg24
g43
sg26
I0
sg27
I0
sg28
Nsg29
F6.4373016357421875e-06
sba(iandrea.events
WeatherEvent
p77
(dp78
g4
I0
sg5
F249.31707715988159
sg6
I0
sg7
Nsg8
I00
sg9
F249.31708383560181
sg10
(dp79
g12
I0
sg13
I7
sg14
I7
sg15
I0
sg16
I0
sg17
I0
sg18
I0
sg19
I0
sg20
I178
sg21
I0
ssg22
g23
sg24
g43
sg26
I0
sg27
I0
sg28
Nsg29
F6.67572021484375e-06
sba(iandrea.events
WeatherEvent
p80
(dp81
g4
I0
sg5
F259.31877374649048
sg6
I0
sg7
Nsg8
I00
sg9
F259.31878018379211
sg10
(dp82
g12
I0
sg13
I7
sg14
I7
sg15
I0
sg16
I0
sg17
I0
sg18
I0
sg19
I0
sg20
I178
sg21
I0
ssg22
g23
sg24
g43
sg26
I0
sg27
I0
sg28
Nsg29
F6.4373016357421875e-06
sba(iandrea.events
WeatherEvent
p83
(dp84
g4
I0
sg5
F269.32072472572327
sg6
I0
sg7
Nsg8
I00
sg9
F269.3207311630249
sg10
(dp85
g12
I0
sg13
I7
sg14
I7
sg15
I0
sg16
I0
sg17
I0
sg18
I0
sg19
I0
sg20
I178
sg21
I0
ssg22
g23
sg24
g43
sg26
I0
sg27
I0
sg28
Nsg29
F6.4373016357421875e-06
sba(iandrea.events
WeatherEvent
p86
(dp87
g4
I0
sg5
F279.32235360145569
sg6
I0
sg7
Nsg8
I00
sg9
F279.3223602771759
sg10
(dp88
g12
I0
sg13
I7
sg14
I7
sg15
I0
sg16
I0
sg17
I0
sg18
I0
sg19
I0
sg20
I178
sg21
I0
ssg22
g23
sg24
g43
sg26
I0
sg27
I0
sg28
Nsg29
F6.67572021484375e-06
sba(iandrea.events
WeatherEvent
p89
(dp90
g4
I0
sg5
F289.32349848747253
sg6
I0
sg7
Nsg8
I00
sg9
F289.32350444793701
sg10
(dp91
g12
I0
sg13
I7
sg14
I7
sg15
I0
sg16
I0
sg17
I0
sg18
I0
sg19
I0
sg20
I178
sg21
I0
ssg22
g23
sg24
g43
sg26
I0
sg27
I0
sg28
Nsg29
F5.9604644775390625e-06
sba(iandrea.events
WeatherEvent
p92
(dp93
g4
I0
sg5
F299.32358527183533
sg6
I0
sg7
Nsg8
I00
sg9
F299.32359147071838
sg10
(dp94
g12
I0
sg13
I7
sg14
I7
sg15
I0
sg16
I0
sg17
I0
sg18
I0
sg19
I0
sg20
I178
sg21
I0
ssg22
g23
sg24
g43
sg26
I0
sg27
I0
sg28
Nsg29
F6.198883056640625e-06
sba.