(lp1
(iandrea.events
WeatherEvent
p2
(dp3
S'src'
p4
I0
sS't_i'
p5
F0.37315583229064941
sS'level'
p6
I0
sS'res'
p7
NsS'inv'
p8
I00
sS't_f'
p9
F0.37317347526550293
sS'etc'
p10
(dp11
S'workers_idle'
p12
I0
sS'workers_busy'
p13
I0
sS'tasks_busy'
p14
I0
sS'MEMOUT'
p15
I0
sS'UNSAT'
p16
I0
sS'TIMEOUT'
p17
I0
sS'ERROR'
p18
I0
sS'tasks_done'
p19
I0
sS'tasks_idle'
p20
I0
sS'SAT'
p21
I0
ssS'gid'
p22
S'wrep'
p23
sS'eid'
p24
S'preinit'
p25
sS'timeout'
p26
I0
sS'max'
p27
I0
sS'tid'
p28
NsS'dur'
p29
F1.7642974853515625e-05
sba(iandrea.events
Event
p30
(dp31
g4
I0
sg5
F0.37331080436706543
sg6
I0
sg7
S'1 tasks'
p32
sg8
I00
sg9
F101.04146194458008
sg10
(dp33
sg22
S'main'
p34
sg24
S'queue.create'
p35
sg26
I0
sg27
I0
sg28
Nsg29
F100.66815114021301
sba(iandrea.events
WeatherEvent
p36
(dp37
g4
I0
sg5
F101.04185843467712
sg6
I0
sg7
Nsg8
I00
sg9
F101.04186511039734
sg10
(dp38
g12
I0
sg13
I0
sg14
I0
sg15
I0
sg16
I0
sg17
I0
sg18
I0
sg19
I0
sg20
I1
sg21
I0
ssg22
g23
sg24
S'initial'
p39
sg26
I0
sg27
I0
sg28
Nsg29
F6.67572021484375e-06
sba(iandrea.events
WeatherEvent
p40
(dp41
g4
I0
sg5
F111.0430965423584
sg6
I0
sg7
Nsg8
I00
sg9
F111.04310321807861
sg10
(dp42
g12
I0
sg13
I7
sg14
I7
sg15
I0
sg16
I0
sg17
I0
sg18
I0
sg19
I0
sg20
I46
sg21
I0
ssg22
g23
sg24
S'update'
p43
sg26
I0
sg27
I0
sg28
Nsg29
F6.67572021484375e-06
sba(iandrea.events
WeatherEvent
p44
(dp45
g4
I0
sg5
F121.04372501373291
sg6
I0
sg7
Nsg8
I00
sg9
F121.04373383522034
sg10
(dp46
g12
I0
sg13
I7
sg14
I7
sg15
I0
sg16
I0
sg17
I0
sg18
I0
sg19
I0
sg20
I46
sg21
I0
ssg22
g23
sg24
g43
sg26
I0
sg27
I0
sg28
Nsg29
F8.8214874267578125e-06
sba(iandrea.events
WeatherEvent
p47
(dp48
g4
I0
sg5
F131.04509043693542
sg6
I0
sg7
Nsg8
I00
sg9
F131.04509782791138
sg10
(dp49
g12
I0
sg13
I7
sg14
I7
sg15
I0
sg16
I0
sg17
I0
sg18
I0
sg19
I0
sg20
I46
sg21
I0
ssg22
g23
sg24
g43
sg26
I0
sg27
I0
sg28
Nsg29
F7.3909759521484375e-06
sba(iandrea.events
WeatherEvent
p50
(dp51
g4
I0
sg5
F141.04631352424622
sg6
I0
sg7
Nsg8
I00
sg9
F141.04631996154785
sg10
(dp52
g12
I0
sg13
I7
sg14
I7
sg15
I0
sg16
I0
sg17
I0
sg18
I0
sg19
I0
sg20
I46
sg21
I0
ssg22
g23
sg24
g43
sg26
I0
sg27
I0
sg28
Nsg29
F6.4373016357421875e-06
sba(iandrea.events
WeatherEvent
p53
(dp54
g4
I0
sg5
F151.04660439491272
sg6
I0
sg7
Nsg8
I00
sg9
F151.04661154747009
sg10
(dp55
g12
I0
sg13
I7
sg14
I7
sg15
I0
sg16
I0
sg17
I0
sg18
I0
sg19
I0
sg20
I46
sg21
I0
ssg22
g23
sg24
g43
sg26
I0
sg27
I0
sg28
Nsg29
F7.152557373046875e-06
sba(iandrea.events
WeatherEvent
p56
(dp57
g4
I0
sg5
F161.04786658287048
sg6
I0
sg7
Nsg8
I00
sg9
F161.04787302017212
sg10
(dp58
g12
I0
sg13
I7
sg14
I7
sg15
I0
sg16
I0
sg17
I0
sg18
I0
sg19
I0
sg20
I46
sg21
I0
ssg22
g23
sg24
g43
sg26
I0
sg27
I0
sg28
Nsg29
F6.4373016357421875e-06
sba(iandrea.events
WeatherEvent
p59
(dp60
g4
I0
sg5
F171.0497727394104
sg6
I0
sg7
Nsg8
I00
sg9
F171.04977917671204
sg10
(dp61
g12
I0
sg13
I7
sg14
I7
sg15
I0
sg16
I0
sg17
I0
sg18
I0
sg19
I0
sg20
I46
sg21
I0
ssg22
g23
sg24
g43
sg26
I0
sg27
I0
sg28
Nsg29
F6.4373016357421875e-06
sba(iandrea.events
WeatherEvent
p62
(dp63
g4
I0
sg5
F181.05071043968201
sg6
I0
sg7
Nsg8
I00
sg9
F181.0507173538208
sg10
(dp64
g12
I0
sg13
I7
sg14
I7
sg15
I0
sg16
I0
sg17
I0
sg18
I0
sg19
I0
sg20
I46
sg21
I0
ssg22
g23
sg24
g43
sg26
I0
sg27
I0
sg28
Nsg29
F6.9141387939453125e-06
sba(iandrea.events
WeatherEvent
p65
(dp66
g4
I0
sg5
F191.05271434783936
sg6
I0
sg7
Nsg8
I00
sg9
F191.05272102355957
sg10
(dp67
g12
I0
sg13
I7
sg14
I7
sg15
I0
sg16
I0
sg17
I0
sg18
I0
sg19
I0
sg20
I46
sg21
I0
ssg22
g23
sg24
g43
sg26
I0
sg27
I0
sg28
Nsg29
F6.67572021484375e-06
sba(iandrea.events
WeatherEvent
p68
(dp69
g4
I0
sg5
F201.05413269996643
sg6
I0
sg7
Nsg8
I00
sg9
F201.05413913726807
sg10
(dp70
g12
I0
sg13
I7
sg14
I7
sg15
I0
sg16
I0
sg17
I0
sg18
I0
sg19
I0
sg20
I46
sg21
I0
ssg22
g23
sg24
g43
sg26
I0
sg27
I0
sg28
Nsg29
F6.4373016357421875e-06
sba(iandrea.events
WeatherEvent
p71
(dp72
g4
I0
sg5
F211.05606412887573
sg6
I0
sg7
Nsg8
I00
sg9
F211.05607080459595
sg10
(dp73
g12
I0
sg13
I7
sg14
I7
sg15
I0
sg16
I0
sg17
I0
sg18
I0
sg19
I0
sg20
I46
sg21
I0
ssg22
g23
sg24
g43
sg26
I0
sg27
I0
sg28
Nsg29
F6.67572021484375e-06
sba(iandrea.events
WeatherEvent
p74
(dp75
g4
I0
sg5
F221.05780100822449
sg6
I0
sg7
Nsg8
I00
sg9
F221.0578076839447
sg10
(dp76
g12
I0
sg13
I7
sg14
I7
sg15
I0
sg16
I0
sg17
I0
sg18
I0
sg19
I0
sg20
I46
sg21
I0
ssg22
g23
sg24
g43
sg26
I0
sg27
I0
sg28
Nsg29
F6.67572021484375e-06
sba(iandrea.events
WeatherEvent
p77
(dp78
g4
I0
sg5
F231.05884599685669
sg6
I0
sg7
Nsg8
I00
sg9
F231.05885243415833
sg10
(dp79
g12
I0
sg13
I7
sg14
I7
sg15
I0
sg16
I0
sg17
I0
sg18
I0
sg19
I0
sg20
I46
sg21
I0
ssg22
g23
sg24
g43
sg26
I0
sg27
I0
sg28
Nsg29
F6.4373016357421875e-06
sba(iandrea.events
WeatherEvent
p80
(dp81
g4
I0
sg5
F241.05942797660828
sg6
I0
sg7
Nsg8
I00
sg9
F241.05943489074707
sg10
(dp82
g12
I0
sg13
I7
sg14
I7
sg15
I0
sg16
I0
sg17
I0
sg18
I0
sg19
I0
sg20
I46
sg21
I0
ssg22
g23
sg24
g43
sg26
I0
sg27
I0
sg28
Nsg29
F6.9141387939453125e-06
sba(iandrea.events
WeatherEvent
p83
(dp84
g4
I0
sg5
F251.06135535240173
sg6
I0
sg7
Nsg8
I00
sg9
F251.06136202812195
sg10
(dp85
g12
I0
sg13
I7
sg14
I7
sg15
I0
sg16
I0
sg17
I0
sg18
I0
sg19
I0
sg20
I46
sg21
I0
ssg22
g23
sg24
g43
sg26
I0
sg27
I0
sg28
Nsg29
F6.67572021484375e-06
sba(iandrea.events
WeatherEvent
p86
(dp87
g4
I0
sg5
F261.06181502342224
sg6
I0
sg7
Nsg8
I00
sg9
F261.06182169914246
sg10
(dp88
g12
I0
sg13
I7
sg14
I7
sg15
I0
sg16
I0
sg17
I0
sg18
I0
sg19
I0
sg20
I46
sg21
I0
ssg22
g23
sg24
g43
sg26
I0
sg27
I0
sg28
Nsg29
F6.67572021484375e-06
sba(iandrea.events
WeatherEvent
p89
(dp90
g4
I0
sg5
F271.06201219558716
sg6
I0
sg7
Nsg8
I00
sg9
F271.06201863288879
sg10
(dp91
g12
I0
sg13
I7
sg14
I7
sg15
I0
sg16
I0
sg17
I0
sg18
I0
sg19
I0
sg20
I46
sg21
I0
ssg22
g23
sg24
g43
sg26
I0
sg27
I0
sg28
Nsg29
F6.4373016357421875e-06
sba(iandrea.events
WeatherEvent
p92
(dp93
g4
I0
sg5
F281.06342267990112
sg6
I0
sg7
Nsg8
I00
sg9
F281.06342911720276
sg10
(dp94
g12
I0
sg13
I7
sg14
I7
sg15
I0
sg16
I0
sg17
I0
sg18
I0
sg19
I0
sg20
I46
sg21
I0
ssg22
g23
sg24
g43
sg26
I0
sg27
I0
sg28
Nsg29
F6.4373016357421875e-06
sba.