(lp1
(iandrea.events
WeatherEvent
p2
(dp3
S'src'
p4
I0
sS't_i'
p5
F0.15166378021240234
sS'level'
p6
I0
sS'res'
p7
NsS'inv'
p8
I00
sS't_f'
p9
F0.15166997909545898
sS'etc'
p10
(dp11
S'workers_idle'
p12
I0
sS'workers_busy'
p13
I0
sS'tasks_busy'
p14
I0
sS'MEMOUT'
p15
I0
sS'UNSAT'
p16
I0
sS'TIMEOUT'
p17
I0
sS'ERROR'
p18
I0
sS'tasks_done'
p19
I0
sS'tasks_idle'
p20
I0
sS'SAT'
p21
I0
ssS'gid'
p22
S'wrep'
p23
sS'eid'
p24
S'preinit'
p25
sS'timeout'
p26
I0
sS'max'
p27
I0
sS'tid'
p28
NsS'dur'
p29
F6.198883056640625e-06
sba(iandrea.events
Event
p30
(dp31
g4
I0
sg5
F0.15194892883300781
sg6
I0
sg7
S'1 tasks'
p32
sg8
I00
sg9
F49.463965892791748
sg10
(dp33
sg22
S'main'
p34
sg24
S'queue.create'
p35
sg26
I0
sg27
I0
sg28
Nsg29
F49.31201696395874
sba(iandrea.events
WeatherEvent
p36
(dp37
g4
I0
sg5
F49.464176893234253
sg6
I0
sg7
Nsg8
I00
sg9
F49.464183330535889
sg10
(dp38
g12
I0
sg13
I0
sg14
I0
sg15
I0
sg16
I0
sg17
I0
sg18
I0
sg19
I0
sg20
I1
sg21
I0
ssg22
g23
sg24
S'initial'
p39
sg26
I0
sg27
I0
sg28
Nsg29
F6.4373016357421875e-06
sba(iandrea.events
WeatherEvent
p40
(dp41
g4
I0
sg5
F59.465955495834351
sg6
I0
sg7
Nsg8
I00
sg9
F59.465963363647461
sg10
(dp42
g12
I0
sg13
I3
sg14
I3
sg15
I0
sg16
I0
sg17
I0
sg18
I0
sg19
I0
sg20
I17
sg21
I0
ssg22
g23
sg24
S'update'
p43
sg26
I0
sg27
I0
sg28
Nsg29
F7.8678131103515625e-06
sba(iandrea.events
WeatherEvent
p44
(dp45
g4
I0
sg5
F69.468088150024414
sg6
I0
sg7
Nsg8
I00
sg9
F69.468096733093262
sg10
(dp46
g12
I0
sg13
I3
sg14
I3
sg15
I0
sg16
I0
sg17
I0
sg18
I0
sg19
I0
sg20
I17
sg21
I0
ssg22
g23
sg24
g43
sg26
I0
sg27
I0
sg28
Nsg29
F8.58306884765625e-06
sba(iandrea.events
WeatherEvent
p47
(dp48
g4
I0
sg5
F79.469113826751709
sg6
I0
sg7
Nsg8
I00
sg9
F79.469120740890503
sg10
(dp49
g12
I0
sg13
I3
sg14
I3
sg15
I0
sg16
I0
sg17
I0
sg18
I0
sg19
I0
sg20
I17
sg21
I0
ssg22
g23
sg24
g43
sg26
I0
sg27
I0
sg28
Nsg29
F6.9141387939453125e-06
sba(iandrea.events
WeatherEvent
p50
(dp51
g4
I0
sg5
F89.471057415008545
sg6
I0
sg7
Nsg8
I00
sg9
F89.471064805984497
sg10
(dp52
g12
I0
sg13
I3
sg14
I3
sg15
I0
sg16
I0
sg17
I0
sg18
I0
sg19
I0
sg20
I17
sg21
I0
ssg22
g23
sg24
g43
sg26
I0
sg27
I0
sg28
Nsg29
F7.3909759521484375e-06
sba(iandrea.events
WeatherEvent
p53
(dp54
g4
I0
sg5
F99.472770690917969
sg6
I0
sg7
Nsg8
I00
sg9
F99.472777843475342
sg10
(dp55
g12
I0
sg13
I3
sg14
I3
sg15
I0
sg16
I0
sg17
I0
sg18
I0
sg19
I0
sg20
I17
sg21
I0
ssg22
g23
sg24
g43
sg26
I0
sg27
I0
sg28
Nsg29
F7.152557373046875e-06
sba(iandrea.events
WeatherEvent
p56
(dp57
g4
I0
sg5
F109.47337961196899
sg6
I0
sg7
Nsg8
I00
sg9
F109.47338771820068
sg10
(dp58
g12
I0
sg13
I3
sg14
I3
sg15
I0
sg16
I0
sg17
I0
sg18
I0
sg19
I0
sg20
I17
sg21
I0
ssg22
g23
sg24
g43
sg26
I0
sg27
I0
sg28
Nsg29
F8.106231689453125e-06
sba(iandrea.events
WeatherEvent
p59
(dp60
g4
I0
sg5
F119.47501659393311
sg6
I0
sg7
Nsg8
I00
sg9
F119.47502446174622
sg10
(dp61
g12
I0
sg13
I3
sg14
I3
sg15
I0
sg16
I0
sg17
I0
sg18
I0
sg19
I0
sg20
I17
sg21
I0
ssg22
g23
sg24
g43
sg26
I0
sg27
I0
sg28
Nsg29
F7.8678131103515625e-06
sba(iandrea.events
WeatherEvent
p62
(dp63
g4
I0
sg5
F129.47567749023438
sg6
I0
sg7
Nsg8
I00
sg9
F129.47568440437317
sg10
(dp64
g12
I0
sg13
I3
sg14
I3
sg15
I0
sg16
I0
sg17
I0
sg18
I0
sg19
I0
sg20
I17
sg21
I0
ssg22
g23
sg24
g43
sg26
I0
sg27
I0
sg28
Nsg29
F6.9141387939453125e-06
sba(iandrea.events
WeatherEvent
p65
(dp66
g4
I0
sg5
F139.47586226463318
sg6
I0
sg7
Nsg8
I00
sg9
F139.47586965560913
sg10
(dp67
g12
I0
sg13
I3
sg14
I3
sg15
I0
sg16
I0
sg17
I0
sg18
I0
sg19
I0
sg20
I17
sg21
I0
ssg22
g23
sg24
g43
sg26
I0
sg27
I0
sg28
Nsg29
F7.3909759521484375e-06
sba(iandrea.events
WeatherEvent
p68
(dp69
g4
I0
sg5
F149.47752523422241
sg6
I0
sg7
Nsg8
I00
sg9
F149.47753190994263
sg10
(dp70
g12
I0
sg13
I3
sg14
I3
sg15
I0
sg16
I0
sg17
I0
sg18
I0
sg19
I0
sg20
I17
sg21
I0
ssg22
g23
sg24
g43
sg26
I0
sg27
I0
sg28
Nsg29
F6.67572021484375e-06
sba(iandrea.events
WeatherEvent
p71
(dp72
g4
I0
sg5
F159.47910189628601
sg6
I0
sg7
Nsg8
I00
sg9
F159.4791088104248
sg10
(dp73
g12
I0
sg13
I3
sg14
I3
sg15
I0
sg16
I0
sg17
I0
sg18
I0
sg19
I0
sg20
I17
sg21
I0
ssg22
g23
sg24
g43
sg26
I0
sg27
I0
sg28
Nsg29
F6.9141387939453125e-06
sba(iandrea.events
WeatherEvent
p74
(dp75
g4
I0
sg5
F169.48102927207947
sg6
I0
sg7
Nsg8
I00
sg9
F169.481036901474
sg10
(dp76
g12
I0
sg13
I3
sg14
I3
sg15
I0
sg16
I0
sg17
I0
sg18
I0
sg19
I0
sg20
I17
sg21
I0
ssg22
g23
sg24
g43
sg26
I0
sg27
I0
sg28
Nsg29
F7.62939453125e-06
sba(iandrea.events
WeatherEvent
p77
(dp78
g4
I0
sg5
F179.48117756843567
sg6
I0
sg7
Nsg8
I00
sg9
F179.48118424415588
sg10
(dp79
g12
I0
sg13
I3
sg14
I3
sg15
I0
sg16
I0
sg17
I0
sg18
I0
sg19
I0
sg20
I17
sg21
I0
ssg22
g23
sg24
g43
sg26
I0
sg27
I0
sg28
Nsg29
F6.67572021484375e-06
sba(iandrea.events
WeatherEvent
p80
(dp81
g4
I0
sg5
F189.48237991333008
sg6
I0
sg7
Nsg8
I00
sg9
F189.48238754272461
sg10
(dp82
g12
I0
sg13
I3
sg14
I3
sg15
I0
sg16
I0
sg17
I0
sg18
I0
sg19
I0
sg20
I17
sg21
I0
ssg22
g23
sg24
g43
sg26
I0
sg27
I0
sg28
Nsg29
F7.62939453125e-06
sba(iandrea.events
WeatherEvent
p83
(dp84
g4
I0
sg5
F199.48425984382629
sg6
I0
sg7
Nsg8
I00
sg9
F199.48426675796509
sg10
(dp85
g12
I0
sg13
I3
sg14
I3
sg15
I0
sg16
I0
sg17
I0
sg18
I0
sg19
I0
sg20
I17
sg21
I0
ssg22
g23
sg24
g43
sg26
I0
sg27
I0
sg28
Nsg29
F6.9141387939453125e-06
sba(iandrea.events
WeatherEvent
p86
(dp87
g4
I0
sg5
F209.48610377311707
sg6
I0
sg7
Nsg8
I00
sg9
F209.4861114025116
sg10
(dp88
g12
I0
sg13
I3
sg14
I3
sg15
I0
sg16
I0
sg17
I0
sg18
I0
sg19
I0
sg20
I17
sg21
I0
ssg22
g23
sg24
g43
sg26
I0
sg27
I0
sg28
Nsg29
F7.62939453125e-06
sba(iandrea.events
WeatherEvent
p89
(dp90
g4
I0
sg5
F219.486891746521
sg6
I0
sg7
Nsg8
I00
sg9
F219.48689889907837
sg10
(dp91
g12
I0
sg13
I3
sg14
I3
sg15
I0
sg16
I0
sg17
I0
sg18
I0
sg19
I0
sg20
I17
sg21
I0
ssg22
g23
sg24
g43
sg26
I0
sg27
I0
sg28
Nsg29
F7.152557373046875e-06
sba(iandrea.events
WeatherEvent
p92
(dp93
g4
I0
sg5
F229.48835134506226
sg6
I0
sg7
Nsg8
I00
sg9
F229.48835825920105
sg10
(dp94
g12
I0
sg13
I3
sg14
I3
sg15
I0
sg16
I0
sg17
I0
sg18
I0
sg19
I0
sg20
I17
sg21
I0
ssg22
g23
sg24
g43
sg26
I0
sg27
I0
sg28
Nsg29
F6.9141387939453125e-06
sba.(lp1
(iandrea.events
WeatherEvent
p2
(dp3
S'src'
p4
I0
sS't_i'
p5
F239.48876118659973
sS'level'
p6
I0
sS'res'
p7
NsS'inv'
p8
I00
sS't_f'
p9
F239.48876762390137
sS'etc'
p10
(dp11
S'workers_idle'
p12
I0
sS'workers_busy'
p13
I3
sS'tasks_busy'
p14
I3
sS'MEMOUT'
p15
I0
sS'UNSAT'
p16
I0
sS'TIMEOUT'
p17
I0
sS'ERROR'
p18
I0
sS'tasks_done'
p19
I0
sS'tasks_idle'
p20
I17
sS'SAT'
p21
I0
ssS'gid'
p22
S'wrep'
p23
sS'eid'
p24
S'update'
p25
sS'timeout'
p26
I0
sS'max'
p27
I0
sS'tid'
p28
NsS'dur'
p29
F6.4373016357421875e-06
sba(iandrea.events
WeatherEvent
p30
(dp31
g4
I0
sg5
F249.49032521247864
sg6
I0
sg7
Nsg8
I00
sg9
F249.49033236503601
sg10
(dp32
g12
I0
sg13
I3
sg14
I3
sg15
I0
sg16
I0
sg17
I0
sg18
I0
sg19
I0
sg20
I17
sg21
I0
ssg22
g23
sg24
g25
sg26
I0
sg27
I0
sg28
Nsg29
F7.152557373046875e-06
sba(iandrea.events
WeatherEvent
p33
(dp34
g4
I0
sg5
F259.4908881187439
sg6
I0
sg7
Nsg8
I00
sg9
F259.49089407920837
sg10
(dp35
g12
I0
sg13
I3
sg14
I3
sg15
I0
sg16
I0
sg17
I0
sg18
I0
sg19
I0
sg20
I17
sg21
I0
ssg22
g23
sg24
g25
sg26
I0
sg27
I0
sg28
Nsg29
F5.9604644775390625e-06
sba(iandrea.events
WeatherEvent
p36
(dp37
g4
I0
sg5
F269.49188637733459
sg6
I0
sg7
Nsg8
I00
sg9
F269.49189400672913
sg10
(dp38
g12
I0
sg13
I3
sg14
I3
sg15
I0
sg16
I0
sg17
I0
sg18
I0
sg19
I0
sg20
I17
sg21
I0
ssg22
g23
sg24
g25
sg26
I0
sg27
I0
sg28
Nsg29
F7.62939453125e-06
sba(iandrea.events
WeatherEvent
p39
(dp40
g4
I0
sg5
F279.49189066886902
sg6
I0
sg7
Nsg8
I00
sg9
F279.49189758300781
sg10
(dp41
g12
I0
sg13
I3
sg14
I3
sg15
I0
sg16
I0
sg17
I0
sg18
I0
sg19
I0
sg20
I17
sg21
I0
ssg22
g23
sg24
g25
sg26
I0
sg27
I0
sg28
Nsg29
F6.9141387939453125e-06
sba(iandrea.events
WeatherEvent
p42
(dp43
g4
I0
sg5
F289.49372935295105
sg6
I0
sg7
Nsg8
I00
sg9
F289.49373722076416
sg10
(dp44
g12
I0
sg13
I3
sg14
I3
sg15
I0
sg16
I0
sg17
I0
sg18
I0
sg19
I0
sg20
I17
sg21
I0
ssg22
g23
sg24
g25
sg26
I0
sg27
I0
sg28
Nsg29
F7.8678131103515625e-06
sba(iandrea.events
WeatherEvent
p45
(dp46
g4
I0
sg5
F299.49432682991028
sg6
I0
sg7
Nsg8
I00
sg9
F299.49433374404907
sg10
(dp47
g12
I0
sg13
I3
sg14
I3
sg15
I0
sg16
I0
sg17
I0
sg18
I0
sg19
I0
sg20
I17
sg21
I0
ssg22
g23
sg24
g25
sg26
I0
sg27
I0
sg28
Nsg29
F6.9141387939453125e-06
sba(iandrea.events
WeatherEvent
p48
(dp49
g4
I0
sg5
F309.49447011947632
sg6
I0
sg7
Nsg8
I00
sg9
F309.49447703361511
sg10
(dp50
g12
I0
sg13
I3
sg14
I3
sg15
I0
sg16
I0
sg17
I0
sg18
I0
sg19
I0
sg20
I17
sg21
I0
ssg22
g23
sg24
g25
sg26
I0
sg27
I0
sg28
Nsg29
F6.9141387939453125e-06
sba(iandrea.events
WeatherEvent
p51
(dp52
g4
I0
sg5
F319.49518084526062
sg6
I0
sg7
Nsg8
I00
sg9
F319.49518775939941
sg10
(dp53
g12
I0
sg13
I3
sg14
I3
sg15
I0
sg16
I0
sg17
I0
sg18
I0
sg19
I0
sg20
I17
sg21
I0
ssg22
g23
sg24
g25
sg26
I0
sg27
I0
sg28
Nsg29
F6.9141387939453125e-06
sba(iandrea.events
WeatherEvent
p54
(dp55
g4
I0
sg5
F329.49524807929993
sg6
I0
sg7
Nsg8
I00
sg9
F329.49525499343872
sg10
(dp56
g12
I0
sg13
I3
sg14
I3
sg15
I0
sg16
I0
sg17
I0
sg18
I0
sg19
I0
sg20
I17
sg21
I0
ssg22
g23
sg24
g25
sg26
I0
sg27
I0
sg28
Nsg29
F6.9141387939453125e-06
sba(iandrea.events
WeatherEvent
p57
(dp58
g4
I0
sg5
F339.49717497825623
sg6
I0
sg7
Nsg8
I00
sg9
F339.49718236923218
sg10
(dp59
g12
I0
sg13
I3
sg14
I3
sg15
I0
sg16
I0
sg17
I0
sg18
I0
sg19
I0
sg20
I17
sg21
I0
ssg22
g23
sg24
g25
sg26
I0
sg27
I0
sg28
Nsg29
F7.3909759521484375e-06
sba(iandrea.events
WeatherEvent
p60
(dp61
g4
I0
sg5
F349.49783849716187
sg6
I0
sg7
Nsg8
I00
sg9
F349.49784636497498
sg10
(dp62
g12
I0
sg13
I3
sg14
I3
sg15
I0
sg16
I0
sg17
I0
sg18
I0
sg19
I0
sg20
I17
sg21
I0
ssg22
g23
sg24
g25
sg26
I0
sg27
I0
sg28
Nsg29
F7.8678131103515625e-06
sba(iandrea.events
WeatherEvent
p63
(dp64
g4
I0
sg5
F359.49910497665405
sg6
I0
sg7
Nsg8
I00
sg9
F359.49911189079285
sg10
(dp65
g12
I0
sg13
I3
sg14
I3
sg15
I0
sg16
I0
sg17
I0
sg18
I0
sg19
I0
sg20
I17
sg21
I0
ssg22
g23
sg24
g25
sg26
I0
sg27
I0
sg28
Nsg29
F6.9141387939453125e-06
sba(iandrea.events
WeatherEvent
p66
(dp67
g4
I0
sg5
F369.50047874450684
sg6
I0
sg7
Nsg8
I00
sg9
F369.50048542022705
sg10
(dp68
g12
I0
sg13
I3
sg14
I3
sg15
I0
sg16
I0
sg17
I0
sg18
I0
sg19
I0
sg20
I17
sg21
I0
ssg22
g23
sg24
g25
sg26
I0
sg27
I0
sg28
Nsg29
F6.67572021484375e-06
sba(iandrea.events
WeatherEvent
p69
(dp70
g4
I0
sg5
F379.50154304504395
sg6
I0
sg7
Nsg8
I00
sg9
F379.50154972076416
sg10
(dp71
g12
I0
sg13
I3
sg14
I3
sg15
I0
sg16
I0
sg17
I0
sg18
I0
sg19
I0
sg20
I17
sg21
I0
ssg22
g23
sg24
g25
sg26
I0
sg27
I0
sg28
Nsg29
F6.67572021484375e-06
sba(iandrea.events
WeatherEvent
p72
(dp73
g4
I0
sg5
F389.50271606445312
sg6
I0
sg7
Nsg8
I00
sg9
F389.50272297859192
sg10
(dp74
g12
I0
sg13
I3
sg14
I3
sg15
I0
sg16
I0
sg17
I0
sg18
I0
sg19
I0
sg20
I17
sg21
I0
ssg22
g23
sg24
g25
sg26
I0
sg27
I0
sg28
Nsg29
F6.9141387939453125e-06
sba(iandrea.events
WeatherEvent
p75
(dp76
g4
I0
sg5
F399.50433945655823
sg6
I0
sg7
Nsg8
I00
sg9
F399.50434613227844
sg10
(dp77
g12
I0
sg13
I3
sg14
I3
sg15
I0
sg16
I0
sg17
I0
sg18
I0
sg19
I0
sg20
I17
sg21
I0
ssg22
g23
sg24
g25
sg26
I0
sg27
I0
sg28
Nsg29
F6.67572021484375e-06
sba(iandrea.events
WeatherEvent
p78
(dp79
g4
I0
sg5
F409.50483894348145
sg6
I0
sg7
Nsg8
I00
sg9
F409.50484609603882
sg10
(dp80
g12
I0
sg13
I3
sg14
I3
sg15
I0
sg16
I0
sg17
I0
sg18
I0
sg19
I0
sg20
I17
sg21
I0
ssg22
g23
sg24
g25
sg26
I0
sg27
I0
sg28
Nsg29
F7.152557373046875e-06
sba(iandrea.events
WeatherEvent
p81
(dp82
g4
I0
sg5
F419.50572967529297
sg6
I0
sg7
Nsg8
I00
sg9
F419.5057361125946
sg10
(dp83
g12
I0
sg13
I3
sg14
I3
sg15
I0
sg16
I0
sg17
I0
sg18
I0
sg19
I0
sg20
I17
sg21
I0
ssg22
g23
sg24
g25
sg26
I0
sg27
I0
sg28
Nsg29
F6.4373016357421875e-06
sba(iandrea.events
WeatherEvent
p84
(dp85
g4
I0
sg5
F429.5076756477356
sg6
I0
sg7
Nsg8
I00
sg9
F429.50768232345581
sg10
(dp86
g12
I0
sg13
I3
sg14
I3
sg15
I0
sg16
I0
sg17
I0
sg18
I0
sg19
I0
sg20
I17
sg21
I0
ssg22
g23
sg24
g25
sg26
I0
sg27
I0
sg28
Nsg29
F6.67572021484375e-06
sba(iandrea.events
WeatherEvent
p87
(dp88
g4
I0
sg5
F439.50819325447083
sg6
I0
sg7
Nsg8
I00
sg9
F439.5082004070282
sg10
(dp89
g12
I0
sg13
I3
sg14
I3
sg15
I0
sg16
I0
sg17
I0
sg18
I0
sg19
I0
sg20
I17
sg21
I0
ssg22
g23
sg24
g25
sg26
I0
sg27
I0
sg28
Nsg29
F7.152557373046875e-06
sba.