(lp1
(iandrea.events
WeatherEvent
p2
(dp3
S'src'
p4
I0
sS't_i'
p5
F0.15165905900000001
sS'level'
p6
I0
sS'res'
p7
NsS'inv'
p8
I00
sS't_f'
p9
F0.151665877
sS'etc'
p10
(dp11
S'workers_idle'
p12
I0
sS'workers_busy'
p13
I0
sS'tasks_busy'
p14
I0
sS'MEMOUT'
p15
I0
sS'UNSAT'
p16
I0
sS'TIMEOUT'
p17
I0
sS'ERROR'
p18
I0
sS'tasks_done'
p19
I0
sS'tasks_idle'
p20
I0
sS'SAT'
p21
I0
ssS'gid'
p22
S'wrep'
p23
sS'eid'
p24
S'preinit'
p25
sS'timeout'
p26
I0
sS'max'
p27
I0
sS'tid'
p28
NsS'dur'
p29
F6.8179999999917751e-06
sba(iandrea.events
Event
p30
(dp31
g4
I0
sg5
F0.151728207
sg6
I0
sg7
S'1 tasks'
p32
sg8
I00
sg9
F52.794751130999998
sg10
(dp33
sg22
S'main'
p34
sg24
S'queue.create'
p35
sg26
I0
sg27
I0
sg28
Nsg29
F52.643022924
sba(iandrea.events
WeatherEvent
p36
(dp37
g4
I0
sg5
F52.797158213000003
sg6
I0
sg7
Nsg8
I00
sg9
F52.797167334999997
sg10
(dp38
g12
I0
sg13
I0
sg14
I0
sg15
I0
sg16
I0
sg17
I0
sg18
I0
sg19
I0
sg20
I1
sg21
I0
ssg22
g23
sg24
S'initial'
p39
sg26
I0
sg27
I0
sg28
Nsg29
F9.121999994476937e-06
sba(iandrea.events
WeatherEvent
p40
(dp41
g4
I0
sg5
F62.797845367000001
sg6
I0
sg7
Nsg8
I00
sg9
F62.797860436000001
sg10
(dp42
g12
I0
sg13
I3
sg14
I3
sg15
I0
sg16
I0
sg17
I0
sg18
I0
sg19
I0
sg20
I50
sg21
I0
ssg22
g23
sg24
S'update'
p43
sg26
I0
sg27
I0
sg28
Nsg29
F1.5068999999812149e-05
sba(iandrea.events
WeatherEvent
p44
(dp45
g4
I0
sg5
F72.79809702
sg6
I0
sg7
Nsg8
I00
sg9
F72.798108416999995
sg10
(dp46
g12
I0
sg13
I3
sg14
I3
sg15
I0
sg16
I0
sg17
I0
sg18
I0
sg19
I0
sg20
I50
sg21
I0
ssg22
g23
sg24
g43
sg26
I0
sg27
I0
sg28
Nsg29
F1.1396999994417456e-05
sba(iandrea.events
WeatherEvent
p47
(dp48
g4
I0
sg5
F82.798866469000004
sg6
I0
sg7
Nsg8
I00
sg9
F82.798876450999998
sg10
(dp49
g12
I0
sg13
I3
sg14
I3
sg15
I0
sg16
I0
sg17
I0
sg18
I0
sg19
I0
sg20
I50
sg21
I0
ssg22
g23
sg24
g43
sg26
I0
sg27
I0
sg28
Nsg29
F9.9819999945793825e-06
sba(iandrea.events
WeatherEvent
p50
(dp51
g4
I0
sg5
F92.799457270000005
sg6
I0
sg7
Nsg8
I00
sg9
F92.799466918999997
sg10
(dp52
g12
I0
sg13
I3
sg14
I3
sg15
I0
sg16
I0
sg17
I0
sg18
I0
sg19
I0
sg20
I50
sg21
I0
ssg22
g23
sg24
g43
sg26
I0
sg27
I0
sg28
Nsg29
F9.6489999918958347e-06
sba(iandrea.events
WeatherEvent
p53
(dp54
g4
I0
sg5
F102.79991601899999
sg6
I0
sg7
Nsg8
I00
sg9
F102.799924928
sg10
(dp55
g12
I0
sg13
I3
sg14
I3
sg15
I0
sg16
I0
sg17
I0
sg18
I0
sg19
I0
sg20
I50
sg21
I0
ssg22
g23
sg24
g43
sg26
I0
sg27
I0
sg28
Nsg29
F8.9090000017222337e-06
sba(iandrea.events
WeatherEvent
p56
(dp57
g4
I0
sg5
F112.801961947
sg6
I0
sg7
Nsg8
I00
sg9
F112.801973002
sg10
(dp58
g12
I0
sg13
I3
sg14
I3
sg15
I0
sg16
I0
sg17
I0
sg18
I0
sg19
I0
sg20
I50
sg21
I0
ssg22
g23
sg24
g43
sg26
I0
sg27
I0
sg28
Nsg29
F1.1055000001647386e-05
sba(iandrea.events
WeatherEvent
p59
(dp60
g4
I0
sg5
F122.80318916500001
sg6
I0
sg7
Nsg8
I00
sg9
F122.803198568
sg10
(dp61
g12
I0
sg13
I3
sg14
I3
sg15
I0
sg16
I0
sg17
I0
sg18
I0
sg19
I0
sg20
I50
sg21
I0
ssg22
g23
sg24
g43
sg26
I0
sg27
I0
sg28
Nsg29
F9.4029999928579855e-06
sba(iandrea.events
WeatherEvent
p62
(dp63
g4
I0
sg5
F132.80380220800001
sg6
I0
sg7
Nsg8
I00
sg9
F132.80381197
sg10
(dp64
g12
I0
sg13
I3
sg14
I3
sg15
I0
sg16
I0
sg17
I0
sg18
I0
sg19
I0
sg20
I50
sg21
I0
ssg22
g23
sg24
g43
sg26
I0
sg27
I0
sg28
Nsg29
F9.7619999905873556e-06
sba(iandrea.events
WeatherEvent
p65
(dp66
g4
I0
sg5
F142.80473962400001
sg6
I0
sg7
Nsg8
I00
sg9
F142.80474843900001
sg10
(dp67
g12
I0
sg13
I3
sg14
I3
sg15
I0
sg16
I0
sg17
I0
sg18
I0
sg19
I0
sg20
I50
sg21
I0
ssg22
g23
sg24
g43
sg26
I0
sg27
I0
sg28
Nsg29
F8.8150000010500662e-06
sba(iandrea.events
WeatherEvent
p68
(dp69
g4
I0
sg5
F152.80579066000001
sg6
I0
sg7
Nsg8
I00
sg9
F152.80580046099999
sg10
(dp70
g12
I0
sg13
I3
sg14
I3
sg15
I0
sg16
I0
sg17
I0
sg18
I0
sg19
I0
sg20
I50
sg21
I0
ssg22
g23
sg24
g43
sg26
I0
sg27
I0
sg28
Nsg29
F9.8009999760506616e-06
sba(iandrea.events
WeatherEvent
p71
(dp72
g4
I0
sg5
F162.80694350100001
sg6
I0
sg7
Nsg8
I00
sg9
F162.806955362
sg10
(dp73
g12
I0
sg13
I3
sg14
I3
sg15
I0
sg16
I0
sg17
I0
sg18
I0
sg19
I0
sg20
I50
sg21
I0
ssg22
g23
sg24
g43
sg26
I0
sg27
I0
sg28
Nsg29
F1.1860999990176424e-05
sba(iandrea.events
WeatherEvent
p74
(dp75
g4
I0
sg5
F172.80847210300001
sg6
I0
sg7
Nsg8
I00
sg9
F172.80848161700001
sg10
(dp76
g12
I0
sg13
I3
sg14
I3
sg15
I0
sg16
I0
sg17
I0
sg18
I0
sg19
I0
sg20
I50
sg21
I0
ssg22
g23
sg24
g43
sg26
I0
sg27
I0
sg28
Nsg29
F9.513999998489453e-06
sba(iandrea.events
WeatherEvent
p77
(dp78
g4
I0
sg5
F182.809770009
sg6
I0
sg7
Nsg8
I00
sg9
F182.80977938000001
sg10
(dp79
g12
I0
sg13
I3
sg14
I3
sg15
I0
sg16
I0
sg17
I0
sg18
I0
sg19
I0
sg20
I50
sg21
I0
ssg22
g23
sg24
g43
sg26
I0
sg27
I0
sg28
Nsg29
F9.3710000044211483e-06
sba(iandrea.events
WeatherEvent
p80
(dp81
g4
I0
sg5
F192.81184154300001
sg6
I0
sg7
Nsg8
I00
sg9
F192.81185131399999
sg10
(dp82
g12
I0
sg13
I3
sg14
I3
sg15
I0
sg16
I0
sg17
I0
sg18
I0
sg19
I0
sg20
I50
sg21
I0
ssg22
g23
sg24
g43
sg26
I0
sg27
I0
sg28
Nsg29
F9.7709999806738779e-06
sba(iandrea.events
WeatherEvent
p83
(dp84
g4
I0
sg5
F202.81290905899999
sg6
I0
sg7
Nsg8
I00
sg9
F202.81292848800001
sg10
(dp85
g12
I0
sg13
I3
sg14
I3
sg15
I0
sg16
I0
sg17
I0
sg18
I0
sg19
I0
sg20
I50
sg21
I0
ssg22
g23
sg24
g43
sg26
I0
sg27
I0
sg28
Nsg29
F1.9429000019499654e-05
sba(iandrea.events
WeatherEvent
p86
(dp87
g4
I0
sg5
F212.81485517900001
sg6
I0
sg7
Nsg8
I00
sg9
F212.81487107500001
sg10
(dp88
g12
I0
sg13
I3
sg14
I3
sg15
I0
sg16
I0
sg17
I0
sg18
I0
sg19
I0
sg20
I50
sg21
I0
ssg22
g23
sg24
g43
sg26
I0
sg27
I0
sg28
Nsg29
F1.5896000007842304e-05
sba(iandrea.events
WeatherEvent
p89
(dp90
g4
I0
sg5
F222.815792628
sg6
I0
sg7
Nsg8
I00
sg9
F222.81580222599999
sg10
(dp91
g12
I0
sg13
I3
sg14
I3
sg15
I0
sg16
I0
sg17
I0
sg18
I0
sg19
I0
sg20
I50
sg21
I0
ssg22
g23
sg24
g43
sg26
I0
sg27
I0
sg28
Nsg29
F9.5979999912287894e-06
sba(iandrea.events
WeatherEvent
p92
(dp93
g4
I0
sg5
F232.81587295400001
sg6
I0
sg7
Nsg8
I00
sg9
F232.81588907299999
sg10
(dp94
g12
I0
sg13
I3
sg14
I3
sg15
I0
sg16
I0
sg17
I0
sg18
I0
sg19
I0
sg20
I50
sg21
I0
ssg22
g23
sg24
g43
sg26
I0
sg27
I0
sg28
Nsg29
F1.6118999980108129e-05
sba.(lp1
(iandrea.events
WeatherEvent
p2
(dp3
S'src'
p4
I0
sS't_i'
p5
F242.81749788400001
sS'level'
p6
I0
sS'res'
p7
NsS'inv'
p8
I00
sS't_f'
p9
F242.817506659
sS'etc'
p10
(dp11
S'workers_idle'
p12
I0
sS'workers_busy'
p13
I3
sS'tasks_busy'
p14
I3
sS'MEMOUT'
p15
I0
sS'UNSAT'
p16
I0
sS'TIMEOUT'
p17
I0
sS'ERROR'
p18
I0
sS'tasks_done'
p19
I0
sS'tasks_idle'
p20
I50
sS'SAT'
p21
I0
ssS'gid'
p22
S'wrep'
p23
sS'eid'
p24
S'update'
p25
sS'timeout'
p26
I0
sS'max'
p27
I0
sS'tid'
p28
NsS'dur'
p29
F8.7749999977404514e-06
sba(iandrea.events
WeatherEvent
p30
(dp31
g4
I0
sg5
F252.81957084499999
sg6
I0
sg7
Nsg8
I00
sg9
F252.81958064299999
sg10
(dp32
g12
I0
sg13
I3
sg14
I3
sg15
I0
sg16
I0
sg17
I0
sg18
I0
sg19
I0
sg20
I50
sg21
I0
ssg22
g23
sg24
g25
sg26
I0
sg27
I0
sg28
Nsg29
F9.7980000077768636e-06
sba(iandrea.events
WeatherEvent
p33
(dp34
g4
I0
sg5
F262.82123433200002
sg6
I0
sg7
Nsg8
I00
sg9
F262.82124581800002
sg10
(dp35
g12
I0
sg13
I3
sg14
I3
sg15
I0
sg16
I0
sg17
I0
sg18
I0
sg19
I0
sg20
I50
sg21
I0
ssg22
g23
sg24
g25
sg26
I0
sg27
I0
sg28
Nsg29
F1.1486000005334063e-05
sba(iandrea.events
WeatherEvent
p36
(dp37
g4
I0
sg5
F272.82250664700001
sg6
I0
sg7
Nsg8
I00
sg9
F272.82252056200002
sg10
(dp38
g12
I0
sg13
I3
sg14
I3
sg15
I0
sg16
I0
sg17
I0
sg18
I0
sg19
I0
sg20
I50
sg21
I0
ssg22
g23
sg24
g25
sg26
I0
sg27
I0
sg28
Nsg29
F1.3915000010911172e-05
sba(iandrea.events
WeatherEvent
p39
(dp40
g4
I0
sg5
F282.824174255
sg6
I0
sg7
Nsg8
I00
sg9
F282.82418515699999
sg10
(dp41
g12
I0
sg13
I3
sg14
I3
sg15
I0
sg16
I0
sg17
I0
sg18
I0
sg19
I0
sg20
I50
sg21
I0
ssg22
g23
sg24
g25
sg26
I0
sg27
I0
sg28
Nsg29
F1.0901999985435396e-05
sba(iandrea.events
WeatherEvent
p42
(dp43
g4
I0
sg5
F292.82572776799998
sg6
I0
sg7
Nsg8
I00
sg9
F292.82573818100002
sg10
(dp44
g12
I0
sg13
I3
sg14
I3
sg15
I0
sg16
I0
sg17
I0
sg18
I0
sg19
I0
sg20
I50
sg21
I0
ssg22
g23
sg24
g25
sg26
I0
sg27
I0
sg28
Nsg29
F1.0413000040898623e-05
sba(iandrea.events
WeatherEvent
p45
(dp46
g4
I0
sg5
F302.82627868100002
sg6
I0
sg7
Nsg8
I00
sg9
F302.82628867300002
sg10
(dp47
g12
I0
sg13
I3
sg14
I3
sg15
I0
sg16
I0
sg17
I0
sg18
I0
sg19
I0
sg20
I50
sg21
I0
ssg22
g23
sg24
g25
sg26
I0
sg27
I0
sg28
Nsg29
F9.9920000025122135e-06
sba(iandrea.events
WeatherEvent
p48
(dp49
g4
I0
sg5
F312.82827531499998
sg6
I0
sg7
Nsg8
I00
sg9
F312.82828716699998
sg10
(dp50
g12
I0
sg13
I3
sg14
I3
sg15
I0
sg16
I0
sg17
I0
sg18
I0
sg19
I0
sg20
I50
sg21
I0
ssg22
g23
sg24
g25
sg26
I0
sg27
I0
sg28
Nsg29
F1.1852000000089902e-05
sba(iandrea.events
WeatherEvent
p51
(dp52
g4
I0
sg5
F322.82869876299998
sg6
I0
sg7
Nsg8
I00
sg9
F322.82871401199998
sg10
(dp53
g12
I0
sg13
I3
sg14
I3
sg15
I0
sg16
I0
sg17
I0
sg18
I0
sg19
I0
sg20
I50
sg21
I0
ssg22
g23
sg24
g25
sg26
I0
sg27
I0
sg28
Nsg29
F1.5249000000494561e-05
sba(iandrea.events
WeatherEvent
p54
(dp55
g4
I0
sg5
F332.82888344600002
sg6
I0
sg7
Nsg8
I00
sg9
F332.82889262600003
sg10
(dp56
g12
I0
sg13
I3
sg14
I3
sg15
I0
sg16
I0
sg17
I0
sg18
I0
sg19
I0
sg20
I50
sg21
I0
ssg22
g23
sg24
g25
sg26
I0
sg27
I0
sg28
Nsg29
F9.1800000063813059e-06
sba(iandrea.events
WeatherEvent
p57
(dp58
g4
I0
sg5
F342.82984219000002
sg6
I0
sg7
Nsg8
I00
sg9
F342.82985196499999
sg10
(dp59
g12
I0
sg13
I3
sg14
I3
sg15
I0
sg16
I0
sg17
I0
sg18
I0
sg19
I0
sg20
I50
sg21
I0
ssg22
g23
sg24
g25
sg26
I0
sg27
I0
sg28
Nsg29
F9.7749999667939846e-06
sba(iandrea.events
WeatherEvent
p60
(dp61
g4
I0
sg5
F352.83168383399999
sg6
I0
sg7
Nsg8
I00
sg9
F352.83169533400002
sg10
(dp62
g12
I0
sg13
I3
sg14
I3
sg15
I0
sg16
I0
sg17
I0
sg18
I0
sg19
I0
sg20
I50
sg21
I0
ssg22
g23
sg24
g25
sg26
I0
sg27
I0
sg28
Nsg29
F1.150000002780871e-05
sba(iandrea.events
WeatherEvent
p63
(dp64
g4
I0
sg5
F362.83195345799999
sg6
I0
sg7
Nsg8
I00
sg9
F362.83196282099999
sg10
(dp65
g12
I0
sg13
I3
sg14
I3
sg15
I0
sg16
I0
sg17
I0
sg18
I0
sg19
I0
sg20
I50
sg21
I0
ssg22
g23
sg24
g25
sg26
I0
sg27
I0
sg28
Nsg29
F9.3630000037592254e-06
sba(iandrea.events
WeatherEvent
p66
(dp67
g4
I0
sg5
F372.83234466499999
sg6
I0
sg7
Nsg8
I00
sg9
F372.83235365100001
sg10
(dp68
g12
I0
sg13
I3
sg14
I3
sg15
I0
sg16
I0
sg17
I0
sg18
I0
sg19
I0
sg20
I50
sg21
I0
ssg22
g23
sg24
g25
sg26
I0
sg27
I0
sg28
Nsg29
F8.986000011645956e-06
sba(iandrea.events
WeatherEvent
p69
(dp70
g4
I0
sg5
F382.833571947
sg6
I0
sg7
Nsg8
I00
sg9
F382.83358139400002
sg10
(dp71
g12
I0
sg13
I3
sg14
I3
sg15
I0
sg16
I0
sg17
I0
sg18
I0
sg19
I0
sg20
I50
sg21
I0
ssg22
g23
sg24
g25
sg26
I0
sg27
I0
sg28
Nsg29
F9.4470000249202712e-06
sba(iandrea.events
WeatherEvent
p72
(dp73
g4
I0
sg5
F392.83403352099998
sg6
I0
sg7
Nsg8
I00
sg9
F392.83404401899998
sg10
(dp74
g12
I0
sg13
I3
sg14
I3
sg15
I0
sg16
I0
sg17
I0
sg18
I0
sg19
I0
sg20
I50
sg21
I0
ssg22
g23
sg24
g25
sg26
I0
sg27
I0
sg28
Nsg29
F1.049799999464085e-05
sba(iandrea.events
WeatherEvent
p75
(dp76
g4
I0
sg5
F402.83531120599997
sg6
I0
sg7
Nsg8
I00
sg9
F402.83532071000002
sg10
(dp77
g12
I0
sg13
I3
sg14
I3
sg15
I0
sg16
I0
sg17
I0
sg18
I0
sg19
I0
sg20
I50
sg21
I0
ssg22
g23
sg24
g25
sg26
I0
sg27
I0
sg28
Nsg29
F9.5040000474000408e-06
sba(iandrea.events
WeatherEvent
p78
(dp79
g4
I0
sg5
F412.836923227
sg6
I0
sg7
Nsg8
I00
sg9
F412.83693297600001
sg10
(dp80
g12
I0
sg13
I3
sg14
I3
sg15
I0
sg16
I0
sg17
I0
sg18
I0
sg19
I0
sg20
I50
sg21
I0
ssg22
g23
sg24
g25
sg26
I0
sg27
I0
sg28
Nsg29
F9.7490000143807265e-06
sba(iandrea.events
WeatherEvent
p81
(dp82
g4
I0
sg5
F422.83722943599997
sg6
I0
sg7
Nsg8
I00
sg9
F422.83724016100001
sg10
(dp83
g12
I0
sg13
I3
sg14
I3
sg15
I0
sg16
I0
sg17
I0
sg18
I0
sg19
I0
sg20
I50
sg21
I0
ssg22
g23
sg24
g25
sg26
I0
sg27
I0
sg28
Nsg29
F1.072500003829191e-05
sba(iandrea.events
WeatherEvent
p84
(dp85
g4
I0
sg5
F432.83853376799999
sg6
I0
sg7
Nsg8
I00
sg9
F432.83854364299998
sg10
(dp86
g12
I0
sg13
I3
sg14
I3
sg15
I0
sg16
I0
sg17
I0
sg18
I0
sg19
I0
sg20
I50
sg21
I0
ssg22
g23
sg24
g25
sg26
I0
sg27
I0
sg28
Nsg29
F9.8749999892788765e-06
sba(iandrea.events
WeatherEvent
p87
(dp88
g4
I0
sg5
F442.84050428400002
sg6
I0
sg7
Nsg8
I00
sg9
F442.84051354399998
sg10
(dp89
g12
I0
sg13
I3
sg14
I3
sg15
I0
sg16
I0
sg17
I0
sg18
I0
sg19
I0
sg20
I50
sg21
I0
ssg22
g23
sg24
g25
sg26
I0
sg27
I0
sg28
Nsg29
F9.2599999561571167e-06
sba.(lp1
(iandrea.events
WeatherEvent
p2
(dp3
S'src'
p4
I0
sS't_i'
p5
F452.84077411599998
sS'level'
p6
I0
sS'res'
p7
NsS'inv'
p8
I00
sS't_f'
p9
F452.84078564599997
sS'etc'
p10
(dp11
S'workers_idle'
p12
I0
sS'workers_busy'
p13
I3
sS'tasks_busy'
p14
I3
sS'MEMOUT'
p15
I0
sS'UNSAT'
p16
I0
sS'TIMEOUT'
p17
I0
sS'ERROR'
p18
I0
sS'tasks_done'
p19
I0
sS'tasks_idle'
p20
I50
sS'SAT'
p21
I0
ssS'gid'
p22
S'wrep'
p23
sS'eid'
p24
S'update'
p25
sS'timeout'
p26
I0
sS'max'
p27
I0
sS'tid'
p28
NsS'dur'
p29
F1.1529999994763784e-05
sba(iandrea.events
WeatherEvent
p30
(dp31
g4
I0
sg5
F462.84098355899999
sg6
I0
sg7
Nsg8
I00
sg9
F462.84099282199998
sg10
(dp32
g12
I0
sg13
I3
sg14
I3
sg15
I0
sg16
I0
sg17
I0
sg18
I0
sg19
I0
sg20
I50
sg21
I0
ssg22
g23
sg24
g25
sg26
I0
sg27
I0
sg28
Nsg29
F9.2629999812743335e-06
sba(iandrea.events
WeatherEvent
p33
(dp34
g4
I0
sg5
F472.84114350499999
sg6
I0
sg7
Nsg8
I00
sg9
F472.84115277500001
sg10
(dp35
g12
I0
sg13
I3
sg14
I3
sg15
I0
sg16
I0
sg17
I0
sg18
I0
sg19
I0
sg20
I50
sg21
I0
ssg22
g23
sg24
g25
sg26
I0
sg27
I0
sg28
Nsg29
F9.2700000209333666e-06
sba(iandrea.events
WeatherEvent
p36
(dp37
g4
I0
sg5
F482.84126605699998
sg6
I0
sg7
Nsg8
I00
sg9
F482.84128869
sg10
(dp38
g12
I0
sg13
I3
sg14
I3
sg15
I0
sg16
I0
sg17
I0
sg18
I0
sg19
I0
sg20
I50
sg21
I0
ssg22
g23
sg24
g25
sg26
I0
sg27
I0
sg28
Nsg29
F2.2633000014593563e-05
sba(iandrea.events
WeatherEvent
p39
(dp40
g4
I0
sg5
F492.84205111699998
sg6
I0
sg7
Nsg8
I00
sg9
F492.84206339000002
sg10
(dp41
g12
I0
sg13
I3
sg14
I3
sg15
I0
sg16
I0
sg17
I0
sg18
I0
sg19
I0
sg20
I50
sg21
I0
ssg22
g23
sg24
g25
sg26
I0
sg27
I0
sg28
Nsg29
F1.2273000038476312e-05
sba(iandrea.events
WeatherEvent
p42
(dp43
g4
I0
sg5
F502.84247968800003
sg6
I0
sg7
Nsg8
I00
sg9
F502.84249019200001
sg10
(dp44
g12
I0
sg13
I3
sg14
I3
sg15
I0
sg16
I0
sg17
I0
sg18
I0
sg19
I0
sg20
I50
sg21
I0
ssg22
g23
sg24
g25
sg26
I0
sg27
I0
sg28
Nsg29
F1.0503999988031865e-05
sba(iandrea.events
WeatherEvent
p45
(dp46
g4
I0
sg5
F512.84300576400005
sg6
I0
sg7
Nsg8
I00
sg9
F512.84301698800004
sg10
(dp47
g12
I0
sg13
I3
sg14
I3
sg15
I0
sg16
I0
sg17
I0
sg18
I0
sg19
I0
sg20
I50
sg21
I0
ssg22
g23
sg24
g25
sg26
I0
sg27
I0
sg28
Nsg29
F1.1223999990761513e-05
sba(iandrea.events
WeatherEvent
p48
(dp49
g4
I0
sg5
F522.84320515499996
sg6
I0
sg7
Nsg8
I00
sg9
F522.84321491000003
sg10
(dp50
g12
I0
sg13
I3
sg14
I3
sg15
I0
sg16
I0
sg17
I0
sg18
I0
sg19
I0
sg20
I50
sg21
I0
ssg22
g23
sg24
g25
sg26
I0
sg27
I0
sg28
Nsg29
F9.7550000646151602e-06
sba(iandrea.events
WeatherEvent
p51
(dp52
g4
I0
sg5
F532.84390272200005
sg6
I0
sg7
Nsg8
I00
sg9
F532.84391425900003
sg10
(dp53
g12
I0
sg13
I3
sg14
I3
sg15
I0
sg16
I0
sg17
I0
sg18
I0
sg19
I0
sg20
I50
sg21
I0
ssg22
g23
sg24
g25
sg26
I0
sg27
I0
sg28
Nsg29
F1.1536999977579399e-05
sba(iandrea.events
WeatherEvent
p54
(dp55
g4
I0
sg5
F542.84406364500001
sg6
I0
sg7
Nsg8
I00
sg9
F542.84410609199995
sg10
(dp56
g12
I0
sg13
I3
sg14
I3
sg15
I0
sg16
I0
sg17
I0
sg18
I0
sg19
I0
sg20
I50
sg21
I0
ssg22
g23
sg24
g25
sg26
I0
sg27
I0
sg28
Nsg29
F4.2446999941603281e-05
sba(iandrea.events
WeatherEvent
p57
(dp58
g4
I0
sg5
F552.84572437400004
sg6
I0
sg7
Nsg8
I00
sg9
F552.84574220800005
sg10
(dp59
g12
I0
sg13
I3
sg14
I3
sg15
I0
sg16
I0
sg17
I0
sg18
I0
sg19
I0
sg20
I50
sg21
I0
ssg22
g23
sg24
g25
sg26
I0
sg27
I0
sg28
Nsg29
F1.7834000004768313e-05
sba(iandrea.events
WeatherEvent
p60
(dp61
g4
I0
sg5
F562.84644304799997
sg6
I0
sg7
Nsg8
I00
sg9
F562.84645759499995
sg10
(dp62
g12
I0
sg13
I3
sg14
I3
sg15
I0
sg16
I0
sg17
I0
sg18
I0
sg19
I0
sg20
I50
sg21
I0
ssg22
g23
sg24
g25
sg26
I0
sg27
I0
sg28
Nsg29
F1.4546999977937958e-05
sba(iandrea.events
WeatherEvent
p63
(dp64
g4
I0
sg5
F572.84709836299999
sg6
I0
sg7
Nsg8
I00
sg9
F572.84710925399997
sg10
(dp65
g12
I0
sg13
I3
sg14
I3
sg15
I0
sg16
I0
sg17
I0
sg18
I0
sg19
I0
sg20
I50
sg21
I0
ssg22
g23
sg24
g25
sg26
I0
sg27
I0
sg28
Nsg29
F1.0890999988077965e-05
sba(iandrea.events
WeatherEvent
p66
(dp67
g4
I0
sg5
F582.84916478900004
sg6
I0
sg7
Nsg8
I00
sg9
F582.84917394499996
sg10
(dp68
g12
I0
sg13
I3
sg14
I3
sg15
I0
sg16
I0
sg17
I0
sg18
I0
sg19
I0
sg20
I50
sg21
I0
ssg22
g23
sg24
g25
sg26
I0
sg27
I0
sg28
Nsg29
F9.1559999191304087e-06
sba(iandrea.events
WeatherEvent
p69
(dp70
g4
I0
sg5
F592.850856174
sg6
I0
sg7
Nsg8
I00
sg9
F592.85087152999995
sg10
(dp71
g12
I0
sg13
I3
sg14
I3
sg15
I0
sg16
I0
sg17
I0
sg18
I0
sg19
I0
sg20
I50
sg21
I0
ssg22
g23
sg24
g25
sg26
I0
sg27
I0
sg28
Nsg29
F1.5355999948951649e-05
sba(iandrea.events
WeatherEvent
p72
(dp73
g4
I0
sg5
F602.85141669500001
sg6
I0
sg7
Nsg8
I00
sg9
F602.85142638900004
sg10
(dp74
g12
I0
sg13
I3
sg14
I3
sg15
I0
sg16
I0
sg17
I0
sg18
I0
sg19
I0
sg20
I50
sg21
I0
ssg22
g23
sg24
g25
sg26
I0
sg27
I0
sg28
Nsg29
F9.6940000275935745e-06
sba(iandrea.events
WeatherEvent
p75
(dp76
g4
I0
sg5
F612.85316780599999
sg6
I0
sg7
Nsg8
I00
sg9
F612.85317781799995
sg10
(dp77
g12
I0
sg13
I3
sg14
I3
sg15
I0
sg16
I0
sg17
I0
sg18
I0
sg19
I0
sg20
I50
sg21
I0
ssg22
g23
sg24
g25
sg26
I0
sg27
I0
sg28
Nsg29
F1.0011999961534457e-05
sba(iandrea.events
WeatherEvent
p78
(dp79
g4
I0
sg5
F622.85461559700002
sg6
I0
sg7
Nsg8
I00
sg9
F622.85463054900003
sg10
(dp80
g12
I0
sg13
I3
sg14
I3
sg15
I0
sg16
I0
sg17
I0
sg18
I0
sg19
I0
sg20
I50
sg21
I0
ssg22
g23
sg24
g25
sg26
I0
sg27
I0
sg28
Nsg29
F1.4952000015000522e-05
sba(iandrea.events
WeatherEvent
p81
(dp82
g4
I0
sg5
F632.85537620399998
sg6
I0
sg7
Nsg8
I00
sg9
F632.85538608599995
sg10
(dp83
g12
I0
sg13
I3
sg14
I3
sg15
I0
sg16
I0
sg17
I0
sg18
I0
sg19
I0
sg20
I50
sg21
I0
ssg22
g23
sg24
g25
sg26
I0
sg27
I0
sg28
Nsg29
F9.8819999720944907e-06
sba(iandrea.events
WeatherEvent
p84
(dp85
g4
I0
sg5
F642.85683773300002
sg6
I0
sg7
Nsg8
I00
sg9
F642.85684710299995
sg10
(dp86
g12
I0
sg13
I3
sg14
I3
sg15
I0
sg16
I0
sg17
I0
sg18
I0
sg19
I0
sg20
I50
sg21
I0
ssg22
g23
sg24
g25
sg26
I0
sg27
I0
sg28
Nsg29
F9.3699999297314207e-06
sba(iandrea.events
WeatherEvent
p87
(dp88
g4
I0
sg5
F652.85739903299998
sg6
I0
sg7
Nsg8
I00
sg9
F652.85740927200004
sg10
(dp89
g12
I0
sg13
I3
sg14
I3
sg15
I0
sg16
I0
sg17
I0
sg18
I0
sg19
I0
sg20
I50
sg21
I0
ssg22
g23
sg24
g25
sg26
I0
sg27
I0
sg28
Nsg29
F1.0239000062028936e-05
sba.(lp1
(iandrea.events
WeatherEvent
p2
(dp3
S'src'
p4
I0
sS't_i'
p5
F662.85843468500002
sS'level'
p6
I0
sS'res'
p7
NsS'inv'
p8
I00
sS't_f'
p9
F662.85844459400005
sS'etc'
p10
(dp11
S'workers_idle'
p12
I0
sS'workers_busy'
p13
I3
sS'tasks_busy'
p14
I3
sS'MEMOUT'
p15
I0
sS'UNSAT'
p16
I0
sS'TIMEOUT'
p17
I0
sS'ERROR'
p18
I0
sS'tasks_done'
p19
I0
sS'tasks_idle'
p20
I50
sS'SAT'
p21
I0
ssS'gid'
p22
S'wrep'
p23
sS'eid'
p24
S'update'
p25
sS'timeout'
p26
I0
sS'max'
p27
I0
sS'tid'
p28
NsS'dur'
p29
F9.9090000276191859e-06
sba(iandrea.events
WeatherEvent
p30
(dp31
g4
I0
sg5
F672.86003483900004
sg6
I0
sg7
Nsg8
I00
sg9
F672.860043604
sg10
(dp32
g12
I0
sg13
I3
sg14
I3
sg15
I0
sg16
I0
sg17
I0
sg18
I0
sg19
I0
sg20
I50
sg21
I0
ssg22
g23
sg24
g25
sg26
I0
sg27
I0
sg28
Nsg29
F8.7649999613859109e-06
sba(iandrea.events
WeatherEvent
p33
(dp34
g4
I0
sg5
F682.86180794100005
sg6
I0
sg7
Nsg8
I00
sg9
F682.86182116099997
sg10
(dp35
g12
I0
sg13
I3
sg14
I3
sg15
I0
sg16
I0
sg17
I0
sg18
I0
sg19
I0
sg20
I50
sg21
I0
ssg22
g23
sg24
g25
sg26
I0
sg27
I0
sg28
Nsg29
F1.3219999914326763e-05
sba(iandrea.events
WeatherEvent
p36
(dp37
g4
I0
sg5
F692.86392943600003
sg6
I0
sg7
Nsg8
I00
sg9
F692.86393967599997
sg10
(dp38
g12
I0
sg13
I3
sg14
I3
sg15
I0
sg16
I0
sg17
I0
sg18
I0
sg19
I0
sg20
I50
sg21
I0
ssg22
g23
sg24
g25
sg26
I0
sg27
I0
sg28
Nsg29
F1.0239999937766697e-05
sba(iandrea.events
WeatherEvent
p39
(dp40
g4
I0
sg5
F702.86569135800005
sg6
I0
sg7
Nsg8
I00
sg9
F702.86570760400002
sg10
(dp41
g12
I0
sg13
I3
sg14
I3
sg15
I0
sg16
I0
sg17
I0
sg18
I0
sg19
I0
sg20
I50
sg21
I0
ssg22
g23
sg24
g25
sg26
I0
sg27
I0
sg28
Nsg29
F1.6245999972852587e-05
sba(iandrea.events
WeatherEvent
p42
(dp43
g4
I0
sg5
F712.86651880800002
sg6
I0
sg7
Nsg8
I00
sg9
F712.86652902399999
sg10
(dp44
g12
I0
sg13
I3
sg14
I3
sg15
I0
sg16
I0
sg17
I0
sg18
I0
sg19
I0
sg20
I50
sg21
I0
ssg22
g23
sg24
g25
sg26
I0
sg27
I0
sg28
Nsg29
F1.0215999964202638e-05
sba(iandrea.events
WeatherEvent
p45
(dp46
g4
I0
sg5
F722.86813609700005
sg6
I0
sg7
Nsg8
I00
sg9
F722.86815252999997
sg10
(dp47
g12
I0
sg13
I3
sg14
I3
sg15
I0
sg16
I0
sg17
I0
sg18
I0
sg19
I0
sg20
I50
sg21
I0
ssg22
g23
sg24
g25
sg26
I0
sg27
I0
sg28
Nsg29
F1.6432999927928904e-05
sba(iandrea.events
WeatherEvent
p48
(dp49
g4
I0
sg5
F732.87012647799997
sg6
I0
sg7
Nsg8
I00
sg9
F732.87013698199996
sg10
(dp50
g12
I0
sg13
I3
sg14
I3
sg15
I0
sg16
I0
sg17
I0
sg18
I0
sg19
I0
sg20
I50
sg21
I0
ssg22
g23
sg24
g25
sg26
I0
sg27
I0
sg28
Nsg29
F1.0503999988031865e-05
sba(iandrea.events
WeatherEvent
p51
(dp52
g4
I0
sg5
F742.87223007399996
sg6
I0
sg7
Nsg8
I00
sg9
F742.87224447400001
sg10
(dp53
g12
I0
sg13
I3
sg14
I3
sg15
I0
sg16
I0
sg17
I0
sg18
I0
sg19
I0
sg20
I50
sg21
I0
ssg22
g23
sg24
g25
sg26
I0
sg27
I0
sg28
Nsg29
F1.4400000054592965e-05
sba(iandrea.events
WeatherEvent
p54
(dp55
g4
I0
sg5
F752.87262433499995
sg6
I0
sg7
Nsg8
I00
sg9
F752.87263494900003
sg10
(dp56
g12
I0
sg13
I3
sg14
I3
sg15
I0
sg16
I0
sg17
I0
sg18
I0
sg19
I0
sg20
I50
sg21
I0
ssg22
g23
sg24
g25
sg26
I0
sg27
I0
sg28
Nsg29
F1.0614000075293006e-05
sba(iandrea.events
WeatherEvent
p57
(dp58
g4
I0
sg5
F762.87349113599998
sg6
I0
sg7
Nsg8
I00
sg9
F762.873499165
sg10
(dp59
g12
I0
sg13
I3
sg14
I3
sg15
I0
sg16
I0
sg17
I0
sg18
I0
sg19
I0
sg20
I50
sg21
I0
ssg22
g23
sg24
g25
sg26
I0
sg27
I0
sg28
Nsg29
F8.0290000141758355e-06
sba(iandrea.events
WeatherEvent
p60
(dp61
g4
I0
sg5
F772.87481924600002
sg6
I0
sg7
Nsg8
I00
sg9
F772.87482878699996
sg10
(dp62
g12
I0
sg13
I3
sg14
I3
sg15
I0
sg16
I0
sg17
I0
sg18
I0
sg19
I0
sg20
I50
sg21
I0
ssg22
g23
sg24
g25
sg26
I0
sg27
I0
sg28
Nsg29
F9.5409999403273105e-06
sba(iandrea.events
WeatherEvent
p63
(dp64
g4
I0
sg5
F782.87520856699996
sg6
I0
sg7
Nsg8
I00
sg9
F782.87523139100006
sg10
(dp65
g12
I0
sg13
I3
sg14
I3
sg15
I0
sg16
I0
sg17
I0
sg18
I0
sg19
I0
sg20
I50
sg21
I0
ssg22
g23
sg24
g25
sg26
I0
sg27
I0
sg28
Nsg29
F2.2824000097898534e-05
sba(iandrea.events
WeatherEvent
p66
(dp67
g4
I0
sg5
F792.87599009899998
sg6
I0
sg7
Nsg8
I00
sg9
F792.87599988600005
sg10
(dp68
g12
I0
sg13
I3
sg14
I3
sg15
I0
sg16
I0
sg17
I0
sg18
I0
sg19
I0
sg20
I50
sg21
I0
ssg22
g23
sg24
g25
sg26
I0
sg27
I0
sg28
Nsg29
F9.7870000672628521e-06
sba(iandrea.events
WeatherEvent
p69
(dp70
g4
I0
sg5
F802.87735816899999
sg6
I0
sg7
Nsg8
I00
sg9
F802.877367144
sg10
(dp71
g12
I0
sg13
I3
sg14
I3
sg15
I0
sg16
I0
sg17
I0
sg18
I0
sg19
I0
sg20
I50
sg21
I0
ssg22
g23
sg24
g25
sg26
I0
sg27
I0
sg28
Nsg29
F8.9750000142885256e-06
sba(iandrea.events
WeatherEvent
p72
(dp73
g4
I0
sg5
F812.87876346999997
sg6
I0
sg7
Nsg8
I00
sg9
F812.87877437600002
sg10
(dp74
g12
I0
sg13
I3
sg14
I3
sg15
I0
sg16
I0
sg17
I0
sg18
I0
sg19
I0
sg20
I50
sg21
I0
ssg22
g23
sg24
g25
sg26
I0
sg27
I0
sg28
Nsg29
F1.0906000056820631e-05
sba(iandrea.events
WeatherEvent
p75
(dp76
g4
I0
sg5
F822.87880533999999
sg6
I0
sg7
Nsg8
I00
sg9
F822.87881552299996
sg10
(dp77
g12
I0
sg13
I3
sg14
I3
sg15
I0
sg16
I0
sg17
I0
sg18
I0
sg19
I0
sg20
I50
sg21
I0
ssg22
g23
sg24
g25
sg26
I0
sg27
I0
sg28
Nsg29
F1.0182999972130347e-05
sba(iandrea.events
WeatherEvent
p78
(dp79
g4
I0
sg5
F832.87998719300003
sg6
I0
sg7
Nsg8
I00
sg9
F832.87999655900001
sg10
(dp80
g12
I0
sg13
I3
sg14
I3
sg15
I0
sg16
I0
sg17
I0
sg18
I0
sg19
I0
sg20
I50
sg21
I0
ssg22
g23
sg24
g25
sg26
I0
sg27
I0
sg28
Nsg29
F9.3659999720330234e-06
sba(iandrea.events
WeatherEvent
p81
(dp82
g4
I0
sg5
F842.88015528100004
sg6
I0
sg7
Nsg8
I00
sg9
F842.88016809299995
sg10
(dp83
g12
I0
sg13
I3
sg14
I3
sg15
I0
sg16
I0
sg17
I0
sg18
I0
sg19
I0
sg20
I50
sg21
I0
ssg22
g23
sg24
g25
sg26
I0
sg27
I0
sg28
Nsg29
F1.2811999908990401e-05
sba(iandrea.events
WeatherEvent
p84
(dp85
g4
I0
sg5
F852.88075657100001
sg6
I0
sg7
Nsg8
I00
sg9
F852.88076612500004
sg10
(dp86
g12
I0
sg13
I3
sg14
I3
sg15
I0
sg16
I0
sg17
I0
sg18
I0
sg19
I0
sg20
I50
sg21
I0
ssg22
g23
sg24
g25
sg26
I0
sg27
I0
sg28
Nsg29
F9.5540000302207773e-06
sba(iandrea.events
WeatherEvent
p87
(dp88
g4
I0
sg5
F862.88089787399997
sg6
I0
sg7
Nsg8
I00
sg9
F862.88090559700004
sg10
(dp89
g12
I0
sg13
I3
sg14
I3
sg15
I0
sg16
I0
sg17
I0
sg18
I0
sg19
I0
sg20
I50
sg21
I0
ssg22
g23
sg24
g25
sg26
I0
sg27
I0
sg28
Nsg29
F7.7230000670169829e-06
sba.(lp1
(iandrea.events
WeatherEvent
p2
(dp3
S'src'
p4
I0
sS't_i'
p5
F872.88173289500003
sS'level'
p6
I0
sS'res'
p7
NsS'inv'
p8
I00
sS't_f'
p9
F872.88174707099995
sS'etc'
p10
(dp11
S'workers_idle'
p12
I0
sS'workers_busy'
p13
I3
sS'tasks_busy'
p14
I3
sS'MEMOUT'
p15
I0
sS'UNSAT'
p16
I0
sS'TIMEOUT'
p17
I0
sS'ERROR'
p18
I0
sS'tasks_done'
p19
I0
sS'tasks_idle'
p20
I50
sS'SAT'
p21
I0
ssS'gid'
p22
S'wrep'
p23
sS'eid'
p24
S'update'
p25
sS'timeout'
p26
I0
sS'max'
p27
I0
sS'tid'
p28
NsS'dur'
p29
F1.4175999922372284e-05
sba(iandrea.events
WeatherEvent
p30
(dp31
g4
I0
sg5
F882.882970581
sg6
I0
sg7
Nsg8
I00
sg9
F882.88297963599996
sg10
(dp32
g12
I0
sg13
I3
sg14
I3
sg15
I0
sg16
I0
sg17
I0
sg18
I0
sg19
I0
sg20
I50
sg21
I0
ssg22
g23
sg24
g25
sg26
I0
sg27
I0
sg28
Nsg29
F9.0549999640643364e-06
sba(iandrea.events
WeatherEvent
p33
(dp34
g4
I0
sg5
F892.88331980700002
sg6
I0
sg7
Nsg8
I00
sg9
F892.88333265799997
sg10
(dp35
g12
I0
sg13
I3
sg14
I3
sg15
I0
sg16
I0
sg17
I0
sg18
I0
sg19
I0
sg20
I50
sg21
I0
ssg22
g23
sg24
g25
sg26
I0
sg27
I0
sg28
Nsg29
F1.2850999951297126e-05
sba(iandrea.events
WeatherEvent
p36
(dp37
g4
I0
sg5
F902.88441353300004
sg6
I0
sg7
Nsg8
I00
sg9
F902.88442770799998
sg10
(dp38
g12
I0
sg13
I3
sg14
I3
sg15
I0
sg16
I0
sg17
I0
sg18
I0
sg19
I0
sg20
I50
sg21
I0
ssg22
g23
sg24
g25
sg26
I0
sg27
I0
sg28
Nsg29
F1.4174999932947685e-05
sba(iandrea.events
WeatherEvent
p39
(dp40
g4
I0
sg5
F912.885187245
sg6
I0
sg7
Nsg8
I00
sg9
F912.88519923399997
sg10
(dp41
g12
I0
sg13
I3
sg14
I3
sg15
I0
sg16
I0
sg17
I0
sg18
I0
sg19
I0
sg20
I50
sg21
I0
ssg22
g23
sg24
g25
sg26
I0
sg27
I0
sg28
Nsg29
F1.1988999972345482e-05
sba(iandrea.events
WeatherEvent
p42
(dp43
g4
I0
sg5
F922.885616766
sg6
I0
sg7
Nsg8
I00
sg9
F922.88563216900002
sg10
(dp44
g12
I0
sg13
I3
sg14
I3
sg15
I0
sg16
I0
sg17
I0
sg18
I0
sg19
I0
sg20
I50
sg21
I0
ssg22
g23
sg24
g25
sg26
I0
sg27
I0
sg28
Nsg29
F1.5403000020342006e-05
sba(iandrea.events
WeatherEvent
p45
(dp46
g4
I0
sg5
F932.88647190899997
sg6
I0
sg7
Nsg8
I00
sg9
F932.88648273700005
sg10
(dp47
g12
I0
sg13
I3
sg14
I3
sg15
I0
sg16
I0
sg17
I0
sg18
I0
sg19
I0
sg20
I50
sg21
I0
ssg22
g23
sg24
g25
sg26
I0
sg27
I0
sg28
Nsg29
F1.0828000085894018e-05
sba(iandrea.events
WeatherEvent
p48
(dp49
g4
I0
sg5
F942.88769295400004
sg6
I0
sg7
Nsg8
I00
sg9
F942.887704267
sg10
(dp50
g12
I0
sg13
I3
sg14
I3
sg15
I0
sg16
I0
sg17
I0
sg18
I0
sg19
I0
sg20
I50
sg21
I0
ssg22
g23
sg24
g25
sg26
I0
sg27
I0
sg28
Nsg29
F1.1312999959045555e-05
sba(iandrea.events
WeatherEvent
p51
(dp52
g4
I0
sg5
F952.88786694500004
sg6
I0
sg7
Nsg8
I00
sg9
F952.88788045900003
sg10
(dp53
g12
I0
sg13
I3
sg14
I3
sg15
I0
sg16
I0
sg17
I0
sg18
I0
sg19
I0
sg20
I50
sg21
I0
ssg22
g23
sg24
g25
sg26
I0
sg27
I0
sg28
Nsg29
F1.3513999988390424e-05
sba(iandrea.events
WeatherEvent
p54
(dp55
g4
I0
sg5
F962.88961104099997
sg6
I0
sg7
Nsg8
I00
sg9
F962.88962083199999
sg10
(dp56
g12
I0
sg13
I3
sg14
I3
sg15
I0
sg16
I0
sg17
I0
sg18
I0
sg19
I0
sg20
I50
sg21
I0
ssg22
g23
sg24
g25
sg26
I0
sg27
I0
sg28
Nsg29
F9.7910000249612494e-06
sba(iandrea.events
WeatherEvent
p57
(dp58
g4
I0
sg5
F972.89153297300004
sg6
I0
sg7
Nsg8
I00
sg9
F972.89156301200001
sg10
(dp59
g12
I0
sg13
I3
sg14
I3
sg15
I0
sg16
I0
sg17
I0
sg18
I0
sg19
I0
sg20
I50
sg21
I0
ssg22
g23
sg24
g25
sg26
I0
sg27
I0
sg28
Nsg29
F3.0038999966564006e-05
sba(iandrea.events
WeatherEvent
p60
(dp61
g4
I0
sg5
F982.89226868599997
sg6
I0
sg7
Nsg8
I00
sg9
F982.892280228
sg10
(dp62
g12
I0
sg13
I3
sg14
I3
sg15
I0
sg16
I0
sg17
I0
sg18
I0
sg19
I0
sg20
I50
sg21
I0
ssg22
g23
sg24
g25
sg26
I0
sg27
I0
sg28
Nsg29
F1.1542000038389233e-05
sba(iandrea.events
WeatherEvent
p63
(dp64
g4
I0
sg5
F992.89406238599997
sg6
I0
sg7
Nsg8
I00
sg9
F992.894090001
sg10
(dp65
g12
I0
sg13
I3
sg14
I3
sg15
I0
sg16
I0
sg17
I0
sg18
I0
sg19
I0
sg20
I50
sg21
I0
ssg22
g23
sg24
g25
sg26
I0
sg27
I0
sg28
Nsg29
F2.7615000021796732e-05
sba(iandrea.events
WeatherEvent
p66
(dp67
g4
I0
sg5
F1002.895476902
sg6
I0
sg7
Nsg8
I00
sg9
F1002.895490008
sg10
(dp68
g12
I0
sg13
I3
sg14
I3
sg15
I0
sg16
I0
sg17
I0
sg18
I0
sg19
I0
sg20
I50
sg21
I0
ssg22
g23
sg24
g25
sg26
I0
sg27
I0
sg28
Nsg29
F1.3105999983054062e-05
sba(iandrea.events
WeatherEvent
p69
(dp70
g4
I0
sg5
F1012.89692988
sg6
I0
sg7
Nsg8
I00
sg9
F1012.896939337
sg10
(dp71
g12
I0
sg13
I3
sg14
I3
sg15
I0
sg16
I0
sg17
I0
sg18
I0
sg19
I0
sg20
I50
sg21
I0
ssg22
g23
sg24
g25
sg26
I0
sg27
I0
sg28
Nsg29
F9.4570000328531023e-06
sba(iandrea.events
WeatherEvent
p72
(dp73
g4
I0
sg5
F1022.897025308
sg6
I0
sg7
Nsg8
I00
sg9
F1022.8970380660001
sg10
(dp74
g12
I0
sg13
I3
sg14
I3
sg15
I0
sg16
I0
sg17
I0
sg18
I0
sg19
I0
sg20
I50
sg21
I0
ssg22
g23
sg24
g25
sg26
I0
sg27
I0
sg28
Nsg29
F1.2758000025314686e-05
sba(iandrea.events
WeatherEvent
p75
(dp76
g4
I0
sg5
F1032.8973591270001
sg6
I0
sg7
Nsg8
I00
sg9
F1032.8973685169999
sg10
(dp77
g12
I0
sg13
I3
sg14
I3
sg15
I0
sg16
I0
sg17
I0
sg18
I0
sg19
I0
sg20
I50
sg21
I0
ssg22
g23
sg24
g25
sg26
I0
sg27
I0
sg28
Nsg29
F9.3899998319102451e-06
sba(iandrea.events
WeatherEvent
p78
(dp79
g4
I0
sg5
F1042.899161373
sg6
I0
sg7
Nsg8
I00
sg9
F1042.8991754379999
sg10
(dp80
g12
I0
sg13
I3
sg14
I3
sg15
I0
sg16
I0
sg17
I0
sg18
I0
sg19
I0
sg20
I50
sg21
I0
ssg22
g23
sg24
g25
sg26
I0
sg27
I0
sg28
Nsg29
F1.4064999959373381e-05
sba(iandrea.events
WeatherEvent
p81
(dp82
g4
I0
sg5
F1052.899906587
sg6
I0
sg7
Nsg8
I00
sg9
F1052.899916349
sg10
(dp83
g12
I0
sg13
I3
sg14
I3
sg15
I0
sg16
I0
sg17
I0
sg18
I0
sg19
I0
sg20
I50
sg21
I0
ssg22
g23
sg24
g25
sg26
I0
sg27
I0
sg28
Nsg29
F9.7619999905873556e-06
sba(iandrea.events
WeatherEvent
p84
(dp85
g4
I0
sg5
F1062.9005956159999
sg6
I0
sg7
Nsg8
I00
sg9
F1062.900605732
sg10
(dp86
g12
I0
sg13
I3
sg14
I3
sg15
I0
sg16
I0
sg17
I0
sg18
I0
sg19
I0
sg20
I50
sg21
I0
ssg22
g23
sg24
g25
sg26
I0
sg27
I0
sg28
Nsg29
F1.0116000112248003e-05
sba(iandrea.events
WeatherEvent
p87
(dp88
g4
I0
sg5
F1072.902218148
sg6
I0
sg7
Nsg8
I00
sg9
F1072.902228318
sg10
(dp89
g12
I0
sg13
I3
sg14
I3
sg15
I0
sg16
I0
sg17
I0
sg18
I0
sg19
I0
sg20
I50
sg21
I0
ssg22
g23
sg24
g25
sg26
I0
sg27
I0
sg28
Nsg29
F1.0169999995923718e-05
sba.(lp1
(iandrea.events
WeatherEvent
p2
(dp3
S'src'
p4
I0
sS't_i'
p5
F1082.902828002
sS'level'
p6
I0
sS'res'
p7
NsS'inv'
p8
I00
sS't_f'
p9
F1082.9028413460001
sS'etc'
p10
(dp11
S'workers_idle'
p12
I0
sS'workers_busy'
p13
I3
sS'tasks_busy'
p14
I3
sS'MEMOUT'
p15
I0
sS'UNSAT'
p16
I0
sS'TIMEOUT'
p17
I0
sS'ERROR'
p18
I0
sS'tasks_done'
p19
I0
sS'tasks_idle'
p20
I50
sS'SAT'
p21
I0
ssS'gid'
p22
S'wrep'
p23
sS'eid'
p24
S'update'
p25
sS'timeout'
p26
I0
sS'max'
p27
I0
sS'tid'
p28
NsS'dur'
p29
F1.3344000080905971e-05
sba(iandrea.events
WeatherEvent
p30
(dp31
g4
I0
sg5
F1092.904273291
sg6
I0
sg7
Nsg8
I00
sg9
F1092.9042823340001
sg10
(dp32
g12
I0
sg13
I3
sg14
I3
sg15
I0
sg16
I0
sg17
I0
sg18
I0
sg19
I0
sg20
I50
sg21
I0
ssg22
g23
sg24
g25
sg26
I0
sg27
I0
sg28
Nsg29
F9.0430000909691444e-06
sba(iandrea.events
WeatherEvent
p33
(dp34
g4
I0
sg5
F1102.905959794
sg6
I0
sg7
Nsg8
I00
sg9
F1102.9059683949999
sg10
(dp35
g12
I0
sg13
I3
sg14
I3
sg15
I0
sg16
I0
sg17
I0
sg18
I0
sg19
I0
sg20
I50
sg21
I0
ssg22
g23
sg24
g25
sg26
I0
sg27
I0
sg28
Nsg29
F8.6009999904490542e-06
sba(iandrea.events
WeatherEvent
p36
(dp37
g4
I0
sg5
F1112.9068800980001
sg6
I0
sg7
Nsg8
I00
sg9
F1112.906890558
sg10
(dp38
g12
I0
sg13
I3
sg14
I3
sg15
I0
sg16
I0
sg17
I0
sg18
I0
sg19
I0
sg20
I50
sg21
I0
ssg22
g23
sg24
g25
sg26
I0
sg27
I0
sg28
Nsg29
F1.0459999884915305e-05
sba(iandrea.events
WeatherEvent
p39
(dp40
g4
I0
sg5
F1122.9087177649999
sg6
I0
sg7
Nsg8
I00
sg9
F1122.908729597
sg10
(dp41
g12
I0
sg13
I3
sg14
I3
sg15
I0
sg16
I0
sg17
I0
sg18
I0
sg19
I0
sg20
I50
sg21
I0
ssg22
g23
sg24
g25
sg26
I0
sg27
I0
sg28
Nsg29
F1.1832000154754496e-05
sba(iandrea.events
WeatherEvent
p42
(dp43
g4
I0
sg5
F1132.9101163989999
sg6
I0
sg7
Nsg8
I00
sg9
F1132.9101265849999
sg10
(dp44
g12
I0
sg13
I3
sg14
I3
sg15
I0
sg16
I0
sg17
I0
sg18
I0
sg19
I0
sg20
I50
sg21
I0
ssg22
g23
sg24
g25
sg26
I0
sg27
I0
sg28
Nsg29
F1.0186000054090982e-05
sba(iandrea.events
WeatherEvent
p45
(dp46
g4
I0
sg5
F1142.910767004
sg6
I0
sg7
Nsg8
I00
sg9
F1142.910784377
sg10
(dp47
g12
I0
sg13
I3
sg14
I3
sg15
I0
sg16
I0
sg17
I0
sg18
I0
sg19
I0
sg20
I50
sg21
I0
ssg22
g23
sg24
g25
sg26
I0
sg27
I0
sg28
Nsg29
F1.7372999991493998e-05
sba(iandrea.events
WeatherEvent
p48
(dp49
g4
I0
sg5
F1152.911524184
sg6
I0
sg7
Nsg8
I00
sg9
F1152.9115429880001
sg10
(dp50
g12
I0
sg13
I3
sg14
I3
sg15
I0
sg16
I0
sg17
I0
sg18
I0
sg19
I0
sg20
I50
sg21
I0
ssg22
g23
sg24
g25
sg26
I0
sg27
I0
sg28
Nsg29
F1.8804000092131901e-05
sba(iandrea.events
WeatherEvent
p51
(dp52
g4
I0
sg5
F1162.9115800479999
sg6
I0
sg7
Nsg8
I00
sg9
F1162.91158991
sg10
(dp53
g12
I0
sg13
I3
sg14
I3
sg15
I0
sg16
I0
sg17
I0
sg18
I0
sg19
I0
sg20
I50
sg21
I0
ssg22
g23
sg24
g25
sg26
I0
sg27
I0
sg28
Nsg29
F9.8620000699156662e-06
sba(iandrea.events
WeatherEvent
p54
(dp55
g4
I0
sg5
F1172.913325644
sg6
I0
sg7
Nsg8
I00
sg9
F1172.913333278
sg10
(dp56
g12
I0
sg13
I3
sg14
I3
sg15
I0
sg16
I0
sg17
I0
sg18
I0
sg19
I0
sg20
I50
sg21
I0
ssg22
g23
sg24
g25
sg26
I0
sg27
I0
sg28
Nsg29
F7.6339999850461027e-06
sba(iandrea.events
WeatherEvent
p57
(dp58
g4
I0
sg5
F1182.9144673640001
sg6
I0
sg7
Nsg8
I00
sg9
F1182.9144771000001
sg10
(dp59
g12
I0
sg13
I3
sg14
I3
sg15
I0
sg16
I0
sg17
I0
sg18
I0
sg19
I0
sg20
I50
sg21
I0
ssg22
g23
sg24
g25
sg26
I0
sg27
I0
sg28
Nsg29
F9.7360000381740974e-06
sba(iandrea.events
WeatherEvent
p60
(dp61
g4
I0
sg5
F1192.91485515
sg6
I0
sg7
Nsg8
I00
sg9
F1192.9148719980001
sg10
(dp62
g12
I0
sg13
I3
sg14
I3
sg15
I0
sg16
I0
sg17
I0
sg18
I0
sg19
I0
sg20
I50
sg21
I0
ssg22
g23
sg24
g25
sg26
I0
sg27
I0
sg28
Nsg29
F1.6848000086611137e-05
sba(iandrea.events
WeatherEvent
p63
(dp64
g4
I0
sg5
F1202.9164481969999
sg6
I0
sg7
Nsg8
I00
sg9
F1202.9164620019999
sg10
(dp65
g12
I0
sg13
I3
sg14
I3
sg15
I0
sg16
I0
sg17
I0
sg18
I0
sg19
I0
sg20
I50
sg21
I0
ssg22
g23
sg24
g25
sg26
I0
sg27
I0
sg28
Nsg29
F1.3804999980493449e-05
sba(iandrea.events
WeatherEvent
p66
(dp67
g4
I0
sg5
F1212.9181097349999
sg6
I0
sg7
Nsg8
I00
sg9
F1212.9181230009999
sg10
(dp68
g12
I0
sg13
I3
sg14
I3
sg15
I0
sg16
I0
sg17
I0
sg18
I0
sg19
I0
sg20
I50
sg21
I0
ssg22
g23
sg24
g25
sg26
I0
sg27
I0
sg28
Nsg29
F1.3265999996292521e-05
sba(iandrea.events
WeatherEvent
p69
(dp70
g4
I0
sg5
F1222.91886462
sg6
I0
sg7
Nsg8
I00
sg9
F1222.9188709790001
sg10
(dp71
g12
I0
sg13
I3
sg14
I3
sg15
I0
sg16
I0
sg17
I0
sg18
I0
sg19
I0
sg20
I50
sg21
I0
ssg22
g23
sg24
g25
sg26
I0
sg27
I0
sg28
Nsg29
F6.3590000536350999e-06
sba(iandrea.events
WeatherEvent
p72
(dp73
g4
I0
sg5
F1232.9194032360001
sg6
I0
sg7
Nsg8
I00
sg9
F1232.9194125260001
sg10
(dp74
g12
I0
sg13
I3
sg14
I3
sg15
I0
sg16
I0
sg17
I0
sg18
I0
sg19
I0
sg20
I50
sg21
I0
ssg22
g23
sg24
g25
sg26
I0
sg27
I0
sg28
Nsg29
F9.2899999799556099e-06
sba(iandrea.events
WeatherEvent
p75
(dp76
g4
I0
sg5
F1242.92075505
sg6
I0
sg7
Nsg8
I00
sg9
F1242.9207693880001
sg10
(dp77
g12
I0
sg13
I3
sg14
I3
sg15
I0
sg16
I0
sg17
I0
sg18
I0
sg19
I0
sg20
I50
sg21
I0
ssg22
g23
sg24
g25
sg26
I0
sg27
I0
sg28
Nsg29
F1.433800002814678e-05
sba(iandrea.events
WeatherEvent
p78
(dp79
g4
I0
sg5
F1252.9207009530001
sg6
I0
sg7
Nsg8
I00
sg9
F1252.9207151149999
sg10
(dp80
g12
I0
sg13
I3
sg14
I3
sg15
I0
sg16
I0
sg17
I0
sg18
I0
sg19
I0
sg20
I50
sg21
I0
ssg22
g23
sg24
g25
sg26
I0
sg27
I0
sg28
Nsg29
F1.4161999843054218e-05
sba(iandrea.events
WeatherEvent
p81
(dp82
g4
I0
sg5
F1262.9228118599999
sg6
I0
sg7
Nsg8
I00
sg9
F1262.92282841
sg10
(dp83
g12
I0
sg13
I3
sg14
I3
sg15
I0
sg16
I0
sg17
I0
sg18
I0
sg19
I0
sg20
I50
sg21
I0
ssg22
g23
sg24
g25
sg26
I0
sg27
I0
sg28
Nsg29
F1.6550000054849079e-05
sba(iandrea.events
WeatherEvent
p84
(dp85
g4
I0
sg5
F1272.9244169890001
sg6
I0
sg7
Nsg8
I00
sg9
F1272.9244283149999
sg10
(dp86
g12
I0
sg13
I3
sg14
I3
sg15
I0
sg16
I0
sg17
I0
sg18
I0
sg19
I0
sg20
I50
sg21
I0
ssg22
g23
sg24
g25
sg26
I0
sg27
I0
sg28
Nsg29
F1.1325999821565347e-05
sba(iandrea.events
WeatherEvent
p87
(dp88
g4
I0
sg5
F1282.9250922240001
sg6
I0
sg7
Nsg8
I00
sg9
F1282.925100659
sg10
(dp89
g12
I0
sg13
I3
sg14
I3
sg15
I0
sg16
I0
sg17
I0
sg18
I0
sg19
I0
sg20
I50
sg21
I0
ssg22
g23
sg24
g25
sg26
I0
sg27
I0
sg28
Nsg29
F8.4349999269761611e-06
sba.