(lp1
(iandrea.events
WeatherEvent
p2
(dp3
S'src'
p4
I0
sS't_i'
p5
F0.0039234240000496357
sS'level'
p6
I0
sS'res'
p7
NsS'inv'
p8
I00
sS't_f'
p9
F0.0039294850000715087
sS'etc'
p10
(dp11
S'workers_idle'
p12
I0
sS'workers_busy'
p13
I0
sS'tasks_busy'
p14
I0
sS'MEMOUT'
p15
I0
sS'UNSAT'
p16
I0
sS'TIMEOUT'
p17
I0
sS'ERROR'
p18
I0
sS'tasks_done'
p19
I0
sS'tasks_idle'
p20
I0
sS'SAT'
p21
I0
ssS'gid'
p22
S'wrep'
p23
sS'eid'
p24
S'preinit'
p25
sS'timeout'
p26
I0
sS'max'
p27
I0
sS'tid'
p28
NsS'dur'
p29
F6.061000021873042e-06
sba(iandrea.events
Event
p30
(dp31
g4
I0
sg5
F0.0039976350000188177
sg6
I0
sg7
S'1 tasks'
p32
sg8
I00
sg9
F23.836926048000009
sg10
(dp33
sg22
S'main'
p34
sg24
S'queue.create'
p35
sg26
I0
sg27
I0
sg28
Nsg29
F23.832928412999991
sba(iandrea.events
WeatherEvent
p36
(dp37
g4
I0
sg5
F23.837030974000072
sg6
I0
sg7
Nsg8
I00
sg9
F23.837034254000059
sg10
(dp38
g12
I0
sg13
I0
sg14
I0
sg15
I0
sg16
I0
sg17
I0
sg18
I0
sg19
I0
sg20
I1
sg21
I0
ssg22
g23
sg24
S'initial'
p39
sg26
I0
sg27
I0
sg28
Nsg29
F3.2799999871713226e-06
sba(iandrea.events
WeatherEvent
p40
(dp41
g4
I0
sg5
F33.838890378999963
sg6
I0
sg7
Nsg8
I00
sg9
F33.838895532000038
sg10
(dp42
g12
I0
sg13
I0
sg14
I0
sg15
I0
sg16
I0
sg17
I0
sg18
I0
sg19
I0
sg20
I1
sg21
I0
ssg22
g23
sg24
S'update'
p43
sg26
I0
sg27
I0
sg28
Nsg29
F5.1530000746424776e-06
sba(iandrea.events
WeatherEvent
p44
(dp45
g4
I0
sg5
F43.83957671600001
sg6
I0
sg7
Nsg8
I00
sg9
F43.839582124999993
sg10
(dp46
g12
I0
sg13
I0
sg14
I0
sg15
I0
sg16
I0
sg17
I0
sg18
I0
sg19
I0
sg20
I1
sg21
I0
ssg22
g23
sg24
g43
sg26
I0
sg27
I0
sg28
Nsg29
F5.4089999821371748e-06
sba(iandrea.events
WeatherEvent
p47
(dp48
g4
I0
sg5
F53.841476644000068
sg6
I0
sg7
Nsg8
I00
sg9
F53.841481554999973
sg10
(dp49
g12
I0
sg13
I0
sg14
I0
sg15
I0
sg16
I0
sg17
I0
sg18
I0
sg19
I0
sg20
I1
sg21
I0
ssg22
g23
sg24
g43
sg26
I0
sg27
I0
sg28
Nsg29
F4.9109999054053333e-06
sba(iandrea.events
WeatherEvent
p50
(dp51
g4
I0
sg5
F63.84267206800007
sg6
I0
sg7
Nsg8
I00
sg9
F63.842677330000015
sg10
(dp52
g12
I0
sg13
I0
sg14
I0
sg15
I0
sg16
I0
sg17
I0
sg18
I0
sg19
I0
sg20
I1
sg21
I0
ssg22
g23
sg24
g43
sg26
I0
sg27
I0
sg28
Nsg29
F5.2619999451053445e-06
sba(iandrea.events
WeatherEvent
p53
(dp54
g4
I0
sg5
F73.843521234000036
sg6
I0
sg7
Nsg8
I00
sg9
F73.843526248999979
sg10
(dp55
g12
I0
sg13
I0
sg14
I0
sg15
I0
sg16
I0
sg17
I0
sg18
I0
sg19
I0
sg20
I1
sg21
I0
ssg22
g23
sg24
g43
sg26
I0
sg27
I0
sg28
Nsg29
F5.0149999424320413e-06
sba(iandrea.events
WeatherEvent
p56
(dp57
g4
I0
sg5
F83.845282705000045
sg6
I0
sg7
Nsg8
I00
sg9
F83.845287491000022
sg10
(dp58
g12
I0
sg13
I0
sg14
I0
sg15
I0
sg16
I0
sg17
I0
sg18
I0
sg19
I0
sg20
I1
sg21
I0
ssg22
g23
sg24
g43
sg26
I0
sg27
I0
sg28
Nsg29
F4.7859999767752015e-06
sba(iandrea.events
WeatherEvent
p59
(dp60
g4
I0
sg5
F93.845385780000015
sg6
I0
sg7
Nsg8
I00
sg9
F93.845391586000005
sg10
(dp61
g12
I0
sg13
I0
sg14
I0
sg15
I0
sg16
I0
sg17
I0
sg18
I0
sg19
I0
sg20
I1
sg21
I0
ssg22
g23
sg24
g43
sg26
I0
sg27
I0
sg28
Nsg29
F5.8059999901161063e-06
sba(iandrea.events
WeatherEvent
p62
(dp63
g4
I0
sg5
F103.845807906
sg6
I0
sg7
Nsg8
I00
sg9
F103.84581285000002
sg10
(dp64
g12
I0
sg13
I0
sg14
I0
sg15
I0
sg16
I0
sg17
I0
sg18
I0
sg19
I0
sg20
I1
sg21
I0
ssg22
g23
sg24
g43
sg26
I0
sg27
I0
sg28
Nsg29
F4.9440000111644622e-06
sba(iandrea.events
WeatherEvent
p65
(dp66
g4
I0
sg5
F113.84769675200005
sg6
I0
sg7
Nsg8
I00
sg9
F113.84770219799998
sg10
(dp67
g12
I0
sg13
I0
sg14
I0
sg15
I0
sg16
I0
sg17
I0
sg18
I0
sg19
I0
sg20
I1
sg21
I0
ssg22
g23
sg24
g43
sg26
I0
sg27
I0
sg28
Nsg29
F5.4459999319078634e-06
sba(iandrea.events
WeatherEvent
p68
(dp69
g4
I0
sg5
F123.84779694500003
sg6
I0
sg7
Nsg8
I00
sg9
F123.84780203100001
sg10
(dp70
g12
I0
sg13
I0
sg14
I0
sg15
I0
sg16
I0
sg17
I0
sg18
I0
sg19
I0
sg20
I1
sg21
I0
ssg22
g23
sg24
g43
sg26
I0
sg27
I0
sg28
Nsg29
F5.0859999873864581e-06
sba(iandrea.events
WeatherEvent
p71
(dp72
g4
I0
sg5
F133.84809148700003
sg6
I0
sg7
Nsg8
I00
sg9
F133.84809744699999
sg10
(dp73
g12
I0
sg13
I0
sg14
I0
sg15
I0
sg16
I0
sg17
I0
sg18
I0
sg19
I0
sg20
I1
sg21
I0
ssg22
g23
sg24
g43
sg26
I0
sg27
I0
sg28
Nsg29
F5.959999953120132e-06
sba(iandrea.events
WeatherEvent
p74
(dp75
g4
I0
sg5
F143.85148813600006
sg6
I0
sg7
Nsg8
I00
sg9
F143.85149325899999
sg10
(dp76
g12
I0
sg13
I0
sg14
I0
sg15
I0
sg16
I0
sg17
I0
sg18
I0
sg19
I0
sg20
I1
sg21
I0
ssg22
g23
sg24
g43
sg26
I0
sg27
I0
sg28
Nsg29
F5.1229999371571466e-06
sba(iandrea.events
WeatherEvent
p77
(dp78
g4
I0
sg5
F153.85168908000003
sg6
I0
sg7
Nsg8
I00
sg9
F153.85169396000003
sg10
(dp79
g12
I0
sg13
I0
sg14
I0
sg15
I0
sg16
I0
sg17
I0
sg18
I0
sg19
I0
sg20
I1
sg21
I0
ssg22
g23
sg24
g43
sg26
I0
sg27
I0
sg28
Nsg29
F4.8800000058690784e-06
sba(iandrea.events
WeatherEvent
p80
(dp81
g4
I0
sg5
F163.85452864900003
sg6
I0
sg7
Nsg8
I00
sg9
F163.85453396700007
sg10
(dp82
g12
I0
sg13
I0
sg14
I0
sg15
I0
sg16
I0
sg17
I0
sg18
I0
sg19
I0
sg20
I1
sg21
I0
ssg22
g23
sg24
g43
sg26
I0
sg27
I0
sg28
Nsg29
F5.3180000350039336e-06
sba(iandrea.events
WeatherEvent
p83
(dp84
g4
I0
sg5
F173.856658154
sg6
I0
sg7
Nsg8
I00
sg9
F173.85666352800001
sg10
(dp85
g12
I0
sg13
I0
sg14
I0
sg15
I0
sg16
I0
sg17
I0
sg18
I0
sg19
I0
sg20
I1
sg21
I0
ssg22
g23
sg24
g43
sg26
I0
sg27
I0
sg28
Nsg29
F5.3740000112156849e-06
sba(iandrea.events
WeatherEvent
p86
(dp87
g4
I0
sg5
F183.85790376600005
sg6
I0
sg7
Nsg8
I00
sg9
F183.85790872400003
sg10
(dp88
g12
I0
sg13
I0
sg14
I0
sg15
I0
sg16
I0
sg17
I0
sg18
I0
sg19
I0
sg20
I1
sg21
I0
ssg22
g23
sg24
g43
sg26
I0
sg27
I0
sg28
Nsg29
F4.9579999767956906e-06
sba(iandrea.events
WeatherEvent
p89
(dp90
g4
I0
sg5
F193.85997393599996
sg6
I0
sg7
Nsg8
I00
sg9
F193.85998679700003
sg10
(dp91
g12
I0
sg13
I0
sg14
I0
sg15
I0
sg16
I0
sg17
I0
sg18
I0
sg19
I0
sg20
I1
sg21
I0
ssg22
g23
sg24
g43
sg26
I0
sg27
I0
sg28
Nsg29
F1.2861000072916795e-05
sba(iandrea.events
WeatherEvent
p92
(dp93
g4
I0
sg5
F203.86164167699997
sg6
I0
sg7
Nsg8
I00
sg9
F203.86164785100004
sg10
(dp94
g12
I0
sg13
I0
sg14
I0
sg15
I0
sg16
I0
sg17
I0
sg18
I0
sg19
I0
sg20
I1
sg21
I0
ssg22
g23
sg24
g43
sg26
I0
sg27
I0
sg28
Nsg29
F6.1740000774079817e-06
sba.