(lp1
(iandrea.events
WeatherEvent
p2
(dp3
S'src'
p4
I0
sS't_i'
p5
F0.0018682710000348379
sS'level'
p6
I0
sS'res'
p7
NsS'inv'
p8
I00
sS't_f'
p9
F0.0018735710000328254
sS'etc'
p10
(dp11
S'workers_idle'
p12
I0
sS'workers_busy'
p13
I0
sS'tasks_busy'
p14
I0
sS'MEMOUT'
p15
I0
sS'UNSAT'
p16
I0
sS'TIMEOUT'
p17
I0
sS'ERROR'
p18
I0
sS'tasks_done'
p19
I0
sS'tasks_idle'
p20
I0
sS'SAT'
p21
I0
ssS'gid'
p22
S'wrep'
p23
sS'eid'
p24
S'preinit'
p25
sS'timeout'
p26
I0
sS'max'
p27
I0
sS'tid'
p28
NsS'dur'
p29
F5.2999999979874701e-06
sba(iandrea.events
Event
p30
(dp31
g4
I0
sg5
F0.0019079579999470297
sg6
I0
sg7
S'1 tasks'
p32
sg8
I00
sg9
F18.831137416000047
sg10
(dp33
sg22
S'main'
p34
sg24
S'queue.create'
p35
sg26
I0
sg27
I0
sg28
Nsg29
F18.8292294580001
sba(iandrea.events
WeatherEvent
p36
(dp37
g4
I0
sg5
F18.831172113999969
sg6
I0
sg7
Nsg8
I00
sg9
F18.831174852000004
sg10
(dp38
g12
I0
sg13
I0
sg14
I0
sg15
I0
sg16
I0
sg17
I0
sg18
I0
sg19
I0
sg20
I1
sg21
I0
ssg22
g23
sg24
S'initial'
p39
sg26
I0
sg27
I0
sg28
Nsg29
F2.7380000346965971e-06
sba(iandrea.events
WeatherEvent
p40
(dp41
g4
I0
sg5
F28.83294832699994
sg6
I0
sg7
Nsg8
I00
sg9
F28.832954511000025
sg10
(dp42
g12
I0
sg13
I0
sg14
I0
sg15
I0
sg16
I0
sg17
I0
sg18
I0
sg19
I0
sg20
I1
sg21
I0
ssg22
g23
sg24
S'update'
p43
sg26
I0
sg27
I0
sg28
Nsg29
F6.1840000853408128e-06
sba(iandrea.events
WeatherEvent
p44
(dp45
g4
I0
sg5
F38.833417105999956
sg6
I0
sg7
Nsg8
I00
sg9
F38.833422746999986
sg10
(dp46
g12
I0
sg13
I0
sg14
I0
sg15
I0
sg16
I0
sg17
I0
sg18
I0
sg19
I0
sg20
I1
sg21
I0
ssg22
g23
sg24
g43
sg26
I0
sg27
I0
sg28
Nsg29
F5.6410000297546503e-06
sba(iandrea.events
WeatherEvent
p47
(dp48
g4
I0
sg5
F48.834351735000041
sg6
I0
sg7
Nsg8
I00
sg9
F48.834359384999971
sg10
(dp49
g12
I0
sg13
I0
sg14
I0
sg15
I0
sg16
I0
sg17
I0
sg18
I0
sg19
I0
sg20
I1
sg21
I0
ssg22
g23
sg24
g43
sg26
I0
sg27
I0
sg28
Nsg29
F7.6499999295265297e-06
sba(iandrea.events
WeatherEvent
p50
(dp51
g4
I0
sg5
F58.834633483999937
sg6
I0
sg7
Nsg8
I00
sg9
F58.834638565999967
sg10
(dp52
g12
I0
sg13
I0
sg14
I0
sg15
I0
sg16
I0
sg17
I0
sg18
I0
sg19
I0
sg20
I1
sg21
I0
ssg22
g23
sg24
g43
sg26
I0
sg27
I0
sg28
Nsg29
F5.0820000296880607e-06
sba(iandrea.events
WeatherEvent
p53
(dp54
g4
I0
sg5
F68.835761348999995
sg6
I0
sg7
Nsg8
I00
sg9
F68.835766605000003
sg10
(dp55
g12
I0
sg13
I0
sg14
I0
sg15
I0
sg16
I0
sg17
I0
sg18
I0
sg19
I0
sg20
I1
sg21
I0
ssg22
g23
sg24
g43
sg26
I0
sg27
I0
sg28
Nsg29
F5.2560000085577485e-06
sba(iandrea.events
WeatherEvent
p56
(dp57
g4
I0
sg5
F78.836379513999987
sg6
I0
sg7
Nsg8
I00
sg9
F78.836384639000016
sg10
(dp58
g12
I0
sg13
I0
sg14
I0
sg15
I0
sg16
I0
sg17
I0
sg18
I0
sg19
I0
sg20
I1
sg21
I0
ssg22
g23
sg24
g43
sg26
I0
sg27
I0
sg28
Nsg29
F5.125000029693183e-06
sba(iandrea.events
WeatherEvent
p59
(dp60
g4
I0
sg5
F88.838604076000024
sg6
I0
sg7
Nsg8
I00
sg9
F88.838610022000012
sg10
(dp61
g12
I0
sg13
I0
sg14
I0
sg15
I0
sg16
I0
sg17
I0
sg18
I0
sg19
I0
sg20
I1
sg21
I0
ssg22
g23
sg24
g43
sg26
I0
sg27
I0
sg28
Nsg29
F5.9459999874889036e-06
sba(iandrea.events
WeatherEvent
p62
(dp63
g4
I0
sg5
F98.840512182999987
sg6
I0
sg7
Nsg8
I00
sg9
F98.840516884999943
sg10
(dp64
g12
I0
sg13
I0
sg14
I0
sg15
I0
sg16
I0
sg17
I0
sg18
I0
sg19
I0
sg20
I1
sg21
I0
ssg22
g23
sg24
g43
sg26
I0
sg27
I0
sg28
Nsg29
F4.7019999556141556e-06
sba(iandrea.events
WeatherEvent
p65
(dp66
g4
I0
sg5
F108.84068366899999
sg6
I0
sg7
Nsg8
I00
sg9
F108.84068912600003
sg10
(dp67
g12
I0
sg13
I0
sg14
I0
sg15
I0
sg16
I0
sg17
I0
sg18
I0
sg19
I0
sg20
I1
sg21
I0
ssg22
g23
sg24
g43
sg26
I0
sg27
I0
sg28
Nsg29
F5.4570000429521315e-06
sba(iandrea.events
WeatherEvent
p68
(dp69
g4
I0
sg5
F118.840964493
sg6
I0
sg7
Nsg8
I00
sg9
F118.84096983500001
sg10
(dp70
g12
I0
sg13
I0
sg14
I0
sg15
I0
sg16
I0
sg17
I0
sg18
I0
sg19
I0
sg20
I1
sg21
I0
ssg22
g23
sg24
g43
sg26
I0
sg27
I0
sg28
Nsg29
F5.3420000085679931e-06
sba(iandrea.events
WeatherEvent
p71
(dp72
g4
I0
sg5
F128.84171244899994
sg6
I0
sg7
Nsg8
I00
sg9
F128.841717937
sg10
(dp73
g12
I0
sg13
I0
sg14
I0
sg15
I0
sg16
I0
sg17
I0
sg18
I0
sg19
I0
sg20
I1
sg21
I0
ssg22
g23
sg24
g43
sg26
I0
sg27
I0
sg28
Nsg29
F5.488000056175224e-06
sba(iandrea.events
WeatherEvent
p74
(dp75
g4
I0
sg5
F138.84186804399997
sg6
I0
sg7
Nsg8
I00
sg9
F138.84187380399999
sg10
(dp76
g12
I0
sg13
I0
sg14
I0
sg15
I0
sg16
I0
sg17
I0
sg18
I0
sg19
I0
sg20
I1
sg21
I0
ssg22
g23
sg24
g43
sg26
I0
sg27
I0
sg28
Nsg29
F5.7600000218371861e-06
sba(iandrea.events
WeatherEvent
p77
(dp78
g4
I0
sg5
F148.84208416900003
sg6
I0
sg7
Nsg8
I00
sg9
F148.842088967
sg10
(dp79
g12
I0
sg13
I0
sg14
I0
sg15
I0
sg16
I0
sg17
I0
sg18
I0
sg19
I0
sg20
I1
sg21
I0
ssg22
g23
sg24
g43
sg26
I0
sg27
I0
sg28
Nsg29
F4.7979999635572312e-06
sba(iandrea.events
WeatherEvent
p80
(dp81
g4
I0
sg5
F158.84249142900001
sg6
I0
sg7
Nsg8
I00
sg9
F158.84249761199999
sg10
(dp82
g12
I0
sg13
I0
sg14
I0
sg15
I0
sg16
I0
sg17
I0
sg18
I0
sg19
I0
sg20
I1
sg21
I0
ssg22
g23
sg24
g43
sg26
I0
sg27
I0
sg28
Nsg29
F6.1829999822293757e-06
sba(iandrea.events
WeatherEvent
p83
(dp84
g4
I0
sg5
F168.84381801099994
sg6
I0
sg7
Nsg8
I00
sg9
F168.84382335099997
sg10
(dp85
g12
I0
sg13
I0
sg14
I0
sg15
I0
sg16
I0
sg17
I0
sg18
I0
sg19
I0
sg20
I1
sg21
I0
ssg22
g23
sg24
g43
sg26
I0
sg27
I0
sg28
Nsg29
F5.3400000297187944e-06
sba(iandrea.events
WeatherEvent
p86
(dp87
g4
I0
sg5
F178.84482023199996
sg6
I0
sg7
Nsg8
I00
sg9
F178.84482568099997
sg10
(dp88
g12
I0
sg13
I0
sg14
I0
sg15
I0
sg16
I0
sg17
I0
sg18
I0
sg19
I0
sg20
I1
sg21
I0
ssg22
g23
sg24
g43
sg26
I0
sg27
I0
sg28
Nsg29
F5.4490000138684991e-06
sba(iandrea.events
WeatherEvent
p89
(dp90
g4
I0
sg5
F188.84752223199996
sg6
I0
sg7
Nsg8
I00
sg9
F188.84752758399998
sg10
(dp91
g12
I0
sg13
I0
sg14
I0
sg15
I0
sg16
I0
sg17
I0
sg18
I0
sg19
I0
sg20
I1
sg21
I0
ssg22
g23
sg24
g43
sg26
I0
sg27
I0
sg28
Nsg29
F5.3520000165008241e-06
sba(iandrea.events
WeatherEvent
p92
(dp93
g4
I0
sg5
F198.84937968199995
sg6
I0
sg7
Nsg8
I00
sg9
F198.84938475800004
sg10
(dp94
g12
I0
sg13
I0
sg14
I0
sg15
I0
sg16
I0
sg17
I0
sg18
I0
sg19
I0
sg20
I1
sg21
I0
ssg22
g23
sg24
g43
sg26
I0
sg27
I0
sg28
Nsg29
F5.0760000931404647e-06
sba.