(lp1
(iandrea.events
WeatherEvent
p2
(dp3
S'src'
p4
I0
sS't_i'
p5
F0.15189828
sS'level'
p6
I0
sS'res'
p7
NsS'inv'
p8
I00
sS't_f'
p9
F0.1519047
sS'etc'
p10
(dp11
S'workers_idle'
p12
I0
sS'workers_busy'
p13
I0
sS'tasks_busy'
p14
I0
sS'MEMOUT'
p15
I0
sS'UNSAT'
p16
I0
sS'TIMEOUT'
p17
I0
sS'ERROR'
p18
I0
sS'tasks_done'
p19
I0
sS'tasks_idle'
p20
I0
sS'SAT'
p21
I0
ssS'gid'
p22
S'wrep'
p23
sS'eid'
p24
S'preinit'
p25
sS'timeout'
p26
I0
sS'max'
p27
I0
sS'tid'
p28
NsS'dur'
p29
F6.4200000000069757e-06
sba(iandrea.events
Event
p30
(dp31
g4
I0
sg5
F0.151961443
sg6
I0
sg7
S'1 tasks'
p32
sg8
I00
sg9
F63.753019488
sg10
(dp33
sg22
S'main'
p34
sg24
S'queue.create'
p35
sg26
I0
sg27
I0
sg28
Nsg29
F63.601058045000002
sba(iandrea.events
WeatherEvent
p36
(dp37
g4
I0
sg5
F63.753106099
sg6
I0
sg7
Nsg8
I00
sg9
F63.753110915000001
sg10
(dp38
g12
I0
sg13
I0
sg14
I0
sg15
I0
sg16
I0
sg17
I0
sg18
I0
sg19
I0
sg20
I1
sg21
I0
ssg22
g23
sg24
S'initial'
p39
sg26
I0
sg27
I0
sg28
Nsg29
F4.8160000005736947e-06
sba(iandrea.events
WeatherEvent
p40
(dp41
g4
I0
sg5
F73.754108661999993
sg6
I0
sg7
Nsg8
I00
sg9
F73.754120787999994
sg10
(dp42
g12
I0
sg13
I3
sg14
I3
sg15
I0
sg16
I0
sg17
I0
sg18
I0
sg19
I0
sg20
I50
sg21
I0
ssg22
g23
sg24
S'update'
p43
sg26
I0
sg27
I0
sg28
Nsg29
F1.2126000001444481e-05
sba(iandrea.events
WeatherEvent
p44
(dp45
g4
I0
sg5
F83.755985355000007
sg6
I0
sg7
Nsg8
I00
sg9
F83.756009047999996
sg10
(dp46
g12
I0
sg13
I3
sg14
I3
sg15
I0
sg16
I0
sg17
I0
sg18
I0
sg19
I0
sg20
I50
sg21
I0
ssg22
g23
sg24
g43
sg26
I0
sg27
I0
sg28
Nsg29
F2.3692999988611518e-05
sba(iandrea.events
WeatherEvent
p47
(dp48
g4
I0
sg5
F93.756771989000001
sg6
I0
sg7
Nsg8
I00
sg9
F93.756782770000001
sg10
(dp49
g12
I0
sg13
I3
sg14
I3
sg15
I0
sg16
I0
sg17
I0
sg18
I0
sg19
I0
sg20
I50
sg21
I0
ssg22
g23
sg24
g43
sg26
I0
sg27
I0
sg28
Nsg29
F1.0781000000292806e-05
sba(iandrea.events
WeatherEvent
p50
(dp51
g4
I0
sg5
F103.75813193899999
sg6
I0
sg7
Nsg8
I00
sg9
F103.758140326
sg10
(dp52
g12
I0
sg13
I3
sg14
I3
sg15
I0
sg16
I0
sg17
I0
sg18
I0
sg19
I0
sg20
I50
sg21
I0
ssg22
g23
sg24
g43
sg26
I0
sg27
I0
sg28
Nsg29
F8.3870000082697516e-06
sba(iandrea.events
WeatherEvent
p53
(dp54
g4
I0
sg5
F113.759953907
sg6
I0
sg7
Nsg8
I00
sg9
F113.75996488600001
sg10
(dp55
g12
I0
sg13
I3
sg14
I3
sg15
I0
sg16
I0
sg17
I0
sg18
I0
sg19
I0
sg20
I50
sg21
I0
ssg22
g23
sg24
g43
sg26
I0
sg27
I0
sg28
Nsg29
F1.0979000009569972e-05
sba(iandrea.events
WeatherEvent
p56
(dp57
g4
I0
sg5
F123.76011237100001
sg6
I0
sg7
Nsg8
I00
sg9
F123.760118656
sg10
(dp58
g12
I0
sg13
I3
sg14
I3
sg15
I0
sg16
I0
sg17
I0
sg18
I0
sg19
I0
sg20
I50
sg21
I0
ssg22
g23
sg24
g43
sg26
I0
sg27
I0
sg28
Nsg29
F6.2849999977743209e-06
sba(iandrea.events
WeatherEvent
p59
(dp60
g4
I0
sg5
F133.76147938899999
sg6
I0
sg7
Nsg8
I00
sg9
F133.761488539
sg10
(dp61
g12
I0
sg13
I3
sg14
I3
sg15
I0
sg16
I0
sg17
I0
sg18
I0
sg19
I0
sg20
I50
sg21
I0
ssg22
g23
sg24
g43
sg26
I0
sg27
I0
sg28
Nsg29
F9.1500000110045221e-06
sba(iandrea.events
WeatherEvent
p62
(dp63
g4
I0
sg5
F143.76204199899999
sg6
I0
sg7
Nsg8
I00
sg9
F143.76204987700001
sg10
(dp64
g12
I0
sg13
I3
sg14
I3
sg15
I0
sg16
I0
sg17
I0
sg18
I0
sg19
I0
sg20
I50
sg21
I0
ssg22
g23
sg24
g43
sg26
I0
sg27
I0
sg28
Nsg29
F7.8780000194456079e-06
sba(iandrea.events
WeatherEvent
p65
(dp66
g4
I0
sg5
F153.763384581
sg6
I0
sg7
Nsg8
I00
sg9
F153.76339436999999
sg10
(dp67
g12
I0
sg13
I3
sg14
I3
sg15
I0
sg16
I0
sg17
I0
sg18
I0
sg19
I0
sg20
I50
sg21
I0
ssg22
g23
sg24
g43
sg26
I0
sg27
I0
sg28
Nsg29
F9.7889999892686319e-06
sba(iandrea.events
WeatherEvent
p68
(dp69
g4
I0
sg5
F163.76527083299999
sg6
I0
sg7
Nsg8
I00
sg9
F163.76528693200001
sg10
(dp70
g12
I0
sg13
I3
sg14
I3
sg15
I0
sg16
I0
sg17
I0
sg18
I0
sg19
I0
sg20
I50
sg21
I0
ssg22
g23
sg24
g43
sg26
I0
sg27
I0
sg28
Nsg29
F1.6099000021085885e-05
sba(iandrea.events
WeatherEvent
p71
(dp72
g4
I0
sg5
F173.76639594700001
sg6
I0
sg7
Nsg8
I00
sg9
F173.766410073
sg10
(dp73
g12
I0
sg13
I3
sg14
I3
sg15
I0
sg16
I0
sg17
I0
sg18
I0
sg19
I0
sg20
I50
sg21
I0
ssg22
g23
sg24
g43
sg26
I0
sg27
I0
sg28
Nsg29
F1.4125999996394967e-05
sba(iandrea.events
WeatherEvent
p74
(dp75
g4
I0
sg5
F183.76725188399999
sg6
I0
sg7
Nsg8
I00
sg9
F183.76725763799999
sg10
(dp76
g12
I0
sg13
I3
sg14
I3
sg15
I0
sg16
I0
sg17
I0
sg18
I0
sg19
I0
sg20
I50
sg21
I0
ssg22
g23
sg24
g43
sg26
I0
sg27
I0
sg28
Nsg29
F5.7540000000244618e-06
sba(iandrea.events
WeatherEvent
p77
(dp78
g4
I0
sg5
F193.76902892999999
sg6
I0
sg7
Nsg8
I00
sg9
F193.76903598300001
sg10
(dp79
g12
I0
sg13
I3
sg14
I3
sg15
I0
sg16
I0
sg17
I0
sg18
I0
sg19
I0
sg20
I50
sg21
I0
ssg22
g23
sg24
g43
sg26
I0
sg27
I0
sg28
Nsg29
F7.0530000186863617e-06
sba(iandrea.events
WeatherEvent
p80
(dp81
g4
I0
sg5
F203.77016140999999
sg6
I0
sg7
Nsg8
I00
sg9
F203.77017031700001
sg10
(dp82
g12
I0
sg13
I3
sg14
I3
sg15
I0
sg16
I0
sg17
I0
sg18
I0
sg19
I0
sg20
I50
sg21
I0
ssg22
g23
sg24
g43
sg26
I0
sg27
I0
sg28
Nsg29
F8.907000022873035e-06
sba(iandrea.events
WeatherEvent
p83
(dp84
g4
I0
sg5
F213.771859191
sg6
I0
sg7
Nsg8
I00
sg9
F213.77187367799999
sg10
(dp85
g12
I0
sg13
I3
sg14
I3
sg15
I0
sg16
I0
sg17
I0
sg18
I0
sg19
I0
sg20
I50
sg21
I0
ssg22
g23
sg24
g43
sg26
I0
sg27
I0
sg28
Nsg29
F1.448699998718439e-05
sba(iandrea.events
WeatherEvent
p86
(dp87
g4
I0
sg5
F223.77356911300001
sg6
I0
sg7
Nsg8
I00
sg9
F223.77357980799999
sg10
(dp88
g12
I0
sg13
I3
sg14
I3
sg15
I0
sg16
I0
sg17
I0
sg18
I0
sg19
I0
sg20
I50
sg21
I0
ssg22
g23
sg24
g43
sg26
I0
sg27
I0
sg28
Nsg29
F1.0694999986071707e-05
sba(iandrea.events
WeatherEvent
p89
(dp90
g4
I0
sg5
F233.775561762
sg6
I0
sg7
Nsg8
I00
sg9
F233.775571517
sg10
(dp91
g12
I0
sg13
I3
sg14
I3
sg15
I0
sg16
I0
sg17
I0
sg18
I0
sg19
I0
sg20
I50
sg21
I0
ssg22
g23
sg24
g43
sg26
I0
sg27
I0
sg28
Nsg29
F9.7550000077717414e-06
sba(iandrea.events
WeatherEvent
p92
(dp93
g4
I0
sg5
F243.777183388
sg6
I0
sg7
Nsg8
I00
sg9
F243.77719163800001
sg10
(dp94
g12
I0
sg13
I3
sg14
I3
sg15
I0
sg16
I0
sg17
I0
sg18
I0
sg19
I0
sg20
I50
sg21
I0
ssg22
g23
sg24
g43
sg26
I0
sg27
I0
sg28
Nsg29
F8.2500000075924618e-06
sba.(lp1
(iandrea.events
WeatherEvent
p2
(dp3
S'src'
p4
I0
sS't_i'
p5
F253.77743638999999
sS'level'
p6
I0
sS'res'
p7
NsS'inv'
p8
I00
sS't_f'
p9
F253.77744708500001
sS'etc'
p10
(dp11
S'workers_idle'
p12
I0
sS'workers_busy'
p13
I3
sS'tasks_busy'
p14
I3
sS'MEMOUT'
p15
I0
sS'UNSAT'
p16
I0
sS'TIMEOUT'
p17
I0
sS'ERROR'
p18
I0
sS'tasks_done'
p19
I0
sS'tasks_idle'
p20
I50
sS'SAT'
p21
I0
ssS'gid'
p22
S'wrep'
p23
sS'eid'
p24
S'update'
p25
sS'timeout'
p26
I0
sS'max'
p27
I0
sS'tid'
p28
NsS'dur'
p29
F1.0695000014493417e-05
sba(iandrea.events
WeatherEvent
p30
(dp31
g4
I0
sg5
F263.77840013799999
sg6
I0
sg7
Nsg8
I00
sg9
F263.778406002
sg10
(dp32
g12
I0
sg13
I3
sg14
I3
sg15
I0
sg16
I0
sg17
I0
sg18
I0
sg19
I0
sg20
I50
sg21
I0
ssg22
g23
sg24
g25
sg26
I0
sg27
I0
sg28
Nsg29
F5.8640000020204752e-06
sba(iandrea.events
WeatherEvent
p33
(dp34
g4
I0
sg5
F273.77860288099998
sg6
I0
sg7
Nsg8
I00
sg9
F273.77861146399999
sg10
(dp35
g12
I0
sg13
I3
sg14
I3
sg15
I0
sg16
I0
sg17
I0
sg18
I0
sg19
I0
sg20
I50
sg21
I0
ssg22
g23
sg24
g25
sg26
I0
sg27
I0
sg28
Nsg29
F8.5830000102760096e-06
sba(iandrea.events
WeatherEvent
p36
(dp37
g4
I0
sg5
F283.77940104300001
sg6
I0
sg7
Nsg8
I00
sg9
F283.77940963999998
sg10
(dp38
g12
I0
sg13
I3
sg14
I3
sg15
I0
sg16
I0
sg17
I0
sg18
I0
sg19
I0
sg20
I50
sg21
I0
ssg22
g23
sg24
g25
sg26
I0
sg27
I0
sg28
Nsg29
F8.596999975907238e-06
sba(iandrea.events
WeatherEvent
p39
(dp40
g4
I0
sg5
F293.77999813500003
sg6
I0
sg7
Nsg8
I00
sg9
F293.78000547099998
sg10
(dp41
g12
I0
sg13
I3
sg14
I3
sg15
I0
sg16
I0
sg17
I0
sg18
I0
sg19
I0
sg20
I50
sg21
I0
ssg22
g23
sg24
g25
sg26
I0
sg27
I0
sg28
Nsg29
F7.3359999532840448e-06
sba(iandrea.events
WeatherEvent
p42
(dp43
g4
I0
sg5
F303.782001321
sg6
I0
sg7
Nsg8
I00
sg9
F303.78201184800002
sg10
(dp44
g12
I0
sg13
I3
sg14
I3
sg15
I0
sg16
I0
sg17
I0
sg18
I0
sg19
I0
sg20
I50
sg21
I0
ssg22
g23
sg24
g25
sg26
I0
sg27
I0
sg28
Nsg29
F1.0527000029014744e-05
sba(iandrea.events
WeatherEvent
p45
(dp46
g4
I0
sg5
F313.78248299199998
sg6
I0
sg7
Nsg8
I00
sg9
F313.78249290999997
sg10
(dp47
g12
I0
sg13
I3
sg14
I3
sg15
I0
sg16
I0
sg17
I0
sg18
I0
sg19
I0
sg20
I50
sg21
I0
ssg22
g23
sg24
g25
sg26
I0
sg27
I0
sg28
Nsg29
F9.9179999892839987e-06
sba(iandrea.events
WeatherEvent
p48
(dp49
g4
I0
sg5
F323.78304951299998
sg6
I0
sg7
Nsg8
I00
sg9
F323.78305932900003
sg10
(dp50
g12
I0
sg13
I3
sg14
I3
sg15
I0
sg16
I0
sg17
I0
sg18
I0
sg19
I0
sg20
I50
sg21
I0
ssg22
g23
sg24
g25
sg26
I0
sg27
I0
sg28
Nsg29
F9.8160000447933271e-06
sba(iandrea.events
WeatherEvent
p51
(dp52
g4
I0
sg5
F333.783754122
sg6
I0
sg7
Nsg8
I00
sg9
F333.78376410700002
sg10
(dp53
g12
I0
sg13
I3
sg14
I3
sg15
I0
sg16
I0
sg17
I0
sg18
I0
sg19
I0
sg20
I50
sg21
I0
ssg22
g23
sg24
g25
sg26
I0
sg27
I0
sg28
Nsg29
F9.9850000196965993e-06
sba(iandrea.events
WeatherEvent
p54
(dp55
g4
I0
sg5
F343.78547780999997
sg6
I0
sg7
Nsg8
I00
sg9
F343.78548704600001
sg10
(dp56
g12
I0
sg13
I3
sg14
I3
sg15
I0
sg16
I0
sg17
I0
sg18
I0
sg19
I0
sg20
I50
sg21
I0
ssg22
g23
sg24
g25
sg26
I0
sg27
I0
sg28
Nsg29
F9.2360000394364761e-06
sba(iandrea.events
WeatherEvent
p57
(dp58
g4
I0
sg5
F353.78612825200003
sg6
I0
sg7
Nsg8
I00
sg9
F353.78614185599997
sg10
(dp59
g12
I0
sg13
I3
sg14
I3
sg15
I0
sg16
I0
sg17
I0
sg18
I0
sg19
I0
sg20
I50
sg21
I0
ssg22
g23
sg24
g25
sg26
I0
sg27
I0
sg28
Nsg29
F1.3603999946099066e-05
sba(iandrea.events
WeatherEvent
p60
(dp61
g4
I0
sg5
F363.786748284
sg6
I0
sg7
Nsg8
I00
sg9
F363.786760453
sg10
(dp62
g12
I0
sg13
I3
sg14
I3
sg15
I0
sg16
I0
sg17
I0
sg18
I0
sg19
I0
sg20
I50
sg21
I0
ssg22
g23
sg24
g25
sg26
I0
sg27
I0
sg28
Nsg29
F1.2169000001449604e-05
sba(iandrea.events
WeatherEvent
p63
(dp64
g4
I0
sg5
F373.78750927200002
sg6
I0
sg7
Nsg8
I00
sg9
F373.78751855100001
sg10
(dp65
g12
I0
sg13
I3
sg14
I3
sg15
I0
sg16
I0
sg17
I0
sg18
I0
sg19
I0
sg20
I50
sg21
I0
ssg22
g23
sg24
g25
sg26
I0
sg27
I0
sg28
Nsg29
F9.2789999825981795e-06
sba(iandrea.events
WeatherEvent
p66
(dp67
g4
I0
sg5
F383.788818429
sg6
I0
sg7
Nsg8
I00
sg9
F383.78882758600002
sg10
(dp68
g12
I0
sg13
I3
sg14
I3
sg15
I0
sg16
I0
sg17
I0
sg18
I0
sg19
I0
sg20
I50
sg21
I0
ssg22
g23
sg24
g25
sg26
I0
sg27
I0
sg28
Nsg29
F9.1570000222418457e-06
sba(iandrea.events
WeatherEvent
p69
(dp70
g4
I0
sg5
F393.788858393
sg6
I0
sg7
Nsg8
I00
sg9
F393.78886806700001
sg10
(dp71
g12
I0
sg13
I3
sg14
I3
sg15
I0
sg16
I0
sg17
I0
sg18
I0
sg19
I0
sg20
I50
sg21
I0
ssg22
g23
sg24
g25
sg26
I0
sg27
I0
sg28
Nsg29
F9.6740000117279124e-06
sba(iandrea.events
WeatherEvent
p72
(dp73
g4
I0
sg5
F403.78901938299998
sg6
I0
sg7
Nsg8
I00
sg9
F403.78902483500002
sg10
(dp74
g12
I0
sg13
I3
sg14
I3
sg15
I0
sg16
I0
sg17
I0
sg18
I0
sg19
I0
sg20
I50
sg21
I0
ssg22
g23
sg24
g25
sg26
I0
sg27
I0
sg28
Nsg29
F5.4520000389857159e-06
sba(iandrea.events
WeatherEvent
p75
(dp76
g4
I0
sg5
F413.79068958599998
sg6
I0
sg7
Nsg8
I00
sg9
F413.79070135400002
sg10
(dp77
g12
I0
sg13
I3
sg14
I3
sg15
I0
sg16
I0
sg17
I0
sg18
I0
sg19
I0
sg20
I50
sg21
I0
ssg22
g23
sg24
g25
sg26
I0
sg27
I0
sg28
Nsg29
F1.1768000035772275e-05
sba(iandrea.events
WeatherEvent
p78
(dp79
g4
I0
sg5
F423.790750882
sg6
I0
sg7
Nsg8
I00
sg9
F423.790760885
sg10
(dp80
g12
I0
sg13
I3
sg14
I3
sg15
I0
sg16
I0
sg17
I0
sg18
I0
sg19
I0
sg20
I50
sg21
I0
ssg22
g23
sg24
g25
sg26
I0
sg27
I0
sg28
Nsg29
F1.0002999999869644e-05
sba(iandrea.events
WeatherEvent
p81
(dp82
g4
I0
sg5
F433.79247244999999
sg6
I0
sg7
Nsg8
I00
sg9
F433.79248236900003
sg10
(dp83
g12
I0
sg13
I3
sg14
I3
sg15
I0
sg16
I0
sg17
I0
sg18
I0
sg19
I0
sg20
I50
sg21
I0
ssg22
g23
sg24
g25
sg26
I0
sg27
I0
sg28
Nsg29
F9.9190000355520169e-06
sba(iandrea.events
WeatherEvent
p84
(dp85
g4
I0
sg5
F443.79316870399998
sg6
I0
sg7
Nsg8
I00
sg9
F443.793179098
sg10
(dp86
g12
I0
sg13
I3
sg14
I3
sg15
I0
sg16
I0
sg17
I0
sg18
I0
sg19
I0
sg20
I50
sg21
I0
ssg22
g23
sg24
g25
sg26
I0
sg27
I0
sg28
Nsg29
F1.0394000014457561e-05
sba(iandrea.events
WeatherEvent
p87
(dp88
g4
I0
sg5
F453.79470819300002
sg6
I0
sg7
Nsg8
I00
sg9
F453.79471718899998
sg10
(dp89
g12
I0
sg13
I3
sg14
I3
sg15
I0
sg16
I0
sg17
I0
sg18
I0
sg19
I0
sg20
I50
sg21
I0
ssg22
g23
sg24
g25
sg26
I0
sg27
I0
sg28
Nsg29
F8.9959999627353682e-06
sba.(lp1
(iandrea.events
WeatherEvent
p2
(dp3
S'src'
p4
I0
sS't_i'
p5
F463.796406655
sS'level'
p6
I0
sS'res'
p7
NsS'inv'
p8
I00
sS't_f'
p9
F463.79641659100002
sS'etc'
p10
(dp11
S'workers_idle'
p12
I0
sS'workers_busy'
p13
I3
sS'tasks_busy'
p14
I3
sS'MEMOUT'
p15
I0
sS'UNSAT'
p16
I0
sS'TIMEOUT'
p17
I0
sS'ERROR'
p18
I0
sS'tasks_done'
p19
I0
sS'tasks_idle'
p20
I50
sS'SAT'
p21
I0
ssS'gid'
p22
S'wrep'
p23
sS'eid'
p24
S'update'
p25
sS'timeout'
p26
I0
sS'max'
p27
I0
sS'tid'
p28
NsS'dur'
p29
F9.9360000263004622e-06
sba(iandrea.events
WeatherEvent
p30
(dp31
g4
I0
sg5
F473.79737276899999
sg6
I0
sg7
Nsg8
I00
sg9
F473.79738703499999
sg10
(dp32
g12
I0
sg13
I3
sg14
I3
sg15
I0
sg16
I0
sg17
I0
sg18
I0
sg19
I0
sg20
I50
sg21
I0
ssg22
g23
sg24
g25
sg26
I0
sg27
I0
sg28
Nsg29
F1.4265999993767764e-05
sba(iandrea.events
WeatherEvent
p33
(dp34
g4
I0
sg5
F483.79935892100002
sg6
I0
sg7
Nsg8
I00
sg9
F483.799373704
sg10
(dp35
g12
I0
sg13
I3
sg14
I3
sg15
I0
sg16
I0
sg17
I0
sg18
I0
sg19
I0
sg20
I50
sg21
I0
ssg22
g23
sg24
g25
sg26
I0
sg27
I0
sg28
Nsg29
F1.4782999983253831e-05
sba(iandrea.events
WeatherEvent
p36
(dp37
g4
I0
sg5
F493.79985899100001
sg6
I0
sg7
Nsg8
I00
sg9
F493.79986983600003
sg10
(dp38
g12
I0
sg13
I3
sg14
I3
sg15
I0
sg16
I0
sg17
I0
sg18
I0
sg19
I0
sg20
I50
sg21
I0
ssg22
g23
sg24
g25
sg26
I0
sg27
I0
sg28
Nsg29
F1.0845000019799045e-05
sba(iandrea.events
WeatherEvent
p39
(dp40
g4
I0
sg5
F503.80055831800001
sg6
I0
sg7
Nsg8
I00
sg9
F503.80057501599998
sg10
(dp41
g12
I0
sg13
I3
sg14
I3
sg15
I0
sg16
I0
sg17
I0
sg18
I0
sg19
I0
sg20
I50
sg21
I0
ssg22
g23
sg24
g25
sg26
I0
sg27
I0
sg28
Nsg29
F1.6697999967618671e-05
sba(iandrea.events
WeatherEvent
p42
(dp43
g4
I0
sg5
F513.801185078
sg6
I0
sg7
Nsg8
I00
sg9
F513.80119492300003
sg10
(dp44
g12
I0
sg13
I3
sg14
I3
sg15
I0
sg16
I0
sg17
I0
sg18
I0
sg19
I0
sg20
I50
sg21
I0
ssg22
g23
sg24
g25
sg26
I0
sg27
I0
sg28
Nsg29
F9.8450000223238021e-06
sba(iandrea.events
WeatherEvent
p45
(dp46
g4
I0
sg5
F523.80254263999996
sg6
I0
sg7
Nsg8
I00
sg9
F523.80255570899999
sg10
(dp47
g12
I0
sg13
I3
sg14
I3
sg15
I0
sg16
I0
sg17
I0
sg18
I0
sg19
I0
sg20
I50
sg21
I0
ssg22
g23
sg24
g25
sg26
I0
sg27
I0
sg28
Nsg29
F1.3069000033283373e-05
sba(iandrea.events
WeatherEvent
p48
(dp49
g4
I0
sg5
F533.80427969699997
sg6
I0
sg7
Nsg8
I00
sg9
F533.80429091600001
sg10
(dp50
g12
I0
sg13
I3
sg14
I3
sg15
I0
sg16
I0
sg17
I0
sg18
I0
sg19
I0
sg20
I50
sg21
I0
ssg22
g23
sg24
g25
sg26
I0
sg27
I0
sg28
Nsg29
F1.1219000043638516e-05
sba(iandrea.events
WeatherEvent
p51
(dp52
g4
I0
sg5
F543.80610397600003
sg6
I0
sg7
Nsg8
I00
sg9
F543.80611430199997
sg10
(dp53
g12
I0
sg13
I3
sg14
I3
sg15
I0
sg16
I0
sg17
I0
sg18
I0
sg19
I0
sg20
I50
sg21
I0
ssg22
g23
sg24
g25
sg26
I0
sg27
I0
sg28
Nsg29
F1.0325999937776942e-05
sba(iandrea.events
WeatherEvent
p54
(dp55
g4
I0
sg5
F553.80632346699997
sg6
I0
sg7
Nsg8
I00
sg9
F553.80634023699997
sg10
(dp56
g12
I0
sg13
I3
sg14
I3
sg15
I0
sg16
I0
sg17
I0
sg18
I0
sg19
I0
sg20
I50
sg21
I0
ssg22
g23
sg24
g25
sg26
I0
sg27
I0
sg28
Nsg29
F1.6770000001997687e-05
sba(iandrea.events
WeatherEvent
p57
(dp58
g4
I0
sg5
F563.80725908099998
sg6
I0
sg7
Nsg8
I00
sg9
F563.80726951099996
sg10
(dp59
g12
I0
sg13
I3
sg14
I3
sg15
I0
sg16
I0
sg17
I0
sg18
I0
sg19
I0
sg20
I50
sg21
I0
ssg22
g23
sg24
g25
sg26
I0
sg27
I0
sg28
Nsg29
F1.042999997480365e-05
sba(iandrea.events
WeatherEvent
p60
(dp61
g4
I0
sg5
F573.80782672700002
sg6
I0
sg7
Nsg8
I00
sg9
F573.80783779900003
sg10
(dp62
g12
I0
sg13
I3
sg14
I3
sg15
I0
sg16
I0
sg17
I0
sg18
I0
sg19
I0
sg20
I50
sg21
I0
ssg22
g23
sg24
g25
sg26
I0
sg27
I0
sg28
Nsg29
F1.1072000006606686e-05
sba(iandrea.events
WeatherEvent
p63
(dp64
g4
I0
sg5
F583.808210401
sg6
I0
sg7
Nsg8
I00
sg9
F583.80821996899999
sg10
(dp65
g12
I0
sg13
I3
sg14
I3
sg15
I0
sg16
I0
sg17
I0
sg18
I0
sg19
I0
sg20
I50
sg21
I0
ssg22
g23
sg24
g25
sg26
I0
sg27
I0
sg28
Nsg29
F9.5679999958520057e-06
sba(iandrea.events
WeatherEvent
p66
(dp67
g4
I0
sg5
F593.80992281600004
sg6
I0
sg7
Nsg8
I00
sg9
F593.80993345299999
sg10
(dp68
g12
I0
sg13
I3
sg14
I3
sg15
I0
sg16
I0
sg17
I0
sg18
I0
sg19
I0
sg20
I50
sg21
I0
ssg22
g23
sg24
g25
sg26
I0
sg27
I0
sg28
Nsg29
F1.0636999945745629e-05
sba(iandrea.events
WeatherEvent
p69
(dp70
g4
I0
sg5
F603.81114256900003
sg6
I0
sg7
Nsg8
I00
sg9
F603.81115510500001
sg10
(dp71
g12
I0
sg13
I3
sg14
I3
sg15
I0
sg16
I0
sg17
I0
sg18
I0
sg19
I0
sg20
I50
sg21
I0
ssg22
g23
sg24
g25
sg26
I0
sg27
I0
sg28
Nsg29
F1.2535999985630042e-05
sba(iandrea.events
WeatherEvent
p72
(dp73
g4
I0
sg5
F613.81202153699996
sg6
I0
sg7
Nsg8
I00
sg9
F613.81203326499997
sg10
(dp74
g12
I0
sg13
I3
sg14
I3
sg15
I0
sg16
I0
sg17
I0
sg18
I0
sg19
I0
sg20
I50
sg21
I0
ssg22
g23
sg24
g25
sg26
I0
sg27
I0
sg28
Nsg29
F1.172800000404095e-05
sba(iandrea.events
WeatherEvent
p75
(dp76
g4
I0
sg5
F623.81214048699997
sg6
I0
sg7
Nsg8
I00
sg9
F623.81216972699997
sg10
(dp77
g12
I0
sg13
I3
sg14
I3
sg15
I0
sg16
I0
sg17
I0
sg18
I0
sg19
I0
sg20
I50
sg21
I0
ssg22
g23
sg24
g25
sg26
I0
sg27
I0
sg28
Nsg29
F2.9240000003483146e-05
sba(iandrea.events
WeatherEvent
p78
(dp79
g4
I0
sg5
F633.81243720199996
sg6
I0
sg7
Nsg8
I00
sg9
F633.81244769900002
sg10
(dp80
g12
I0
sg13
I3
sg14
I3
sg15
I0
sg16
I0
sg17
I0
sg18
I0
sg19
I0
sg20
I50
sg21
I0
ssg22
g23
sg24
g25
sg26
I0
sg27
I0
sg28
Nsg29
F1.0497000062059669e-05
sba(iandrea.events
WeatherEvent
p81
(dp82
g4
I0
sg5
F643.81348727299996
sg6
I0
sg7
Nsg8
I00
sg9
F643.81349627999998
sg10
(dp83
g12
I0
sg13
I3
sg14
I3
sg15
I0
sg16
I0
sg17
I0
sg18
I0
sg19
I0
sg20
I50
sg21
I0
ssg22
g23
sg24
g25
sg26
I0
sg27
I0
sg28
Nsg29
F9.0070000169362174e-06
sba(iandrea.events
WeatherEvent
p84
(dp85
g4
I0
sg5
F653.81455411499996
sg6
I0
sg7
Nsg8
I00
sg9
F653.814562647
sg10
(dp86
g12
I0
sg13
I3
sg14
I3
sg15
I0
sg16
I0
sg17
I0
sg18
I0
sg19
I0
sg20
I50
sg21
I0
ssg22
g23
sg24
g25
sg26
I0
sg27
I0
sg28
Nsg29
F8.5320000380306737e-06
sba(iandrea.events
WeatherEvent
p87
(dp88
g4
I0
sg5
F663.815412036
sg6
I0
sg7
Nsg8
I00
sg9
F663.81542051300005
sg10
(dp89
g12
I0
sg13
I3
sg14
I3
sg15
I0
sg16
I0
sg17
I0
sg18
I0
sg19
I0
sg20
I50
sg21
I0
ssg22
g23
sg24
g25
sg26
I0
sg27
I0
sg28
Nsg29
F8.4770000512435217e-06
sba.(lp1
(iandrea.events
WeatherEvent
p2
(dp3
S'src'
p4
I0
sS't_i'
p5
F673.81688169300003
sS'level'
p6
I0
sS'res'
p7
NsS'inv'
p8
I00
sS't_f'
p9
F673.81688803099996
sS'etc'
p10
(dp11
S'workers_idle'
p12
I0
sS'workers_busy'
p13
I3
sS'tasks_busy'
p14
I3
sS'MEMOUT'
p15
I0
sS'UNSAT'
p16
I0
sS'TIMEOUT'
p17
I0
sS'ERROR'
p18
I0
sS'tasks_done'
p19
I0
sS'tasks_idle'
p20
I50
sS'SAT'
p21
I0
ssS'gid'
p22
S'wrep'
p23
sS'eid'
p24
S'update'
p25
sS'timeout'
p26
I0
sS'max'
p27
I0
sS'tid'
p28
NsS'dur'
p29
F6.3379999346580007e-06
sba(iandrea.events
WeatherEvent
p30
(dp31
g4
I0
sg5
F683.81884595300005
sg6
I0
sg7
Nsg8
I00
sg9
F683.81885520000003
sg10
(dp32
g12
I0
sg13
I3
sg14
I3
sg15
I0
sg16
I0
sg17
I0
sg18
I0
sg19
I0
sg20
I50
sg21
I0
ssg22
g23
sg24
g25
sg26
I0
sg27
I0
sg28
Nsg29
F9.2469999799504876e-06
sba(iandrea.events
WeatherEvent
p33
(dp34
g4
I0
sg5
F693.82022077099998
sg6
I0
sg7
Nsg8
I00
sg9
F693.82022687799997
sg10
(dp35
g12
I0
sg13
I3
sg14
I3
sg15
I0
sg16
I0
sg17
I0
sg18
I0
sg19
I0
sg20
I50
sg21
I0
ssg22
g23
sg24
g25
sg26
I0
sg27
I0
sg28
Nsg29
F6.1069999901519623e-06
sba(iandrea.events
WeatherEvent
p36
(dp37
g4
I0
sg5
F703.821463279
sg6
I0
sg7
Nsg8
I00
sg9
F703.82147034499997
sg10
(dp38
g12
I0
sg13
I3
sg14
I3
sg15
I0
sg16
I0
sg17
I0
sg18
I0
sg19
I0
sg20
I50
sg21
I0
ssg22
g23
sg24
g25
sg26
I0
sg27
I0
sg28
Nsg29
F7.0659999664712814e-06
sba(iandrea.events
WeatherEvent
p39
(dp40
g4
I0
sg5
F713.82315898599995
sg6
I0
sg7
Nsg8
I00
sg9
F713.82317316900003
sg10
(dp41
g12
I0
sg13
I3
sg14
I3
sg15
I0
sg16
I0
sg17
I0
sg18
I0
sg19
I0
sg20
I50
sg21
I0
ssg22
g23
sg24
g25
sg26
I0
sg27
I0
sg28
Nsg29
F1.4183000075718155e-05
sba(iandrea.events
WeatherEvent
p42
(dp43
g4
I0
sg5
F723.82414085300002
sg6
I0
sg7
Nsg8
I00
sg9
F723.82415262500001
sg10
(dp44
g12
I0
sg13
I3
sg14
I3
sg15
I0
sg16
I0
sg17
I0
sg18
I0
sg19
I0
sg20
I50
sg21
I0
ssg22
g23
sg24
g25
sg26
I0
sg27
I0
sg28
Nsg29
F1.1771999993470672e-05
sba(iandrea.events
WeatherEvent
p45
(dp46
g4
I0
sg5
F733.82472710000002
sg6
I0
sg7
Nsg8
I00
sg9
F733.82473255900004
sg10
(dp47
g12
I0
sg13
I3
sg14
I3
sg15
I0
sg16
I0
sg17
I0
sg18
I0
sg19
I0
sg20
I50
sg21
I0
ssg22
g23
sg24
g25
sg26
I0
sg27
I0
sg28
Nsg29
F5.4590000218013301e-06
sba(iandrea.events
WeatherEvent
p48
(dp49
g4
I0
sg5
F743.82493170800001
sg6
I0
sg7
Nsg8
I00
sg9
F743.824947941
sg10
(dp50
g12
I0
sg13
I3
sg14
I3
sg15
I0
sg16
I0
sg17
I0
sg18
I0
sg19
I0
sg20
I50
sg21
I0
ssg22
g23
sg24
g25
sg26
I0
sg27
I0
sg28
Nsg29
F1.6232999996645958e-05
sba(iandrea.events
WeatherEvent
p51
(dp52
g4
I0
sg5
F753.82570945299994
sg6
I0
sg7
Nsg8
I00
sg9
F753.82571926499998
sg10
(dp53
g12
I0
sg13
I3
sg14
I3
sg15
I0
sg16
I0
sg17
I0
sg18
I0
sg19
I0
sg20
I50
sg21
I0
ssg22
g23
sg24
g25
sg26
I0
sg27
I0
sg28
Nsg29
F9.8120000302515109e-06
sba(iandrea.events
WeatherEvent
p54
(dp55
g4
I0
sg5
F763.82764112899997
sg6
I0
sg7
Nsg8
I00
sg9
F763.82765327100003
sg10
(dp56
g12
I0
sg13
I3
sg14
I3
sg15
I0
sg16
I0
sg17
I0
sg18
I0
sg19
I0
sg20
I50
sg21
I0
ssg22
g23
sg24
g25
sg26
I0
sg27
I0
sg28
Nsg29
F1.2142000059611746e-05
sba(iandrea.events
WeatherEvent
p57
(dp58
g4
I0
sg5
F773.82889859600004
sg6
I0
sg7
Nsg8
I00
sg9
F773.82890823100001
sg10
(dp59
g12
I0
sg13
I3
sg14
I3
sg15
I0
sg16
I0
sg17
I0
sg18
I0
sg19
I0
sg20
I50
sg21
I0
ssg22
g23
sg24
g25
sg26
I0
sg27
I0
sg28
Nsg29
F9.6349999694211874e-06
sba(iandrea.events
WeatherEvent
p60
(dp61
g4
I0
sg5
F783.83032280600003
sg6
I0
sg7
Nsg8
I00
sg9
F783.83033752699998
sg10
(dp62
g12
I0
sg13
I3
sg14
I3
sg15
I0
sg16
I0
sg17
I0
sg18
I0
sg19
I0
sg20
I50
sg21
I0
ssg22
g23
sg24
g25
sg26
I0
sg27
I0
sg28
Nsg29
F1.4720999956807646e-05
sba(iandrea.events
WeatherEvent
p63
(dp64
g4
I0
sg5
F793.83117314799995
sg6
I0
sg7
Nsg8
I00
sg9
F793.83119285600003
sg10
(dp65
g12
I0
sg13
I3
sg14
I3
sg15
I0
sg16
I0
sg17
I0
sg18
I0
sg19
I0
sg20
I50
sg21
I0
ssg22
g23
sg24
g25
sg26
I0
sg27
I0
sg28
Nsg29
F1.9708000081664068e-05
sba(iandrea.events
WeatherEvent
p66
(dp67
g4
I0
sg5
F803.83265690500002
sg6
I0
sg7
Nsg8
I00
sg9
F803.83266317599998
sg10
(dp68
g12
I0
sg13
I3
sg14
I3
sg15
I0
sg16
I0
sg17
I0
sg18
I0
sg19
I0
sg20
I50
sg21
I0
ssg22
g23
sg24
g25
sg26
I0
sg27
I0
sg28
Nsg29
F6.270999961088819e-06
sba(iandrea.events
WeatherEvent
p69
(dp70
g4
I0
sg5
F813.83310752900002
sg6
I0
sg7
Nsg8
I00
sg9
F813.83312039999998
sg10
(dp71
g12
I0
sg13
I3
sg14
I3
sg15
I0
sg16
I0
sg17
I0
sg18
I0
sg19
I0
sg20
I50
sg21
I0
ssg22
g23
sg24
g25
sg26
I0
sg27
I0
sg28
Nsg29
F1.2870999967162788e-05
sba(iandrea.events
WeatherEvent
p72
(dp73
g4
I0
sg5
F823.83512299500001
sg6
I0
sg7
Nsg8
I00
sg9
F823.83513369299999
sg10
(dp74
g12
I0
sg13
I3
sg14
I3
sg15
I0
sg16
I0
sg17
I0
sg18
I0
sg19
I0
sg20
I50
sg21
I0
ssg22
g23
sg24
g25
sg26
I0
sg27
I0
sg28
Nsg29
F1.0697999982767215e-05
sba(iandrea.events
WeatherEvent
p75
(dp76
g4
I0
sg5
F833.83617603899995
sg6
I0
sg7
Nsg8
I00
sg9
F833.83618554700001
sg10
(dp77
g12
I0
sg13
I3
sg14
I3
sg15
I0
sg16
I0
sg17
I0
sg18
I0
sg19
I0
sg20
I50
sg21
I0
ssg22
g23
sg24
g25
sg26
I0
sg27
I0
sg28
Nsg29
F9.508000061941857e-06
sba(iandrea.events
WeatherEvent
p78
(dp79
g4
I0
sg5
F843.83661692500004
sg6
I0
sg7
Nsg8
I00
sg9
F843.83662775300002
sg10
(dp80
g12
I0
sg13
I3
sg14
I3
sg15
I0
sg16
I0
sg17
I0
sg18
I0
sg19
I0
sg20
I50
sg21
I0
ssg22
g23
sg24
g25
sg26
I0
sg27
I0
sg28
Nsg29
F1.0827999972207181e-05
sba(iandrea.events
WeatherEvent
p81
(dp82
g4
I0
sg5
F853.83816026900001
sg6
I0
sg7
Nsg8
I00
sg9
F853.83817350300001
sg10
(dp83
g12
I0
sg13
I3
sg14
I3
sg15
I0
sg16
I0
sg17
I0
sg18
I0
sg19
I0
sg20
I50
sg21
I0
ssg22
g23
sg24
g25
sg26
I0
sg27
I0
sg28
Nsg29
F1.3233999993644829e-05
sba(iandrea.events
WeatherEvent
p84
(dp85
g4
I0
sg5
F863.83904631400003
sg6
I0
sg7
Nsg8
I00
sg9
F863.83905608199996
sg10
(dp86
g12
I0
sg13
I3
sg14
I3
sg15
I0
sg16
I0
sg17
I0
sg18
I0
sg19
I0
sg20
I50
sg21
I0
ssg22
g23
sg24
g25
sg26
I0
sg27
I0
sg28
Nsg29
F9.7679999271349516e-06
sba(iandrea.events
WeatherEvent
p87
(dp88
g4
I0
sg5
F873.83959182199999
sg6
I0
sg7
Nsg8
I00
sg9
F873.83960291400001
sg10
(dp89
g12
I0
sg13
I3
sg14
I3
sg15
I0
sg16
I0
sg17
I0
sg18
I0
sg19
I0
sg20
I50
sg21
I0
ssg22
g23
sg24
g25
sg26
I0
sg27
I0
sg28
Nsg29
F1.1092000022472348e-05
sba.(lp1
(iandrea.events
WeatherEvent
p2
(dp3
S'src'
p4
I0
sS't_i'
p5
F883.83968681700003
sS'level'
p6
I0
sS'res'
p7
NsS'inv'
p8
I00
sS't_f'
p9
F883.83969764100004
sS'etc'
p10
(dp11
S'workers_idle'
p12
I0
sS'workers_busy'
p13
I3
sS'tasks_busy'
p14
I3
sS'MEMOUT'
p15
I0
sS'UNSAT'
p16
I0
sS'TIMEOUT'
p17
I0
sS'ERROR'
p18
I0
sS'tasks_done'
p19
I0
sS'tasks_idle'
p20
I50
sS'SAT'
p21
I0
ssS'gid'
p22
S'wrep'
p23
sS'eid'
p24
S'update'
p25
sS'timeout'
p26
I0
sS'max'
p27
I0
sS'tid'
p28
NsS'dur'
p29
F1.0824000014508783e-05
sba(iandrea.events
WeatherEvent
p30
(dp31
g4
I0
sg5
F893.84173021300001
sg6
I0
sg7
Nsg8
I00
sg9
F893.84174062399995
sg10
(dp32
g12
I0
sg13
I3
sg14
I3
sg15
I0
sg16
I0
sg17
I0
sg18
I0
sg19
I0
sg20
I50
sg21
I0
ssg22
g23
sg24
g25
sg26
I0
sg27
I0
sg28
Nsg29
F1.0410999948362587e-05
sba(iandrea.events
WeatherEvent
p33
(dp34
g4
I0
sg5
F903.84360062799999
sg6
I0
sg7
Nsg8
I00
sg9
F903.84361057700005
sg10
(dp35
g12
I0
sg13
I3
sg14
I3
sg15
I0
sg16
I0
sg17
I0
sg18
I0
sg19
I0
sg20
I50
sg21
I0
ssg22
g23
sg24
g25
sg26
I0
sg27
I0
sg28
Nsg29
F9.9490000593505101e-06
sba(iandrea.events
WeatherEvent
p36
(dp37
g4
I0
sg5
F913.84404564700003
sg6
I0
sg7
Nsg8
I00
sg9
F913.84405567399995
sg10
(dp38
g12
I0
sg13
I3
sg14
I3
sg15
I0
sg16
I0
sg17
I0
sg18
I0
sg19
I0
sg20
I50
sg21
I0
ssg22
g23
sg24
g25
sg26
I0
sg27
I0
sg28
Nsg29
F1.0026999916590285e-05
sba(iandrea.events
WeatherEvent
p39
(dp40
g4
I0
sg5
F923.84565466799995
sg6
I0
sg7
Nsg8
I00
sg9
F923.84566498100003
sg10
(dp41
g12
I0
sg13
I3
sg14
I3
sg15
I0
sg16
I0
sg17
I0
sg18
I0
sg19
I0
sg20
I50
sg21
I0
ssg22
g23
sg24
g25
sg26
I0
sg27
I0
sg28
Nsg29
F1.031300007525715e-05
sba(iandrea.events
WeatherEvent
p42
(dp43
g4
I0
sg5
F933.84726585500005
sg6
I0
sg7
Nsg8
I00
sg9
F933.84727583100005
sg10
(dp44
g12
I0
sg13
I3
sg14
I3
sg15
I0
sg16
I0
sg17
I0
sg18
I0
sg19
I0
sg20
I50
sg21
I0
ssg22
g23
sg24
g25
sg26
I0
sg27
I0
sg28
Nsg29
F9.9760000011883676e-06
sba(iandrea.events
WeatherEvent
p45
(dp46
g4
I0
sg5
F943.84866434499997
sg6
I0
sg7
Nsg8
I00
sg9
F943.84867634299997
sg10
(dp47
g12
I0
sg13
I3
sg14
I3
sg15
I0
sg16
I0
sg17
I0
sg18
I0
sg19
I0
sg20
I50
sg21
I0
ssg22
g23
sg24
g25
sg26
I0
sg27
I0
sg28
Nsg29
F1.1997999990853714e-05
sba(iandrea.events
WeatherEvent
p48
(dp49
g4
I0
sg5
F953.84951901500006
sg6
I0
sg7
Nsg8
I00
sg9
F953.84954541000002
sg10
(dp50
g12
I0
sg13
I3
sg14
I3
sg15
I0
sg16
I0
sg17
I0
sg18
I0
sg19
I0
sg20
I50
sg21
I0
ssg22
g23
sg24
g25
sg26
I0
sg27
I0
sg28
Nsg29
F2.6394999963486043e-05
sba(iandrea.events
WeatherEvent
p51
(dp52
g4
I0
sg5
F963.84991806200003
sg6
I0
sg7
Nsg8
I00
sg9
F963.849929546
sg10
(dp53
g12
I0
sg13
I3
sg14
I3
sg15
I0
sg16
I0
sg17
I0
sg18
I0
sg19
I0
sg20
I50
sg21
I0
ssg22
g23
sg24
g25
sg26
I0
sg27
I0
sg28
Nsg29
F1.1483999969641445e-05
sba(iandrea.events
WeatherEvent
p54
(dp55
g4
I0
sg5
F973.85174022399997
sg6
I0
sg7
Nsg8
I00
sg9
F973.85174996499995
sg10
(dp56
g12
I0
sg13
I3
sg14
I3
sg15
I0
sg16
I0
sg17
I0
sg18
I0
sg19
I0
sg20
I50
sg21
I0
ssg22
g23
sg24
g25
sg26
I0
sg27
I0
sg28
Nsg29
F9.7409999852970941e-06
sba(iandrea.events
WeatherEvent
p57
(dp58
g4
I0
sg5
F983.85263385899998
sg6
I0
sg7
Nsg8
I00
sg9
F983.85264881700004
sg10
(dp59
g12
I0
sg13
I3
sg14
I3
sg15
I0
sg16
I0
sg17
I0
sg18
I0
sg19
I0
sg20
I50
sg21
I0
ssg22
g23
sg24
g25
sg26
I0
sg27
I0
sg28
Nsg29
F1.4958000065234955e-05
sba(iandrea.events
WeatherEvent
p60
(dp61
g4
I0
sg5
F993.85421243099995
sg6
I0
sg7
Nsg8
I00
sg9
F993.85422363700002
sg10
(dp62
g12
I0
sg13
I3
sg14
I3
sg15
I0
sg16
I0
sg17
I0
sg18
I0
sg19
I0
sg20
I50
sg21
I0
ssg22
g23
sg24
g25
sg26
I0
sg27
I0
sg28
Nsg29
F1.1206000067431887e-05
sba(iandrea.events
WeatherEvent
p63
(dp64
g4
I0
sg5
F1003.855289506
sg6
I0
sg7
Nsg8
I00
sg9
F1003.855299174
sg10
(dp65
g12
I0
sg13
I3
sg14
I3
sg15
I0
sg16
I0
sg17
I0
sg18
I0
sg19
I0
sg20
I50
sg21
I0
ssg22
g23
sg24
g25
sg26
I0
sg27
I0
sg28
Nsg29
F9.6680000751803163e-06
sba(iandrea.events
WeatherEvent
p66
(dp67
g4
I0
sg5
F1013.85529532
sg6
I0
sg7
Nsg8
I00
sg9
F1013.855305091
sg10
(dp68
g12
I0
sg13
I3
sg14
I3
sg15
I0
sg16
I0
sg17
I0
sg18
I0
sg19
I0
sg20
I50
sg21
I0
ssg22
g23
sg24
g25
sg26
I0
sg27
I0
sg28
Nsg29
F9.7710000090955873e-06
sba(iandrea.events
WeatherEvent
p69
(dp70
g4
I0
sg5
F1023.856650614
sg6
I0
sg7
Nsg8
I00
sg9
F1023.856660633
sg10
(dp71
g12
I0
sg13
I3
sg14
I3
sg15
I0
sg16
I0
sg17
I0
sg18
I0
sg19
I0
sg20
I50
sg21
I0
ssg22
g23
sg24
g25
sg26
I0
sg27
I0
sg28
Nsg29
F1.001900000119349e-05
sba(iandrea.events
WeatherEvent
p72
(dp73
g4
I0
sg5
F1033.8575752459999
sg6
I0
sg7
Nsg8
I00
sg9
F1033.8575836360001
sg10
(dp74
g12
I0
sg13
I3
sg14
I3
sg15
I0
sg16
I0
sg17
I0
sg18
I0
sg19
I0
sg20
I50
sg21
I0
ssg22
g23
sg24
g25
sg26
I0
sg27
I0
sg28
Nsg29
F8.3900001754955156e-06
sba(iandrea.events
WeatherEvent
p75
(dp76
g4
I0
sg5
F1043.858914957
sg6
I0
sg7
Nsg8
I00
sg9
F1043.858923858
sg10
(dp77
g12
I0
sg13
I3
sg14
I3
sg15
I0
sg16
I0
sg17
I0
sg18
I0
sg19
I0
sg20
I50
sg21
I0
ssg22
g23
sg24
g25
sg26
I0
sg27
I0
sg28
Nsg29
F8.9010000010603108e-06
sba(iandrea.events
WeatherEvent
p78
(dp79
g4
I0
sg5
F1053.860914804
sg6
I0
sg7
Nsg8
I00
sg9
F1053.8609207280001
sg10
(dp80
g12
I0
sg13
I3
sg14
I3
sg15
I0
sg16
I0
sg17
I0
sg18
I0
sg19
I0
sg20
I50
sg21
I0
ssg22
g23
sg24
g25
sg26
I0
sg27
I0
sg28
Nsg29
F5.9240001064608805e-06
sba(iandrea.events
WeatherEvent
p81
(dp82
g4
I0
sg5
F1063.861348847
sg6
I0
sg7
Nsg8
I00
sg9
F1063.861354825
sg10
(dp83
g12
I0
sg13
I3
sg14
I3
sg15
I0
sg16
I0
sg17
I0
sg18
I0
sg19
I0
sg20
I50
sg21
I0
ssg22
g23
sg24
g25
sg26
I0
sg27
I0
sg28
Nsg29
F5.9779999901365954e-06
sba(iandrea.events
WeatherEvent
p84
(dp85
g4
I0
sg5
F1073.8615688269999
sg6
I0
sg7
Nsg8
I00
sg9
F1073.8615771570001
sg10
(dp86
g12
I0
sg13
I3
sg14
I3
sg15
I0
sg16
I0
sg17
I0
sg18
I0
sg19
I0
sg20
I50
sg21
I0
ssg22
g23
sg24
g25
sg26
I0
sg27
I0
sg28
Nsg29
F8.3300001278985292e-06
sba(iandrea.events
WeatherEvent
p87
(dp88
g4
I0
sg5
F1083.8632230610001
sg6
I0
sg7
Nsg8
I00
sg9
F1083.8632332279999
sg10
(dp89
g12
I0
sg13
I3
sg14
I3
sg15
I0
sg16
I0
sg17
I0
sg18
I0
sg19
I0
sg20
I50
sg21
I0
ssg22
g23
sg24
g25
sg26
I0
sg27
I0
sg28
Nsg29
F1.0166999800276244e-05
sba.