(lp1
(iandrea.events
WeatherEvent
p2
(dp3
S'src'
p4
I0
sS't_i'
p5
F0.15142440795898438
sS'level'
p6
I0
sS'res'
p7
NsS'inv'
p8
I00
sS't_f'
p9
F0.15143060684204102
sS'etc'
p10
(dp11
S'workers_idle'
p12
I0
sS'workers_busy'
p13
I0
sS'tasks_busy'
p14
I0
sS'MEMOUT'
p15
I0
sS'UNSAT'
p16
I0
sS'TIMEOUT'
p17
I0
sS'ERROR'
p18
I0
sS'tasks_done'
p19
I0
sS'tasks_idle'
p20
I0
sS'SAT'
p21
I0
ssS'gid'
p22
S'wrep'
p23
sS'eid'
p24
S'preinit'
p25
sS'timeout'
p26
I0
sS'max'
p27
I0
sS'tid'
p28
NsS'dur'
p29
F6.198883056640625e-06
sba(iandrea.events
Event
p30
(dp31
g4
I0
sg5
F0.15148735046386719
sg6
I0
sg7
S'1 tasks'
p32
sg8
I00
sg9
F52.617896318435669
sg10
(dp33
sg22
S'main'
p34
sg24
S'queue.create'
p35
sg26
I0
sg27
I0
sg28
Nsg29
F52.466408967971802
sba(iandrea.events
WeatherEvent
p36
(dp37
g4
I0
sg5
F52.618509531021118
sg6
I0
sg7
Nsg8
I00
sg9
F52.618517875671387
sg10
(dp38
g12
I0
sg13
I0
sg14
I0
sg15
I0
sg16
I0
sg17
I0
sg18
I0
sg19
I0
sg20
I1
sg21
I0
ssg22
g23
sg24
S'initial'
p39
sg26
I0
sg27
I0
sg28
Nsg29
F8.3446502685546875e-06
sba(iandrea.events
WeatherEvent
p40
(dp41
g4
I0
sg5
F62.62007474899292
sg6
I0
sg7
Nsg8
I00
sg9
F62.620082378387451
sg10
(dp42
g12
I0
sg13
I3
sg14
I3
sg15
I0
sg16
I0
sg17
I0
sg18
I0
sg19
I0
sg20
I50
sg21
I0
ssg22
g23
sg24
S'update'
p43
sg26
I0
sg27
I0
sg28
Nsg29
F7.62939453125e-06
sba(iandrea.events
WeatherEvent
p44
(dp45
g4
I0
sg5
F72.620204925537109
sg6
I0
sg7
Nsg8
I00
sg9
F72.620212078094482
sg10
(dp46
g12
I0
sg13
I3
sg14
I3
sg15
I0
sg16
I0
sg17
I0
sg18
I0
sg19
I0
sg20
I50
sg21
I0
ssg22
g23
sg24
g43
sg26
I0
sg27
I0
sg28
Nsg29
F7.152557373046875e-06
sba(iandrea.events
WeatherEvent
p47
(dp48
g4
I0
sg5
F82.621995210647583
sg6
I0
sg7
Nsg8
I00
sg9
F82.622002840042114
sg10
(dp49
g12
I0
sg13
I3
sg14
I3
sg15
I0
sg16
I0
sg17
I0
sg18
I0
sg19
I0
sg20
I50
sg21
I0
ssg22
g23
sg24
g43
sg26
I0
sg27
I0
sg28
Nsg29
F7.62939453125e-06
sba(iandrea.events
WeatherEvent
p50
(dp51
g4
I0
sg5
F92.622916460037231
sg6
I0
sg7
Nsg8
I00
sg9
F92.622923135757446
sg10
(dp52
g12
I0
sg13
I3
sg14
I3
sg15
I0
sg16
I0
sg17
I0
sg18
I0
sg19
I0
sg20
I50
sg21
I0
ssg22
g23
sg24
g43
sg26
I0
sg27
I0
sg28
Nsg29
F6.67572021484375e-06
sba(iandrea.events
WeatherEvent
p53
(dp54
g4
I0
sg5
F26897.496603727341
sg6
I0
sg7
Nsg8
I00
sg9
F26897.496619701385
sg10
(dp55
g12
I0
sg13
I3
sg14
I3
sg15
I0
sg16
I0
sg17
I0
sg18
I0
sg19
I0
sg20
I50
sg21
I0
ssg22
g23
sg24
g43
sg26
I0
sg27
I0
sg28
Nsg29
F1.5974044799804688e-05
sba(iandrea.events
WeatherEvent
p56
(dp57
g4
I0
sg5
F26907.498768091202
sg6
I0
sg7
Nsg8
I00
sg9
F26907.498774290085
sg10
(dp58
g12
I0
sg13
I3
sg14
I3
sg15
I0
sg16
I0
sg17
I0
sg18
I0
sg19
I0
sg20
I50
sg21
I0
ssg22
g23
sg24
g43
sg26
I0
sg27
I0
sg28
Nsg29
F6.198883056640625e-06
sba(iandrea.events
WeatherEvent
p59
(dp60
g4
I0
sg5
F26917.499193668365
sg6
I0
sg7
Nsg8
I00
sg9
F26917.499198198318
sg10
(dp61
g12
I0
sg13
I3
sg14
I3
sg15
I0
sg16
I0
sg17
I0
sg18
I0
sg19
I0
sg20
I50
sg21
I0
ssg22
g23
sg24
g43
sg26
I0
sg27
I0
sg28
Nsg29
F4.5299530029296875e-06
sba(iandrea.events
WeatherEvent
p62
(dp63
g4
I0
sg5
F26927.499663114548
sg6
I0
sg7
Nsg8
I00
sg9
F26927.499670028687
sg10
(dp64
g12
I0
sg13
I3
sg14
I3
sg15
I0
sg16
I0
sg17
I0
sg18
I0
sg19
I0
sg20
I50
sg21
I0
ssg22
g23
sg24
g43
sg26
I0
sg27
I0
sg28
Nsg29
F6.9141387939453125e-06
sba(iandrea.events
WeatherEvent
p65
(dp66
g4
I0
sg5
F26937.499730348587
sg6
I0
sg7
Nsg8
I00
sg9
F26937.499737024307
sg10
(dp67
g12
I0
sg13
I3
sg14
I3
sg15
I0
sg16
I0
sg17
I0
sg18
I0
sg19
I0
sg20
I50
sg21
I0
ssg22
g23
sg24
g43
sg26
I0
sg27
I0
sg28
Nsg29
F6.67572021484375e-06
sba(iandrea.events
WeatherEvent
p68
(dp69
g4
I0
sg5
F26947.4998087883
sg6
I0
sg7
Nsg8
I00
sg9
F26947.499815225601
sg10
(dp70
g12
I0
sg13
I3
sg14
I3
sg15
I0
sg16
I0
sg17
I0
sg18
I0
sg19
I0
sg20
I50
sg21
I0
ssg22
g23
sg24
g43
sg26
I0
sg27
I0
sg28
Nsg29
F6.4373016357421875e-06
sba(iandrea.events
WeatherEvent
p71
(dp72
g4
I0
sg5
F26957.500594854355
sg6
I0
sg7
Nsg8
I00
sg9
F26957.500601530075
sg10
(dp73
g12
I0
sg13
I3
sg14
I3
sg15
I0
sg16
I0
sg17
I0
sg18
I0
sg19
I0
sg20
I50
sg21
I0
ssg22
g23
sg24
g43
sg26
I0
sg27
I0
sg28
Nsg29
F6.67572021484375e-06
sba(iandrea.events
WeatherEvent
p74
(dp75
g4
I0
sg5
F26967.501092672348
sg6
I0
sg7
Nsg8
I00
sg9
F26967.501098632812
sg10
(dp76
g12
I0
sg13
I3
sg14
I3
sg15
I0
sg16
I0
sg17
I0
sg18
I0
sg19
I0
sg20
I50
sg21
I0
ssg22
g23
sg24
g43
sg26
I0
sg27
I0
sg28
Nsg29
F5.9604644775390625e-06
sba(iandrea.events
WeatherEvent
p77
(dp78
g4
I0
sg5
F26977.5024061203
sg6
I0
sg7
Nsg8
I00
sg9
F26977.502412557602
sg10
(dp79
g12
I0
sg13
I3
sg14
I3
sg15
I0
sg16
I0
sg17
I0
sg18
I0
sg19
I0
sg20
I50
sg21
I0
ssg22
g23
sg24
g43
sg26
I0
sg27
I0
sg28
Nsg29
F6.4373016357421875e-06
sba(iandrea.events
WeatherEvent
p80
(dp81
g4
I0
sg5
F26987.50409412384
sg6
I0
sg7
Nsg8
I00
sg9
F26987.504100799561
sg10
(dp82
g12
I0
sg13
I3
sg14
I3
sg15
I0
sg16
I0
sg17
I0
sg18
I0
sg19
I0
sg20
I50
sg21
I0
ssg22
g23
sg24
g43
sg26
I0
sg27
I0
sg28
Nsg29
F6.67572021484375e-06
sba(iandrea.events
WeatherEvent
p83
(dp84
g4
I0
sg5
F26997.505425453186
sg6
I0
sg7
Nsg8
I00
sg9
F26997.505432367325
sg10
(dp85
g12
I0
sg13
I3
sg14
I3
sg15
I0
sg16
I0
sg17
I0
sg18
I0
sg19
I0
sg20
I50
sg21
I0
ssg22
g23
sg24
g43
sg26
I0
sg27
I0
sg28
Nsg29
F6.9141387939453125e-06
sba(iandrea.events
WeatherEvent
p86
(dp87
g4
I0
sg5
F27007.507034063339
sg6
I0
sg7
Nsg8
I00
sg9
F27007.507040500641
sg10
(dp88
g12
I0
sg13
I3
sg14
I3
sg15
I0
sg16
I0
sg17
I0
sg18
I0
sg19
I0
sg20
I50
sg21
I0
ssg22
g23
sg24
g43
sg26
I0
sg27
I0
sg28
Nsg29
F6.4373016357421875e-06
sba(iandrea.events
WeatherEvent
p89
(dp90
g4
I0
sg5
F27017.507591962814
sg6
I0
sg7
Nsg8
I00
sg9
F27017.507598876953
sg10
(dp91
g12
I0
sg13
I3
sg14
I3
sg15
I0
sg16
I0
sg17
I0
sg18
I0
sg19
I0
sg20
I50
sg21
I0
ssg22
g23
sg24
g43
sg26
I0
sg27
I0
sg28
Nsg29
F6.9141387939453125e-06
sba(iandrea.events
WeatherEvent
p92
(dp93
g4
I0
sg5
F27027.509107589722
sg6
I0
sg7
Nsg8
I00
sg9
F27027.509114027023
sg10
(dp94
g12
I0
sg13
I3
sg14
I3
sg15
I0
sg16
I0
sg17
I0
sg18
I0
sg19
I0
sg20
I50
sg21
I0
ssg22
g23
sg24
g43
sg26
I0
sg27
I0
sg28
Nsg29
F6.4373016357421875e-06
sba.(lp1
(iandrea.events
WeatherEvent
p2
(dp3
S'src'
p4
I0
sS't_i'
p5
F27037.510894298553
sS'level'
p6
I0
sS'res'
p7
NsS'inv'
p8
I00
sS't_f'
p9
F27037.510900735855
sS'etc'
p10
(dp11
S'workers_idle'
p12
I0
sS'workers_busy'
p13
I3
sS'tasks_busy'
p14
I3
sS'MEMOUT'
p15
I0
sS'UNSAT'
p16
I0
sS'TIMEOUT'
p17
I0
sS'ERROR'
p18
I0
sS'tasks_done'
p19
I0
sS'tasks_idle'
p20
I50
sS'SAT'
p21
I0
ssS'gid'
p22
S'wrep'
p23
sS'eid'
p24
S'update'
p25
sS'timeout'
p26
I0
sS'max'
p27
I0
sS'tid'
p28
NsS'dur'
p29
F6.4373016357421875e-06
sba(iandrea.events
WeatherEvent
p30
(dp31
g4
I0
sg5
F27047.51225566864
sg6
I0
sg7
Nsg8
I00
sg9
F27047.512262105942
sg10
(dp32
g12
I0
sg13
I3
sg14
I3
sg15
I0
sg16
I0
sg17
I0
sg18
I0
sg19
I0
sg20
I50
sg21
I0
ssg22
g23
sg24
g25
sg26
I0
sg27
I0
sg28
Nsg29
F6.4373016357421875e-06
sba(iandrea.events
WeatherEvent
p33
(dp34
g4
I0
sg5
F27057.513523578644
sg6
I0
sg7
Nsg8
I00
sg9
F27057.513529777527
sg10
(dp35
g12
I0
sg13
I3
sg14
I3
sg15
I0
sg16
I0
sg17
I0
sg18
I0
sg19
I0
sg20
I50
sg21
I0
ssg22
g23
sg24
g25
sg26
I0
sg27
I0
sg28
Nsg29
F6.198883056640625e-06
sba(iandrea.events
WeatherEvent
p36
(dp37
g4
I0
sg5
F27067.514404773712
sg6
I0
sg7
Nsg8
I00
sg9
F27067.51441192627
sg10
(dp38
g12
I0
sg13
I3
sg14
I3
sg15
I0
sg16
I0
sg17
I0
sg18
I0
sg19
I0
sg20
I50
sg21
I0
ssg22
g23
sg24
g25
sg26
I0
sg27
I0
sg28
Nsg29
F7.152557373046875e-06
sba(iandrea.events
WeatherEvent
p39
(dp40
g4
I0
sg5
F27077.515061616898
sg6
I0
sg7
Nsg8
I00
sg9
F27077.515068531036
sg10
(dp41
g12
I0
sg13
I3
sg14
I3
sg15
I0
sg16
I0
sg17
I0
sg18
I0
sg19
I0
sg20
I50
sg21
I0
ssg22
g23
sg24
g25
sg26
I0
sg27
I0
sg28
Nsg29
F6.9141387939453125e-06
sba(iandrea.events
WeatherEvent
p42
(dp43
g4
I0
sg5
F27087.517026185989
sg6
I0
sg7
Nsg8
I00
sg9
F27087.517033100128
sg10
(dp44
g12
I0
sg13
I3
sg14
I3
sg15
I0
sg16
I0
sg17
I0
sg18
I0
sg19
I0
sg20
I50
sg21
I0
ssg22
g23
sg24
g25
sg26
I0
sg27
I0
sg28
Nsg29
F6.9141387939453125e-06
sba(iandrea.events
WeatherEvent
p45
(dp46
g4
I0
sg5
F27097.518721580505
sg6
I0
sg7
Nsg8
I00
sg9
F27097.518728017807
sg10
(dp47
g12
I0
sg13
I3
sg14
I3
sg15
I0
sg16
I0
sg17
I0
sg18
I0
sg19
I0
sg20
I50
sg21
I0
ssg22
g23
sg24
g25
sg26
I0
sg27
I0
sg28
Nsg29
F6.4373016357421875e-06
sba(iandrea.events
WeatherEvent
p48
(dp49
g4
I0
sg5
F27107.520601987839
sg6
I0
sg7
Nsg8
I00
sg9
F27107.52060842514
sg10
(dp50
g12
I0
sg13
I3
sg14
I3
sg15
I0
sg16
I0
sg17
I0
sg18
I0
sg19
I0
sg20
I50
sg21
I0
ssg22
g23
sg24
g25
sg26
I0
sg27
I0
sg28
Nsg29
F6.4373016357421875e-06
sba(iandrea.events
WeatherEvent
p51
(dp52
g4
I0
sg5
F27117.522175312042
sg6
I0
sg7
Nsg8
I00
sg9
F27117.522181749344
sg10
(dp53
g12
I0
sg13
I3
sg14
I3
sg15
I0
sg16
I0
sg17
I0
sg18
I0
sg19
I0
sg20
I50
sg21
I0
ssg22
g23
sg24
g25
sg26
I0
sg27
I0
sg28
Nsg29
F6.4373016357421875e-06
sba(iandrea.events
WeatherEvent
p54
(dp55
g4
I0
sg5
F27127.522327899933
sg6
I0
sg7
Nsg8
I00
sg9
F27127.522334098816
sg10
(dp56
g12
I0
sg13
I3
sg14
I3
sg15
I0
sg16
I0
sg17
I0
sg18
I0
sg19
I0
sg20
I50
sg21
I0
ssg22
g23
sg24
g25
sg26
I0
sg27
I0
sg28
Nsg29
F6.198883056640625e-06
sba(iandrea.events
WeatherEvent
p57
(dp58
g4
I0
sg5
F27137.52325963974
sg6
I0
sg7
Nsg8
I00
sg9
F27137.523266792297
sg10
(dp59
g12
I0
sg13
I3
sg14
I3
sg15
I0
sg16
I0
sg17
I0
sg18
I0
sg19
I0
sg20
I50
sg21
I0
ssg22
g23
sg24
g25
sg26
I0
sg27
I0
sg28
Nsg29
F7.152557373046875e-06
sba(iandrea.events
WeatherEvent
p60
(dp61
g4
I0
sg5
F27147.524534702301
sg6
I0
sg7
Nsg8
I00
sg9
F27147.524540901184
sg10
(dp62
g12
I0
sg13
I3
sg14
I3
sg15
I0
sg16
I0
sg17
I0
sg18
I0
sg19
I0
sg20
I50
sg21
I0
ssg22
g23
sg24
g25
sg26
I0
sg27
I0
sg28
Nsg29
F6.198883056640625e-06
sba(iandrea.events
WeatherEvent
p63
(dp64
g4
I0
sg5
F27157.525682687759
sg6
I0
sg7
Nsg8
I00
sg9
F27157.52568936348
sg10
(dp65
g12
I0
sg13
I3
sg14
I3
sg15
I0
sg16
I0
sg17
I0
sg18
I0
sg19
I0
sg20
I50
sg21
I0
ssg22
g23
sg24
g25
sg26
I0
sg27
I0
sg28
Nsg29
F6.67572021484375e-06
sba(iandrea.events
WeatherEvent
p66
(dp67
g4
I0
sg5
F27167.526131391525
sg6
I0
sg7
Nsg8
I00
sg9
F27167.526137828827
sg10
(dp68
g12
I0
sg13
I3
sg14
I3
sg15
I0
sg16
I0
sg17
I0
sg18
I0
sg19
I0
sg20
I50
sg21
I0
ssg22
g23
sg24
g25
sg26
I0
sg27
I0
sg28
Nsg29
F6.4373016357421875e-06
sba(iandrea.events
WeatherEvent
p69
(dp70
g4
I0
sg5
F27177.527374505997
sg6
I0
sg7
Nsg8
I00
sg9
F27177.527381658554
sg10
(dp71
g12
I0
sg13
I3
sg14
I3
sg15
I0
sg16
I0
sg17
I0
sg18
I0
sg19
I0
sg20
I50
sg21
I0
ssg22
g23
sg24
g25
sg26
I0
sg27
I0
sg28
Nsg29
F7.152557373046875e-06
sba(iandrea.events
WeatherEvent
p72
(dp73
g4
I0
sg5
F27187.527830839157
sg6
I0
sg7
Nsg8
I00
sg9
F27187.52783703804
sg10
(dp74
g12
I0
sg13
I3
sg14
I3
sg15
I0
sg16
I0
sg17
I0
sg18
I0
sg19
I0
sg20
I50
sg21
I0
ssg22
g23
sg24
g25
sg26
I0
sg27
I0
sg28
Nsg29
F6.198883056640625e-06
sba(iandrea.events
WeatherEvent
p75
(dp76
g4
I0
sg5
F27197.528017044067
sg6
I0
sg7
Nsg8
I00
sg9
F27197.52802324295
sg10
(dp77
g12
I0
sg13
I3
sg14
I3
sg15
I0
sg16
I0
sg17
I0
sg18
I0
sg19
I0
sg20
I50
sg21
I0
ssg22
g23
sg24
g25
sg26
I0
sg27
I0
sg28
Nsg29
F6.198883056640625e-06
sba(iandrea.events
WeatherEvent
p78
(dp79
g4
I0
sg5
F27207.528519868851
sg6
I0
sg7
Nsg8
I00
sg9
F27207.528526544571
sg10
(dp80
g12
I0
sg13
I3
sg14
I3
sg15
I0
sg16
I0
sg17
I0
sg18
I0
sg19
I0
sg20
I50
sg21
I0
ssg22
g23
sg24
g25
sg26
I0
sg27
I0
sg28
Nsg29
F6.67572021484375e-06
sba(iandrea.events
WeatherEvent
p81
(dp82
g4
I0
sg5
F27217.528750896454
sg6
I0
sg7
Nsg8
I00
sg9
F27217.528757095337
sg10
(dp83
g12
I0
sg13
I3
sg14
I3
sg15
I0
sg16
I0
sg17
I0
sg18
I0
sg19
I0
sg20
I50
sg21
I0
ssg22
g23
sg24
g25
sg26
I0
sg27
I0
sg28
Nsg29
F6.198883056640625e-06
sba(iandrea.events
WeatherEvent
p84
(dp85
g4
I0
sg5
F27227.529488325119
sg6
I0
sg7
Nsg8
I00
sg9
F27227.529494762421
sg10
(dp86
g12
I0
sg13
I3
sg14
I3
sg15
I0
sg16
I0
sg17
I0
sg18
I0
sg19
I0
sg20
I50
sg21
I0
ssg22
g23
sg24
g25
sg26
I0
sg27
I0
sg28
Nsg29
F6.4373016357421875e-06
sba(iandrea.events
WeatherEvent
p87
(dp88
g4
I0
sg5
F27237.530477285385
sg6
I0
sg7
Nsg8
I00
sg9
F27237.530483961105
sg10
(dp89
g12
I0
sg13
I3
sg14
I3
sg15
I0
sg16
I0
sg17
I0
sg18
I0
sg19
I0
sg20
I50
sg21
I0
ssg22
g23
sg24
g25
sg26
I0
sg27
I0
sg28
Nsg29
F6.67572021484375e-06
sba.(lp1
(iandrea.events
WeatherEvent
p2
(dp3
S'src'
p4
I0
sS't_i'
p5
F27247.532171964645
sS'level'
p6
I0
sS'res'
p7
NsS'inv'
p8
I00
sS't_f'
p9
F27247.532178163528
sS'etc'
p10
(dp11
S'workers_idle'
p12
I0
sS'workers_busy'
p13
I3
sS'tasks_busy'
p14
I3
sS'MEMOUT'
p15
I0
sS'UNSAT'
p16
I0
sS'TIMEOUT'
p17
I0
sS'ERROR'
p18
I0
sS'tasks_done'
p19
I0
sS'tasks_idle'
p20
I50
sS'SAT'
p21
I0
ssS'gid'
p22
S'wrep'
p23
sS'eid'
p24
S'update'
p25
sS'timeout'
p26
I0
sS'max'
p27
I0
sS'tid'
p28
NsS'dur'
p29
F6.198883056640625e-06
sba(iandrea.events
WeatherEvent
p30
(dp31
g4
I0
sg5
F27257.533107995987
sg6
I0
sg7
Nsg8
I00
sg9
F27257.533113956451
sg10
(dp32
g12
I0
sg13
I3
sg14
I3
sg15
I0
sg16
I0
sg17
I0
sg18
I0
sg19
I0
sg20
I50
sg21
I0
ssg22
g23
sg24
g25
sg26
I0
sg27
I0
sg28
Nsg29
F5.9604644775390625e-06
sba(iandrea.events
WeatherEvent
p33
(dp34
g4
I0
sg5
F27267.535136699677
sg6
I0
sg7
Nsg8
I00
sg9
F27267.535143136978
sg10
(dp35
g12
I0
sg13
I3
sg14
I3
sg15
I0
sg16
I0
sg17
I0
sg18
I0
sg19
I0
sg20
I50
sg21
I0
ssg22
g23
sg24
g25
sg26
I0
sg27
I0
sg28
Nsg29
F6.4373016357421875e-06
sba(iandrea.events
WeatherEvent
p36
(dp37
g4
I0
sg5
F27277.537124156952
sg6
I0
sg7
Nsg8
I00
sg9
F27277.537130594254
sg10
(dp38
g12
I0
sg13
I3
sg14
I3
sg15
I0
sg16
I0
sg17
I0
sg18
I0
sg19
I0
sg20
I50
sg21
I0
ssg22
g23
sg24
g25
sg26
I0
sg27
I0
sg28
Nsg29
F6.4373016357421875e-06
sba(iandrea.events
WeatherEvent
p39
(dp40
g4
I0
sg5
F27287.538479804993
sg6
I0
sg7
Nsg8
I00
sg9
F27287.538486480713
sg10
(dp41
g12
I0
sg13
I3
sg14
I3
sg15
I0
sg16
I0
sg17
I0
sg18
I0
sg19
I0
sg20
I50
sg21
I0
ssg22
g23
sg24
g25
sg26
I0
sg27
I0
sg28
Nsg29
F6.67572021484375e-06
sba(iandrea.events
WeatherEvent
p42
(dp43
g4
I0
sg5
F27297.538877248764
sg6
I0
sg7
Nsg8
I00
sg9
F27297.538884878159
sg10
(dp44
g12
I0
sg13
I3
sg14
I3
sg15
I0
sg16
I0
sg17
I0
sg18
I0
sg19
I0
sg20
I50
sg21
I0
ssg22
g23
sg24
g25
sg26
I0
sg27
I0
sg28
Nsg29
F7.62939453125e-06
sba(iandrea.events
WeatherEvent
p45
(dp46
g4
I0
sg5
F27307.540418148041
sg6
I0
sg7
Nsg8
I00
sg9
F27307.540424346924
sg10
(dp47
g12
I0
sg13
I3
sg14
I3
sg15
I0
sg16
I0
sg17
I0
sg18
I0
sg19
I0
sg20
I50
sg21
I0
ssg22
g23
sg24
g25
sg26
I0
sg27
I0
sg28
Nsg29
F6.198883056640625e-06
sba(iandrea.events
WeatherEvent
p48
(dp49
g4
I0
sg5
F27317.54167175293
sg6
I0
sg7
Nsg8
I00
sg9
F27317.541677951813
sg10
(dp50
g12
I0
sg13
I3
sg14
I3
sg15
I0
sg16
I0
sg17
I0
sg18
I0
sg19
I0
sg20
I50
sg21
I0
ssg22
g23
sg24
g25
sg26
I0
sg27
I0
sg28
Nsg29
F6.198883056640625e-06
sba(iandrea.events
WeatherEvent
p51
(dp52
g4
I0
sg5
F27327.541999816895
sg6
I0
sg7
Nsg8
I00
sg9
F27327.542006731033
sg10
(dp53
g12
I0
sg13
I3
sg14
I3
sg15
I0
sg16
I0
sg17
I0
sg18
I0
sg19
I0
sg20
I50
sg21
I0
ssg22
g23
sg24
g25
sg26
I0
sg27
I0
sg28
Nsg29
F6.9141387939453125e-06
sba(iandrea.events
WeatherEvent
p54
(dp55
g4
I0
sg5
F27337.542251586914
sg6
I0
sg7
Nsg8
I00
sg9
F27337.542258501053
sg10
(dp56
g12
I0
sg13
I3
sg14
I3
sg15
I0
sg16
I0
sg17
I0
sg18
I0
sg19
I0
sg20
I50
sg21
I0
ssg22
g23
sg24
g25
sg26
I0
sg27
I0
sg28
Nsg29
F6.9141387939453125e-06
sba(iandrea.events
WeatherEvent
p57
(dp58
g4
I0
sg5
F27347.544086694717
sg6
I0
sg7
Nsg8
I00
sg9
F27347.544093132019
sg10
(dp59
g12
I0
sg13
I3
sg14
I3
sg15
I0
sg16
I0
sg17
I0
sg18
I0
sg19
I0
sg20
I50
sg21
I0
ssg22
g23
sg24
g25
sg26
I0
sg27
I0
sg28
Nsg29
F6.4373016357421875e-06
sba(iandrea.events
WeatherEvent
p60
(dp61
g4
I0
sg5
F27357.544174194336
sg6
I0
sg7
Nsg8
I00
sg9
F27357.544180631638
sg10
(dp62
g12
I0
sg13
I3
sg14
I3
sg15
I0
sg16
I0
sg17
I0
sg18
I0
sg19
I0
sg20
I50
sg21
I0
ssg22
g23
sg24
g25
sg26
I0
sg27
I0
sg28
Nsg29
F6.4373016357421875e-06
sba(iandrea.events
WeatherEvent
p63
(dp64
g4
I0
sg5
F27367.545593738556
sg6
I0
sg7
Nsg8
I00
sg9
F27367.545599937439
sg10
(dp65
g12
I0
sg13
I3
sg14
I3
sg15
I0
sg16
I0
sg17
I0
sg18
I0
sg19
I0
sg20
I50
sg21
I0
ssg22
g23
sg24
g25
sg26
I0
sg27
I0
sg28
Nsg29
F6.198883056640625e-06
sba(iandrea.events
WeatherEvent
p66
(dp67
g4
I0
sg5
F27377.547597885132
sg6
I0
sg7
Nsg8
I00
sg9
F27377.547604322433
sg10
(dp68
g12
I0
sg13
I3
sg14
I3
sg15
I0
sg16
I0
sg17
I0
sg18
I0
sg19
I0
sg20
I50
sg21
I0
ssg22
g23
sg24
g25
sg26
I0
sg27
I0
sg28
Nsg29
F6.4373016357421875e-06
sba(iandrea.events
WeatherEvent
p69
(dp70
g4
I0
sg5
F27387.548741817474
sg6
I0
sg7
Nsg8
I00
sg9
F27387.548748016357
sg10
(dp71
g12
I0
sg13
I3
sg14
I3
sg15
I0
sg16
I0
sg17
I0
sg18
I0
sg19
I0
sg20
I50
sg21
I0
ssg22
g23
sg24
g25
sg26
I0
sg27
I0
sg28
Nsg29
F6.198883056640625e-06
sba(iandrea.events
WeatherEvent
p72
(dp73
g4
I0
sg5
F27397.549744844437
sg6
I0
sg7
Nsg8
I00
sg9
F27397.549751281738
sg10
(dp74
g12
I0
sg13
I3
sg14
I3
sg15
I0
sg16
I0
sg17
I0
sg18
I0
sg19
I0
sg20
I50
sg21
I0
ssg22
g23
sg24
g25
sg26
I0
sg27
I0
sg28
Nsg29
F6.4373016357421875e-06
sba(iandrea.events
WeatherEvent
p75
(dp76
g4
I0
sg5
F27407.550597429276
sg6
I0
sg7
Nsg8
I00
sg9
F27407.550603628159
sg10
(dp77
g12
I0
sg13
I3
sg14
I3
sg15
I0
sg16
I0
sg17
I0
sg18
I0
sg19
I0
sg20
I50
sg21
I0
ssg22
g23
sg24
g25
sg26
I0
sg27
I0
sg28
Nsg29
F6.198883056640625e-06
sba(iandrea.events
WeatherEvent
p78
(dp79
g4
I0
sg5
F27417.551472663879
sg6
I0
sg7
Nsg8
I00
sg9
F27417.551480054855
sg10
(dp80
g12
I0
sg13
I3
sg14
I3
sg15
I0
sg16
I0
sg17
I0
sg18
I0
sg19
I0
sg20
I50
sg21
I0
ssg22
g23
sg24
g25
sg26
I0
sg27
I0
sg28
Nsg29
F7.3909759521484375e-06
sba(iandrea.events
WeatherEvent
p81
(dp82
g4
I0
sg5
F27427.55347442627
sg6
I0
sg7
Nsg8
I00
sg9
F27427.553480863571
sg10
(dp83
g12
I0
sg13
I3
sg14
I3
sg15
I0
sg16
I0
sg17
I0
sg18
I0
sg19
I0
sg20
I50
sg21
I0
ssg22
g23
sg24
g25
sg26
I0
sg27
I0
sg28
Nsg29
F6.4373016357421875e-06
sba(iandrea.events
WeatherEvent
p84
(dp85
g4
I0
sg5
F27437.555324077606
sg6
I0
sg7
Nsg8
I00
sg9
F27437.555330514908
sg10
(dp86
g12
I0
sg13
I3
sg14
I3
sg15
I0
sg16
I0
sg17
I0
sg18
I0
sg19
I0
sg20
I50
sg21
I0
ssg22
g23
sg24
g25
sg26
I0
sg27
I0
sg28
Nsg29
F6.4373016357421875e-06
sba(iandrea.events
WeatherEvent
p87
(dp88
g4
I0
sg5
F27447.555814504623
sg6
I0
sg7
Nsg8
I00
sg9
F27447.555820703506
sg10
(dp89
g12
I0
sg13
I3
sg14
I3
sg15
I0
sg16
I0
sg17
I0
sg18
I0
sg19
I0
sg20
I50
sg21
I0
ssg22
g23
sg24
g25
sg26
I0
sg27
I0
sg28
Nsg29
F6.198883056640625e-06
sba.(lp1
(iandrea.events
WeatherEvent
p2
(dp3
S'src'
p4
I0
sS't_i'
p5
F27457.557734966278
sS'level'
p6
I0
sS'res'
p7
NsS'inv'
p8
I00
sS't_f'
p9
F27457.55774140358
sS'etc'
p10
(dp11
S'workers_idle'
p12
I0
sS'workers_busy'
p13
I3
sS'tasks_busy'
p14
I3
sS'MEMOUT'
p15
I0
sS'UNSAT'
p16
I0
sS'TIMEOUT'
p17
I0
sS'ERROR'
p18
I0
sS'tasks_done'
p19
I0
sS'tasks_idle'
p20
I50
sS'SAT'
p21
I0
ssS'gid'
p22
S'wrep'
p23
sS'eid'
p24
S'update'
p25
sS'timeout'
p26
I0
sS'max'
p27
I0
sS'tid'
p28
NsS'dur'
p29
F6.4373016357421875e-06
sba(iandrea.events
WeatherEvent
p30
(dp31
g4
I0
sg5
F27467.55974149704
sg6
I0
sg7
Nsg8
I00
sg9
F27467.559747934341
sg10
(dp32
g12
I0
sg13
I3
sg14
I3
sg15
I0
sg16
I0
sg17
I0
sg18
I0
sg19
I0
sg20
I50
sg21
I0
ssg22
g23
sg24
g25
sg26
I0
sg27
I0
sg28
Nsg29
F6.4373016357421875e-06
sba(iandrea.events
WeatherEvent
p33
(dp34
g4
I0
sg5
F27477.56152677536
sg6
I0
sg7
Nsg8
I00
sg9
F27477.561533212662
sg10
(dp35
g12
I0
sg13
I3
sg14
I3
sg15
I0
sg16
I0
sg17
I0
sg18
I0
sg19
I0
sg20
I50
sg21
I0
ssg22
g23
sg24
g25
sg26
I0
sg27
I0
sg28
Nsg29
F6.4373016357421875e-06
sba(iandrea.events
WeatherEvent
p36
(dp37
g4
I0
sg5
F27487.562617778778
sg6
I0
sg7
Nsg8
I00
sg9
F27487.562624692917
sg10
(dp38
g12
I0
sg13
I3
sg14
I3
sg15
I0
sg16
I0
sg17
I0
sg18
I0
sg19
I0
sg20
I50
sg21
I0
ssg22
g23
sg24
g25
sg26
I0
sg27
I0
sg28
Nsg29
F6.9141387939453125e-06
sba(iandrea.events
WeatherEvent
p39
(dp40
g4
I0
sg5
F27497.564185380936
sg6
I0
sg7
Nsg8
I00
sg9
F27497.564191818237
sg10
(dp41
g12
I0
sg13
I3
sg14
I3
sg15
I0
sg16
I0
sg17
I0
sg18
I0
sg19
I0
sg20
I50
sg21
I0
ssg22
g23
sg24
g25
sg26
I0
sg27
I0
sg28
Nsg29
F6.4373016357421875e-06
sba(iandrea.events
WeatherEvent
p42
(dp43
g4
I0
sg5
F27507.566171646118
sg6
I0
sg7
Nsg8
I00
sg9
F27507.566179513931
sg10
(dp44
g12
I0
sg13
I3
sg14
I3
sg15
I0
sg16
I0
sg17
I0
sg18
I0
sg19
I0
sg20
I50
sg21
I0
ssg22
g23
sg24
g25
sg26
I0
sg27
I0
sg28
Nsg29
F7.8678131103515625e-06
sba(iandrea.events
WeatherEvent
p45
(dp46
g4
I0
sg5
F27517.567242622375
sg6
I0
sg7
Nsg8
I00
sg9
F27517.567249536514
sg10
(dp47
g12
I0
sg13
I3
sg14
I3
sg15
I0
sg16
I0
sg17
I0
sg18
I0
sg19
I0
sg20
I50
sg21
I0
ssg22
g23
sg24
g25
sg26
I0
sg27
I0
sg28
Nsg29
F6.9141387939453125e-06
sba(iandrea.events
WeatherEvent
p48
(dp49
g4
I0
sg5
F27527.568747758865
sg6
I0
sg7
Nsg8
I00
sg9
F27527.568754673004
sg10
(dp50
g12
I0
sg13
I3
sg14
I3
sg15
I0
sg16
I0
sg17
I0
sg18
I0
sg19
I0
sg20
I50
sg21
I0
ssg22
g23
sg24
g25
sg26
I0
sg27
I0
sg28
Nsg29
F6.9141387939453125e-06
sba(iandrea.events
WeatherEvent
p51
(dp52
g4
I0
sg5
F27537.570037603378
sg6
I0
sg7
Nsg8
I00
sg9
F27537.57004404068
sg10
(dp53
g12
I0
sg13
I3
sg14
I3
sg15
I0
sg16
I0
sg17
I0
sg18
I0
sg19
I0
sg20
I50
sg21
I0
ssg22
g23
sg24
g25
sg26
I0
sg27
I0
sg28
Nsg29
F6.4373016357421875e-06
sba(iandrea.events
WeatherEvent
p54
(dp55
g4
I0
sg5
F27547.571826219559
sg6
I0
sg7
Nsg8
I00
sg9
F27547.57183265686
sg10
(dp56
g12
I0
sg13
I3
sg14
I3
sg15
I0
sg16
I0
sg17
I0
sg18
I0
sg19
I0
sg20
I50
sg21
I0
ssg22
g23
sg24
g25
sg26
I0
sg27
I0
sg28
Nsg29
F6.4373016357421875e-06
sba(iandrea.events
WeatherEvent
p57
(dp58
g4
I0
sg5
F27557.572276353836
sg6
I0
sg7
Nsg8
I00
sg9
F27557.572283744812
sg10
(dp59
g12
I0
sg13
I3
sg14
I3
sg15
I0
sg16
I0
sg17
I0
sg18
I0
sg19
I0
sg20
I50
sg21
I0
ssg22
g23
sg24
g25
sg26
I0
sg27
I0
sg28
Nsg29
F7.3909759521484375e-06
sba(iandrea.events
WeatherEvent
p60
(dp61
g4
I0
sg5
F27567.573444128036
sg6
I0
sg7
Nsg8
I00
sg9
F27567.573451042175
sg10
(dp62
g12
I0
sg13
I3
sg14
I3
sg15
I0
sg16
I0
sg17
I0
sg18
I0
sg19
I0
sg20
I50
sg21
I0
ssg22
g23
sg24
g25
sg26
I0
sg27
I0
sg28
Nsg29
F6.9141387939453125e-06
sba(iandrea.events
WeatherEvent
p63
(dp64
g4
I0
sg5
F27577.57390332222
sg6
I0
sg7
Nsg8
I00
sg9
F27577.573909521103
sg10
(dp65
g12
I0
sg13
I3
sg14
I3
sg15
I0
sg16
I0
sg17
I0
sg18
I0
sg19
I0
sg20
I50
sg21
I0
ssg22
g23
sg24
g25
sg26
I0
sg27
I0
sg28
Nsg29
F6.198883056640625e-06
sba(iandrea.events
WeatherEvent
p66
(dp67
g4
I0
sg5
F27587.573942184448
sg6
I0
sg7
Nsg8
I00
sg9
F27587.573948860168
sg10
(dp68
g12
I0
sg13
I3
sg14
I3
sg15
I0
sg16
I0
sg17
I0
sg18
I0
sg19
I0
sg20
I50
sg21
I0
ssg22
g23
sg24
g25
sg26
I0
sg27
I0
sg28
Nsg29
F6.67572021484375e-06
sba(iandrea.events
WeatherEvent
p69
(dp70
g4
I0
sg5
F27597.575314044952
sg6
I0
sg7
Nsg8
I00
sg9
F27597.575320720673
sg10
(dp71
g12
I0
sg13
I3
sg14
I3
sg15
I0
sg16
I0
sg17
I0
sg18
I0
sg19
I0
sg20
I50
sg21
I0
ssg22
g23
sg24
g25
sg26
I0
sg27
I0
sg28
Nsg29
F6.67572021484375e-06
sba(iandrea.events
WeatherEvent
p72
(dp73
g4
I0
sg5
F27607.576894283295
sg6
I0
sg7
Nsg8
I00
sg9
F27607.576900482178
sg10
(dp74
g12
I0
sg13
I3
sg14
I3
sg15
I0
sg16
I0
sg17
I0
sg18
I0
sg19
I0
sg20
I50
sg21
I0
ssg22
g23
sg24
g25
sg26
I0
sg27
I0
sg28
Nsg29
F6.198883056640625e-06
sba(iandrea.events
WeatherEvent
p75
(dp76
g4
I0
sg5
F27617.577127456665
sg6
I0
sg7
Nsg8
I00
sg9
F27617.577133655548
sg10
(dp77
g12
I0
sg13
I3
sg14
I3
sg15
I0
sg16
I0
sg17
I0
sg18
I0
sg19
I0
sg20
I50
sg21
I0
ssg22
g23
sg24
g25
sg26
I0
sg27
I0
sg28
Nsg29
F6.198883056640625e-06
sba(iandrea.events
WeatherEvent
p78
(dp79
g4
I0
sg5
F27627.578896284103
sg6
I0
sg7
Nsg8
I00
sg9
F27627.578902959824
sg10
(dp80
g12
I0
sg13
I3
sg14
I3
sg15
I0
sg16
I0
sg17
I0
sg18
I0
sg19
I0
sg20
I50
sg21
I0
ssg22
g23
sg24
g25
sg26
I0
sg27
I0
sg28
Nsg29
F6.67572021484375e-06
sba(iandrea.events
WeatherEvent
p81
(dp82
g4
I0
sg5
F27637.579828500748
sg6
I0
sg7
Nsg8
I00
sg9
F27637.579835176468
sg10
(dp83
g12
I0
sg13
I3
sg14
I3
sg15
I0
sg16
I0
sg17
I0
sg18
I0
sg19
I0
sg20
I50
sg21
I0
ssg22
g23
sg24
g25
sg26
I0
sg27
I0
sg28
Nsg29
F6.67572021484375e-06
sba(iandrea.events
WeatherEvent
p84
(dp85
g4
I0
sg5
F27647.581525325775
sg6
I0
sg7
Nsg8
I00
sg9
F27647.581532001495
sg10
(dp86
g12
I0
sg13
I3
sg14
I3
sg15
I0
sg16
I0
sg17
I0
sg18
I0
sg19
I0
sg20
I50
sg21
I0
ssg22
g23
sg24
g25
sg26
I0
sg27
I0
sg28
Nsg29
F6.67572021484375e-06
sba(iandrea.events
WeatherEvent
p87
(dp88
g4
I0
sg5
F27657.582741975784
sg6
I0
sg7
Nsg8
I00
sg9
F27657.582748651505
sg10
(dp89
g12
I0
sg13
I3
sg14
I3
sg15
I0
sg16
I0
sg17
I0
sg18
I0
sg19
I0
sg20
I50
sg21
I0
ssg22
g23
sg24
g25
sg26
I0
sg27
I0
sg28
Nsg29
F6.67572021484375e-06
sba.(lp1
(iandrea.events
WeatherEvent
p2
(dp3
S'src'
p4
I0
sS't_i'
p5
F27667.582889795303
sS'level'
p6
I0
sS'res'
p7
NsS'inv'
p8
I00
sS't_f'
p9
F27667.582895994186
sS'etc'
p10
(dp11
S'workers_idle'
p12
I0
sS'workers_busy'
p13
I3
sS'tasks_busy'
p14
I3
sS'MEMOUT'
p15
I0
sS'UNSAT'
p16
I0
sS'TIMEOUT'
p17
I0
sS'ERROR'
p18
I0
sS'tasks_done'
p19
I0
sS'tasks_idle'
p20
I50
sS'SAT'
p21
I0
ssS'gid'
p22
S'wrep'
p23
sS'eid'
p24
S'update'
p25
sS'timeout'
p26
I0
sS'max'
p27
I0
sS'tid'
p28
NsS'dur'
p29
F6.198883056640625e-06
sba(iandrea.events
WeatherEvent
p30
(dp31
g4
I0
sg5
F27677.583759307861
sg6
I0
sg7
Nsg8
I00
sg9
F27677.583765983582
sg10
(dp32
g12
I0
sg13
I3
sg14
I3
sg15
I0
sg16
I0
sg17
I0
sg18
I0
sg19
I0
sg20
I50
sg21
I0
ssg22
g23
sg24
g25
sg26
I0
sg27
I0
sg28
Nsg29
F6.67572021484375e-06
sba(iandrea.events
WeatherEvent
p33
(dp34
g4
I0
sg5
F27687.584732294083
sg6
I0
sg7
Nsg8
I00
sg9
F27687.584738969803
sg10
(dp35
g12
I0
sg13
I3
sg14
I3
sg15
I0
sg16
I0
sg17
I0
sg18
I0
sg19
I0
sg20
I50
sg21
I0
ssg22
g23
sg24
g25
sg26
I0
sg27
I0
sg28
Nsg29
F6.67572021484375e-06
sba(iandrea.events
WeatherEvent
p36
(dp37
g4
I0
sg5
F27697.585356473923
sg6
I0
sg7
Nsg8
I00
sg9
F27697.585362911224
sg10
(dp38
g12
I0
sg13
I3
sg14
I3
sg15
I0
sg16
I0
sg17
I0
sg18
I0
sg19
I0
sg20
I50
sg21
I0
ssg22
g23
sg24
g25
sg26
I0
sg27
I0
sg28
Nsg29
F6.4373016357421875e-06
sba(iandrea.events
WeatherEvent
p39
(dp40
g4
I0
sg5
F27707.586595058441
sg6
I0
sg7
Nsg8
I00
sg9
F27707.586601257324
sg10
(dp41
g12
I0
sg13
I3
sg14
I3
sg15
I0
sg16
I0
sg17
I0
sg18
I0
sg19
I0
sg20
I50
sg21
I0
ssg22
g23
sg24
g25
sg26
I0
sg27
I0
sg28
Nsg29
F6.198883056640625e-06
sba(iandrea.events
WeatherEvent
p42
(dp43
g4
I0
sg5
F27717.586597204208
sg6
I0
sg7
Nsg8
I00
sg9
F27717.586605072021
sg10
(dp44
g12
I0
sg13
I3
sg14
I3
sg15
I0
sg16
I0
sg17
I0
sg18
I0
sg19
I0
sg20
I50
sg21
I0
ssg22
g23
sg24
g25
sg26
I0
sg27
I0
sg28
Nsg29
F7.8678131103515625e-06
sba(iandrea.events
WeatherEvent
p45
(dp46
g4
I0
sg5
F27727.588522911072
sg6
I0
sg7
Nsg8
I00
sg9
F27727.588529586792
sg10
(dp47
g12
I0
sg13
I3
sg14
I3
sg15
I0
sg16
I0
sg17
I0
sg18
I0
sg19
I0
sg20
I50
sg21
I0
ssg22
g23
sg24
g25
sg26
I0
sg27
I0
sg28
Nsg29
F6.67572021484375e-06
sba(iandrea.events
WeatherEvent
p48
(dp49
g4
I0
sg5
F27737.590439796448
sg6
I0
sg7
Nsg8
I00
sg9
F27737.590446233749
sg10
(dp50
g12
I0
sg13
I3
sg14
I3
sg15
I0
sg16
I0
sg17
I0
sg18
I0
sg19
I0
sg20
I50
sg21
I0
ssg22
g23
sg24
g25
sg26
I0
sg27
I0
sg28
Nsg29
F6.4373016357421875e-06
sba(iandrea.events
WeatherEvent
p51
(dp52
g4
I0
sg5
F27747.591224193573
sg6
I0
sg7
Nsg8
I00
sg9
F27747.591230630875
sg10
(dp53
g12
I0
sg13
I3
sg14
I3
sg15
I0
sg16
I0
sg17
I0
sg18
I0
sg19
I0
sg20
I50
sg21
I0
ssg22
g23
sg24
g25
sg26
I0
sg27
I0
sg28
Nsg29
F6.4373016357421875e-06
sba(iandrea.events
WeatherEvent
p54
(dp55
g4
I0
sg5
F27757.592308282852
sg6
I0
sg7
Nsg8
I00
sg9
F27757.592314481735
sg10
(dp56
g12
I0
sg13
I3
sg14
I3
sg15
I0
sg16
I0
sg17
I0
sg18
I0
sg19
I0
sg20
I50
sg21
I0
ssg22
g23
sg24
g25
sg26
I0
sg27
I0
sg28
Nsg29
F6.198883056640625e-06
sba(iandrea.events
WeatherEvent
p57
(dp58
g4
I0
sg5
F27767.592505693436
sg6
I0
sg7
Nsg8
I00
sg9
F27767.592513084412
sg10
(dp59
g12
I0
sg13
I3
sg14
I3
sg15
I0
sg16
I0
sg17
I0
sg18
I0
sg19
I0
sg20
I50
sg21
I0
ssg22
g23
sg24
g25
sg26
I0
sg27
I0
sg28
Nsg29
F7.3909759521484375e-06
sba(iandrea.events
WeatherEvent
p60
(dp61
g4
I0
sg5
F27777.59308552742
sg6
I0
sg7
Nsg8
I00
sg9
F27777.593091487885
sg10
(dp62
g12
I0
sg13
I3
sg14
I3
sg15
I0
sg16
I0
sg17
I0
sg18
I0
sg19
I0
sg20
I50
sg21
I0
ssg22
g23
sg24
g25
sg26
I0
sg27
I0
sg28
Nsg29
F5.9604644775390625e-06
sba(iandrea.events
WeatherEvent
p63
(dp64
g4
I0
sg5
F27787.594249486923
sg6
I0
sg7
Nsg8
I00
sg9
F27787.594256162643
sg10
(dp65
g12
I0
sg13
I3
sg14
I3
sg15
I0
sg16
I0
sg17
I0
sg18
I0
sg19
I0
sg20
I50
sg21
I0
ssg22
g23
sg24
g25
sg26
I0
sg27
I0
sg28
Nsg29
F6.67572021484375e-06
sba(iandrea.events
WeatherEvent
p66
(dp67
g4
I0
sg5
F27797.594900369644
sg6
I0
sg7
Nsg8
I00
sg9
F27797.594907283783
sg10
(dp68
g12
I0
sg13
I3
sg14
I3
sg15
I0
sg16
I0
sg17
I0
sg18
I0
sg19
I0
sg20
I50
sg21
I0
ssg22
g23
sg24
g25
sg26
I0
sg27
I0
sg28
Nsg29
F6.9141387939453125e-06
sba(iandrea.events
WeatherEvent
p69
(dp70
g4
I0
sg5
F27807.596294164658
sg6
I0
sg7
Nsg8
I00
sg9
F27807.596300601959
sg10
(dp71
g12
I0
sg13
I3
sg14
I3
sg15
I0
sg16
I0
sg17
I0
sg18
I0
sg19
I0
sg20
I50
sg21
I0
ssg22
g23
sg24
g25
sg26
I0
sg27
I0
sg28
Nsg29
F6.4373016357421875e-06
sba(iandrea.events
WeatherEvent
p72
(dp73
g4
I0
sg5
F27817.597639560699
sg6
I0
sg7
Nsg8
I00
sg9
F27817.597646713257
sg10
(dp74
g12
I0
sg13
I3
sg14
I3
sg15
I0
sg16
I0
sg17
I0
sg18
I0
sg19
I0
sg20
I50
sg21
I0
ssg22
g23
sg24
g25
sg26
I0
sg27
I0
sg28
Nsg29
F7.152557373046875e-06
sba(iandrea.events
WeatherEvent
p75
(dp76
g4
I0
sg5
F27827.598730564117
sg6
I0
sg7
Nsg8
I00
sg9
F27827.598737239838
sg10
(dp77
g12
I0
sg13
I3
sg14
I3
sg15
I0
sg16
I0
sg17
I0
sg18
I0
sg19
I0
sg20
I50
sg21
I0
ssg22
g23
sg24
g25
sg26
I0
sg27
I0
sg28
Nsg29
F6.67572021484375e-06
sba(iandrea.events
WeatherEvent
p78
(dp79
g4
I0
sg5
F27837.599398612976
sg6
I0
sg7
Nsg8
I00
sg9
F27837.599405288696
sg10
(dp80
g12
I0
sg13
I3
sg14
I3
sg15
I0
sg16
I0
sg17
I0
sg18
I0
sg19
I0
sg20
I50
sg21
I0
ssg22
g23
sg24
g25
sg26
I0
sg27
I0
sg28
Nsg29
F6.67572021484375e-06
sba(iandrea.events
WeatherEvent
p81
(dp82
g4
I0
sg5
F27847.599749326706
sg6
I0
sg7
Nsg8
I00
sg9
F27847.599756002426
sg10
(dp83
g12
I0
sg13
I3
sg14
I3
sg15
I0
sg16
I0
sg17
I0
sg18
I0
sg19
I0
sg20
I50
sg21
I0
ssg22
g23
sg24
g25
sg26
I0
sg27
I0
sg28
Nsg29
F6.67572021484375e-06
sba(iandrea.events
WeatherEvent
p84
(dp85
g4
I0
sg5
F27857.600062131882
sg6
I0
sg7
Nsg8
I00
sg9
F27857.600068569183
sg10
(dp86
g12
I0
sg13
I3
sg14
I3
sg15
I0
sg16
I0
sg17
I0
sg18
I0
sg19
I0
sg20
I50
sg21
I0
ssg22
g23
sg24
g25
sg26
I0
sg27
I0
sg28
Nsg29
F6.4373016357421875e-06
sba(iandrea.events
WeatherEvent
p87
(dp88
g4
I0
sg5
F27867.602113246918
sg6
I0
sg7
Nsg8
I00
sg9
F27867.602119922638
sg10
(dp89
g12
I0
sg13
I3
sg14
I3
sg15
I0
sg16
I0
sg17
I0
sg18
I0
sg19
I0
sg20
I50
sg21
I0
ssg22
g23
sg24
g25
sg26
I0
sg27
I0
sg28
Nsg29
F6.67572021484375e-06
sba.(lp1
(iandrea.events
WeatherEvent
p2
(dp3
S'src'
p4
I0
sS't_i'
p5
F27877.603030443192
sS'level'
p6
I0
sS'res'
p7
NsS'inv'
p8
I00
sS't_f'
p9
F27877.603036880493
sS'etc'
p10
(dp11
S'workers_idle'
p12
I0
sS'workers_busy'
p13
I3
sS'tasks_busy'
p14
I3
sS'MEMOUT'
p15
I0
sS'UNSAT'
p16
I0
sS'TIMEOUT'
p17
I0
sS'ERROR'
p18
I0
sS'tasks_done'
p19
I0
sS'tasks_idle'
p20
I50
sS'SAT'
p21
I0
ssS'gid'
p22
S'wrep'
p23
sS'eid'
p24
S'update'
p25
sS'timeout'
p26
I0
sS'max'
p27
I0
sS'tid'
p28
NsS'dur'
p29
F6.4373016357421875e-06
sba(iandrea.events
WeatherEvent
p30
(dp31
g4
I0
sg5
F27887.604106664658
sg6
I0
sg7
Nsg8
I00
sg9
F27887.604112863541
sg10
(dp32
g12
I0
sg13
I3
sg14
I3
sg15
I0
sg16
I0
sg17
I0
sg18
I0
sg19
I0
sg20
I50
sg21
I0
ssg22
g23
sg24
g25
sg26
I0
sg27
I0
sg28
Nsg29
F6.198883056640625e-06
sba(iandrea.events
WeatherEvent
p33
(dp34
g4
I0
sg5
F27897.605246305466
sg6
I0
sg7
Nsg8
I00
sg9
F27897.60525226593
sg10
(dp35
g12
I0
sg13
I3
sg14
I3
sg15
I0
sg16
I0
sg17
I0
sg18
I0
sg19
I0
sg20
I50
sg21
I0
ssg22
g23
sg24
g25
sg26
I0
sg27
I0
sg28
Nsg29
F5.9604644775390625e-06
sba(iandrea.events
WeatherEvent
p36
(dp37
g4
I0
sg5
F27907.606401443481
sg6
I0
sg7
Nsg8
I00
sg9
F27907.606406927109
sg10
(dp38
g12
I0
sg13
I3
sg14
I3
sg15
I0
sg16
I0
sg17
I0
sg18
I0
sg19
I0
sg20
I50
sg21
I0
ssg22
g23
sg24
g25
sg26
I0
sg27
I0
sg28
Nsg29
F5.4836273193359375e-06
sba(iandrea.events
WeatherEvent
p39
(dp40
g4
I0
sg5
F27917.607944250107
sg6
I0
sg7
Nsg8
I00
sg9
F27917.607950687408
sg10
(dp41
g12
I0
sg13
I3
sg14
I3
sg15
I0
sg16
I0
sg17
I0
sg18
I0
sg19
I0
sg20
I50
sg21
I0
ssg22
g23
sg24
g25
sg26
I0
sg27
I0
sg28
Nsg29
F6.4373016357421875e-06
sba(iandrea.events
WeatherEvent
p42
(dp43
g4
I0
sg5
F27927.609279155731
sg6
I0
sg7
Nsg8
I00
sg9
F27927.609286546707
sg10
(dp44
g12
I0
sg13
I3
sg14
I3
sg15
I0
sg16
I0
sg17
I0
sg18
I0
sg19
I0
sg20
I50
sg21
I0
ssg22
g23
sg24
g25
sg26
I0
sg27
I0
sg28
Nsg29
F7.3909759521484375e-06
sba(iandrea.events
WeatherEvent
p45
(dp46
g4
I0
sg5
F27937.610155820847
sg6
I0
sg7
Nsg8
I00
sg9
F27937.61016201973
sg10
(dp47
g12
I0
sg13
I3
sg14
I3
sg15
I0
sg16
I0
sg17
I0
sg18
I0
sg19
I0
sg20
I50
sg21
I0
ssg22
g23
sg24
g25
sg26
I0
sg27
I0
sg28
Nsg29
F6.198883056640625e-06
sba(iandrea.events
WeatherEvent
p48
(dp49
g4
I0
sg5
F27947.610675573349
sg6
I0
sg7
Nsg8
I00
sg9
F27947.610682010651
sg10
(dp50
g12
I0
sg13
I3
sg14
I3
sg15
I0
sg16
I0
sg17
I0
sg18
I0
sg19
I0
sg20
I50
sg21
I0
ssg22
g23
sg24
g25
sg26
I0
sg27
I0
sg28
Nsg29
F6.4373016357421875e-06
sba(iandrea.events
WeatherEvent
p51
(dp52
g4
I0
sg5
F27957.611669540405
sg6
I0
sg7
Nsg8
I00
sg9
F27957.611676216125
sg10
(dp53
g12
I0
sg13
I3
sg14
I3
sg15
I0
sg16
I0
sg17
I0
sg18
I0
sg19
I0
sg20
I50
sg21
I0
ssg22
g23
sg24
g25
sg26
I0
sg27
I0
sg28
Nsg29
F6.67572021484375e-06
sba(iandrea.events
WeatherEvent
p54
(dp55
g4
I0
sg5
F27967.612252235413
sg6
I0
sg7
Nsg8
I00
sg9
F27967.612258672714
sg10
(dp56
g12
I0
sg13
I3
sg14
I3
sg15
I0
sg16
I0
sg17
I0
sg18
I0
sg19
I0
sg20
I50
sg21
I0
ssg22
g23
sg24
g25
sg26
I0
sg27
I0
sg28
Nsg29
F6.4373016357421875e-06
sba(iandrea.events
WeatherEvent
p57
(dp58
g4
I0
sg5
F27977.613434791565
sg6
I0
sg7
Nsg8
I00
sg9
F27977.613442659378
sg10
(dp59
g12
I0
sg13
I3
sg14
I3
sg15
I0
sg16
I0
sg17
I0
sg18
I0
sg19
I0
sg20
I50
sg21
I0
ssg22
g23
sg24
g25
sg26
I0
sg27
I0
sg28
Nsg29
F7.8678131103515625e-06
sba(iandrea.events
WeatherEvent
p60
(dp61
g4
I0
sg5
F27987.613493204117
sg6
I0
sg7
Nsg8
I00
sg9
F27987.613499879837
sg10
(dp62
g12
I0
sg13
I3
sg14
I3
sg15
I0
sg16
I0
sg17
I0
sg18
I0
sg19
I0
sg20
I50
sg21
I0
ssg22
g23
sg24
g25
sg26
I0
sg27
I0
sg28
Nsg29
F6.67572021484375e-06
sba(iandrea.events
WeatherEvent
p63
(dp64
g4
I0
sg5
F27997.613890647888
sg6
I0
sg7
Nsg8
I00
sg9
F27997.61389708519
sg10
(dp65
g12
I0
sg13
I3
sg14
I3
sg15
I0
sg16
I0
sg17
I0
sg18
I0
sg19
I0
sg20
I50
sg21
I0
ssg22
g23
sg24
g25
sg26
I0
sg27
I0
sg28
Nsg29
F6.4373016357421875e-06
sba(iandrea.events
WeatherEvent
p66
(dp67
g4
I0
sg5
F28007.614814758301
sg6
I0
sg7
Nsg8
I00
sg9
F28007.614821195602
sg10
(dp68
g12
I0
sg13
I3
sg14
I3
sg15
I0
sg16
I0
sg17
I0
sg18
I0
sg19
I0
sg20
I50
sg21
I0
ssg22
g23
sg24
g25
sg26
I0
sg27
I0
sg28
Nsg29
F6.4373016357421875e-06
sba(iandrea.events
WeatherEvent
p69
(dp70
g4
I0
sg5
F28017.616743326187
sg6
I0
sg7
Nsg8
I00
sg9
F28017.61674952507
sg10
(dp71
g12
I0
sg13
I3
sg14
I3
sg15
I0
sg16
I0
sg17
I0
sg18
I0
sg19
I0
sg20
I50
sg21
I0
ssg22
g23
sg24
g25
sg26
I0
sg27
I0
sg28
Nsg29
F6.198883056640625e-06
sba(iandrea.events
WeatherEvent
p72
(dp73
g4
I0
sg5
F28027.617728948593
sg6
I0
sg7
Nsg8
I00
sg9
F28027.617735385895
sg10
(dp74
g12
I0
sg13
I3
sg14
I3
sg15
I0
sg16
I0
sg17
I0
sg18
I0
sg19
I0
sg20
I50
sg21
I0
ssg22
g23
sg24
g25
sg26
I0
sg27
I0
sg28
Nsg29
F6.4373016357421875e-06
sba(iandrea.events
WeatherEvent
p75
(dp76
g4
I0
sg5
F28037.61910700798
sg6
I0
sg7
Nsg8
I00
sg9
F28037.619113445282
sg10
(dp77
g12
I0
sg13
I3
sg14
I3
sg15
I0
sg16
I0
sg17
I0
sg18
I0
sg19
I0
sg20
I50
sg21
I0
ssg22
g23
sg24
g25
sg26
I0
sg27
I0
sg28
Nsg29
F6.4373016357421875e-06
sba(iandrea.events
WeatherEvent
p78
(dp79
g4
I0
sg5
F28047.62059545517
sg6
I0
sg7
Nsg8
I00
sg9
F28047.620602369308
sg10
(dp80
g12
I0
sg13
I3
sg14
I3
sg15
I0
sg16
I0
sg17
I0
sg18
I0
sg19
I0
sg20
I50
sg21
I0
ssg22
g23
sg24
g25
sg26
I0
sg27
I0
sg28
Nsg29
F6.9141387939453125e-06
sba(iandrea.events
WeatherEvent
p81
(dp82
g4
I0
sg5
F28057.621666669846
sg6
I0
sg7
Nsg8
I00
sg9
F28057.621673107147
sg10
(dp83
g12
I0
sg13
I3
sg14
I3
sg15
I0
sg16
I0
sg17
I0
sg18
I0
sg19
I0
sg20
I50
sg21
I0
ssg22
g23
sg24
g25
sg26
I0
sg27
I0
sg28
Nsg29
F6.4373016357421875e-06
sba(iandrea.events
WeatherEvent
p84
(dp85
g4
I0
sg5
F28067.621975421906
sg6
I0
sg7
Nsg8
I00
sg9
F28067.621981859207
sg10
(dp86
g12
I0
sg13
I3
sg14
I3
sg15
I0
sg16
I0
sg17
I0
sg18
I0
sg19
I0
sg20
I50
sg21
I0
ssg22
g23
sg24
g25
sg26
I0
sg27
I0
sg28
Nsg29
F6.4373016357421875e-06
sba(iandrea.events
WeatherEvent
p87
(dp88
g4
I0
sg5
F28077.623882770538
sg6
I0
sg7
Nsg8
I00
sg9
F28077.623888969421
sg10
(dp89
g12
I0
sg13
I3
sg14
I3
sg15
I0
sg16
I0
sg17
I0
sg18
I0
sg19
I0
sg20
I50
sg21
I0
ssg22
g23
sg24
g25
sg26
I0
sg27
I0
sg28
Nsg29
F6.198883056640625e-06
sba.(lp1
(iandrea.events
WeatherEvent
p2
(dp3
S'src'
p4
I0
sS't_i'
p5
F28087.625266075134
sS'level'
p6
I0
sS'res'
p7
NsS'inv'
p8
I00
sS't_f'
p9
F28087.625272989273
sS'etc'
p10
(dp11
S'workers_idle'
p12
I0
sS'workers_busy'
p13
I3
sS'tasks_busy'
p14
I3
sS'MEMOUT'
p15
I0
sS'UNSAT'
p16
I0
sS'TIMEOUT'
p17
I0
sS'ERROR'
p18
I0
sS'tasks_done'
p19
I0
sS'tasks_idle'
p20
I50
sS'SAT'
p21
I0
ssS'gid'
p22
S'wrep'
p23
sS'eid'
p24
S'update'
p25
sS'timeout'
p26
I0
sS'max'
p27
I0
sS'tid'
p28
NsS'dur'
p29
F6.9141387939453125e-06
sba(iandrea.events
WeatherEvent
p30
(dp31
g4
I0
sg5
F28097.626222372055
sg6
I0
sg7
Nsg8
I00
sg9
F28097.62622833252
sg10
(dp32
g12
I0
sg13
I3
sg14
I3
sg15
I0
sg16
I0
sg17
I0
sg18
I0
sg19
I0
sg20
I50
sg21
I0
ssg22
g23
sg24
g25
sg26
I0
sg27
I0
sg28
Nsg29
F5.9604644775390625e-06
sba(iandrea.events
WeatherEvent
p33
(dp34
g4
I0
sg5
F28107.627412319183
sg6
I0
sg7
Nsg8
I00
sg9
F28107.627418518066
sg10
(dp35
g12
I0
sg13
I3
sg14
I3
sg15
I0
sg16
I0
sg17
I0
sg18
I0
sg19
I0
sg20
I50
sg21
I0
ssg22
g23
sg24
g25
sg26
I0
sg27
I0
sg28
Nsg29
F6.198883056640625e-06
sba(iandrea.events
WeatherEvent
p36
(dp37
g4
I0
sg5
F28117.628525733948
sg6
I0
sg7
Nsg8
I00
sg9
F28117.628532409668
sg10
(dp38
g12
I0
sg13
I3
sg14
I3
sg15
I0
sg16
I0
sg17
I0
sg18
I0
sg19
I0
sg20
I50
sg21
I0
ssg22
g23
sg24
g25
sg26
I0
sg27
I0
sg28
Nsg29
F6.67572021484375e-06
sba(iandrea.events
WeatherEvent
p39
(dp40
g4
I0
sg5
F28127.629470586777
sg6
I0
sg7
Nsg8
I00
sg9
F28127.629478216171
sg10
(dp41
g12
I0
sg13
I3
sg14
I3
sg15
I0
sg16
I0
sg17
I0
sg18
I0
sg19
I0
sg20
I50
sg21
I0
ssg22
g23
sg24
g25
sg26
I0
sg27
I0
sg28
Nsg29
F7.62939453125e-06
sba(iandrea.events
WeatherEvent
p42
(dp43
g4
I0
sg5
F28137.629534721375
sg6
I0
sg7
Nsg8
I00
sg9
F28137.629542589188
sg10
(dp44
g12
I0
sg13
I3
sg14
I3
sg15
I0
sg16
I0
sg17
I0
sg18
I0
sg19
I0
sg20
I50
sg21
I0
ssg22
g23
sg24
g25
sg26
I0
sg27
I0
sg28
Nsg29
F7.8678131103515625e-06
sba(iandrea.events
WeatherEvent
p45
(dp46
g4
I0
sg5
F28147.630806922913
sg6
I0
sg7
Nsg8
I00
sg9
F28147.630813837051
sg10
(dp47
g12
I0
sg13
I3
sg14
I3
sg15
I0
sg16
I0
sg17
I0
sg18
I0
sg19
I0
sg20
I50
sg21
I0
ssg22
g23
sg24
g25
sg26
I0
sg27
I0
sg28
Nsg29
F6.9141387939453125e-06
sba(iandrea.events
WeatherEvent
p48
(dp49
g4
I0
sg5
F28157.63231086731
sg6
I0
sg7
Nsg8
I00
sg9
F28157.632316112518
sg10
(dp50
g12
I0
sg13
I3
sg14
I3
sg15
I0
sg16
I0
sg17
I0
sg18
I0
sg19
I0
sg20
I50
sg21
I0
ssg22
g23
sg24
g25
sg26
I0
sg27
I0
sg28
Nsg29
F5.245208740234375e-06
sba(iandrea.events
WeatherEvent
p51
(dp52
g4
I0
sg5
F28167.632373094559
sg6
I0
sg7
Nsg8
I00
sg9
F28167.63237953186
sg10
(dp53
g12
I0
sg13
I3
sg14
I3
sg15
I0
sg16
I0
sg17
I0
sg18
I0
sg19
I0
sg20
I50
sg21
I0
ssg22
g23
sg24
g25
sg26
I0
sg27
I0
sg28
Nsg29
F6.4373016357421875e-06
sba(iandrea.events
WeatherEvent
p54
(dp55
g4
I0
sg5
F28177.632596492767
sg6
I0
sg7
Nsg8
I00
sg9
F28177.63260269165
sg10
(dp56
g12
I0
sg13
I3
sg14
I3
sg15
I0
sg16
I0
sg17
I0
sg18
I0
sg19
I0
sg20
I50
sg21
I0
ssg22
g23
sg24
g25
sg26
I0
sg27
I0
sg28
Nsg29
F6.198883056640625e-06
sba(iandrea.events
WeatherEvent
p57
(dp58
g4
I0
sg5
F28187.632920265198
sg6
I0
sg7
Nsg8
I00
sg9
F28187.632926702499
sg10
(dp59
g12
I0
sg13
I3
sg14
I3
sg15
I0
sg16
I0
sg17
I0
sg18
I0
sg19
I0
sg20
I50
sg21
I0
ssg22
g23
sg24
g25
sg26
I0
sg27
I0
sg28
Nsg29
F6.4373016357421875e-06
sba(iandrea.events
WeatherEvent
p60
(dp61
g4
I0
sg5
F28197.634883642197
sg6
I0
sg7
Nsg8
I00
sg9
F28197.634890079498
sg10
(dp62
g12
I0
sg13
I3
sg14
I3
sg15
I0
sg16
I0
sg17
I0
sg18
I0
sg19
I0
sg20
I50
sg21
I0
ssg22
g23
sg24
g25
sg26
I0
sg27
I0
sg28
Nsg29
F6.4373016357421875e-06
sba(iandrea.events
WeatherEvent
p63
(dp64
g4
I0
sg5
F28207.635413169861
sg6
I0
sg7
Nsg8
I00
sg9
F28207.635419607162
sg10
(dp65
g12
I0
sg13
I3
sg14
I3
sg15
I0
sg16
I0
sg17
I0
sg18
I0
sg19
I0
sg20
I50
sg21
I0
ssg22
g23
sg24
g25
sg26
I0
sg27
I0
sg28
Nsg29
F6.4373016357421875e-06
sba(iandrea.events
WeatherEvent
p66
(dp67
g4
I0
sg5
F28217.636809587479
sg6
I0
sg7
Nsg8
I00
sg9
F28217.636815547943
sg10
(dp68
g12
I0
sg13
I3
sg14
I3
sg15
I0
sg16
I0
sg17
I0
sg18
I0
sg19
I0
sg20
I50
sg21
I0
ssg22
g23
sg24
g25
sg26
I0
sg27
I0
sg28
Nsg29
F5.9604644775390625e-06
sba(iandrea.events
WeatherEvent
p69
(dp70
g4
I0
sg5
F28227.637591838837
sg6
I0
sg7
Nsg8
I00
sg9
F28227.637598752975
sg10
(dp71
g12
I0
sg13
I3
sg14
I3
sg15
I0
sg16
I0
sg17
I0
sg18
I0
sg19
I0
sg20
I50
sg21
I0
ssg22
g23
sg24
g25
sg26
I0
sg27
I0
sg28
Nsg29
F6.9141387939453125e-06
sba(iandrea.events
WeatherEvent
p72
(dp73
g4
I0
sg5
F28237.638597726822
sg6
I0
sg7
Nsg8
I00
sg9
F28237.638604402542
sg10
(dp74
g12
I0
sg13
I3
sg14
I3
sg15
I0
sg16
I0
sg17
I0
sg18
I0
sg19
I0
sg20
I50
sg21
I0
ssg22
g23
sg24
g25
sg26
I0
sg27
I0
sg28
Nsg29
F6.67572021484375e-06
sba(iandrea.events
WeatherEvent
p75
(dp76
g4
I0
sg5
F28247.640397310257
sg6
I0
sg7
Nsg8
I00
sg9
F28247.640403985977
sg10
(dp77
g12
I0
sg13
I3
sg14
I3
sg15
I0
sg16
I0
sg17
I0
sg18
I0
sg19
I0
sg20
I50
sg21
I0
ssg22
g23
sg24
g25
sg26
I0
sg27
I0
sg28
Nsg29
F6.67572021484375e-06
sba(iandrea.events
WeatherEvent
p78
(dp79
g4
I0
sg5
F28257.642088890076
sg6
I0
sg7
Nsg8
I00
sg9
F28257.642095327377
sg10
(dp80
g12
I0
sg13
I3
sg14
I3
sg15
I0
sg16
I0
sg17
I0
sg18
I0
sg19
I0
sg20
I50
sg21
I0
ssg22
g23
sg24
g25
sg26
I0
sg27
I0
sg28
Nsg29
F6.4373016357421875e-06
sba(iandrea.events
WeatherEvent
p81
(dp82
g4
I0
sg5
F28267.642800807953
sg6
I0
sg7
Nsg8
I00
sg9
F28267.642807245255
sg10
(dp83
g12
I0
sg13
I3
sg14
I3
sg15
I0
sg16
I0
sg17
I0
sg18
I0
sg19
I0
sg20
I50
sg21
I0
ssg22
g23
sg24
g25
sg26
I0
sg27
I0
sg28
Nsg29
F6.4373016357421875e-06
sba(iandrea.events
WeatherEvent
p84
(dp85
g4
I0
sg5
F28277.644520759583
sg6
I0
sg7
Nsg8
I00
sg9
F28277.644527435303
sg10
(dp86
g12
I0
sg13
I3
sg14
I3
sg15
I0
sg16
I0
sg17
I0
sg18
I0
sg19
I0
sg20
I50
sg21
I0
ssg22
g23
sg24
g25
sg26
I0
sg27
I0
sg28
Nsg29
F6.67572021484375e-06
sba(iandrea.events
WeatherEvent
p87
(dp88
g4
I0
sg5
F28287.644860982895
sg6
I0
sg7
Nsg8
I00
sg9
F28287.644867658615
sg10
(dp89
g12
I0
sg13
I3
sg14
I3
sg15
I0
sg16
I0
sg17
I0
sg18
I0
sg19
I0
sg20
I50
sg21
I0
ssg22
g23
sg24
g25
sg26
I0
sg27
I0
sg28
Nsg29
F6.67572021484375e-06
sba.