(lp1
(iandrea.events
WeatherEvent
p2
(dp3
S'src'
p4
I0
sS't_i'
p5
F0.151461235
sS'level'
p6
I0
sS'res'
p7
NsS'inv'
p8
I00
sS't_f'
p9
F0.15146585200000001
sS'etc'
p10
(dp11
S'workers_idle'
p12
I0
sS'workers_busy'
p13
I0
sS'tasks_busy'
p14
I0
sS'MEMOUT'
p15
I0
sS'UNSAT'
p16
I0
sS'TIMEOUT'
p17
I0
sS'ERROR'
p18
I0
sS'tasks_done'
p19
I0
sS'tasks_idle'
p20
I0
sS'SAT'
p21
I0
ssS'gid'
p22
S'wrep'
p23
sS'eid'
p24
S'preinit'
p25
sS'timeout'
p26
I0
sS'max'
p27
I0
sS'tid'
p28
NsS'dur'
p29
F4.6170000000123057e-06
sba(iandrea.events
Event
p30
(dp31
g4
I0
sg5
F0.151521398
sg6
I0
sg7
S'1 tasks'
p32
sg8
I00
sg9
F60.834493917000003
sg10
(dp33
sg22
S'main'
p34
sg24
S'queue.create'
p35
sg26
I0
sg27
I0
sg28
Nsg29
F60.682972519000003
sba(iandrea.events
WeatherEvent
p36
(dp37
g4
I0
sg5
F60.834555809000001
sg6
I0
sg7
Nsg8
I00
sg9
F60.834562267999999
sg10
(dp38
g12
I0
sg13
I0
sg14
I0
sg15
I0
sg16
I0
sg17
I0
sg18
I0
sg19
I0
sg20
I1
sg21
I0
ssg22
g23
sg24
S'initial'
p39
sg26
I0
sg27
I0
sg28
Nsg29
F6.4589999979602908e-06
sba(iandrea.events
WeatherEvent
p40
(dp41
g4
I0
sg5
F70.834822541999998
sg6
I0
sg7
Nsg8
I00
sg9
F70.834833857999996
sg10
(dp42
g12
I0
sg13
I3
sg14
I3
sg15
I0
sg16
I0
sg17
I0
sg18
I0
sg19
I0
sg20
I17
sg21
I0
ssg22
g23
sg24
S'update'
p43
sg26
I0
sg27
I0
sg28
Nsg29
F1.1315999998373627e-05
sba(iandrea.events
WeatherEvent
p44
(dp45
g4
I0
sg5
F80.83585033
sg6
I0
sg7
Nsg8
I00
sg9
F80.835866592000002
sg10
(dp46
g12
I0
sg13
I3
sg14
I3
sg15
I0
sg16
I0
sg17
I0
sg18
I0
sg19
I0
sg20
I17
sg21
I0
ssg22
g23
sg24
g43
sg26
I0
sg27
I0
sg28
Nsg29
F1.6262000002598143e-05
sba(iandrea.events
WeatherEvent
p47
(dp48
g4
I0
sg5
F90.837501427999996
sg6
I0
sg7
Nsg8
I00
sg9
F90.837512524000005
sg10
(dp49
g12
I0
sg13
I3
sg14
I3
sg15
I0
sg16
I0
sg17
I0
sg18
I0
sg19
I0
sg20
I17
sg21
I0
ssg22
g23
sg24
g43
sg26
I0
sg27
I0
sg28
Nsg29
F1.1096000008592455e-05
sba(iandrea.events
WeatherEvent
p50
(dp51
g4
I0
sg5
F100.838453856
sg6
I0
sg7
Nsg8
I00
sg9
F100.838463467
sg10
(dp52
g12
I0
sg13
I3
sg14
I3
sg15
I0
sg16
I0
sg17
I0
sg18
I0
sg19
I0
sg20
I17
sg21
I0
ssg22
g23
sg24
g43
sg26
I0
sg27
I0
sg28
Nsg29
F9.6109999958571279e-06
sba(iandrea.events
WeatherEvent
p53
(dp54
g4
I0
sg5
F110.840299004
sg6
I0
sg7
Nsg8
I00
sg9
F110.840314986
sg10
(dp55
g12
I0
sg13
I3
sg14
I3
sg15
I0
sg16
I0
sg17
I0
sg18
I0
sg19
I0
sg20
I17
sg21
I0
ssg22
g23
sg24
g43
sg26
I0
sg27
I0
sg28
Nsg29
F1.5981999993641693e-05
sba(iandrea.events
WeatherEvent
p56
(dp57
g4
I0
sg5
F120.841415967
sg6
I0
sg7
Nsg8
I00
sg9
F120.841425652
sg10
(dp58
g12
I0
sg13
I3
sg14
I3
sg15
I0
sg16
I0
sg17
I0
sg18
I0
sg19
I0
sg20
I17
sg21
I0
ssg22
g23
sg24
g43
sg26
I0
sg27
I0
sg28
Nsg29
F9.684999994874488e-06
sba(iandrea.events
WeatherEvent
p59
(dp60
g4
I0
sg5
F130.841567102
sg6
I0
sg7
Nsg8
I00
sg9
F130.841574253
sg10
(dp61
g12
I0
sg13
I3
sg14
I3
sg15
I0
sg16
I0
sg17
I0
sg18
I0
sg19
I0
sg20
I17
sg21
I0
ssg22
g23
sg24
g43
sg26
I0
sg27
I0
sg28
Nsg29
F7.151000005478636e-06
sba(iandrea.events
WeatherEvent
p62
(dp63
g4
I0
sg5
F140.841812957
sg6
I0
sg7
Nsg8
I00
sg9
F140.84182278599999
sg10
(dp64
g12
I0
sg13
I3
sg14
I3
sg15
I0
sg16
I0
sg17
I0
sg18
I0
sg19
I0
sg20
I17
sg21
I0
ssg22
g23
sg24
g43
sg26
I0
sg27
I0
sg28
Nsg29
F9.8289999925782467e-06
sba(iandrea.events
WeatherEvent
p65
(dp66
g4
I0
sg5
F150.84205325799999
sg6
I0
sg7
Nsg8
I00
sg9
F150.84207000200001
sg10
(dp67
g12
I0
sg13
I3
sg14
I3
sg15
I0
sg16
I0
sg17
I0
sg18
I0
sg19
I0
sg20
I17
sg21
I0
ssg22
g23
sg24
g43
sg26
I0
sg27
I0
sg28
Nsg29
F1.6744000021162719e-05
sba(iandrea.events
WeatherEvent
p68
(dp69
g4
I0
sg5
F160.84321657999999
sg6
I0
sg7
Nsg8
I00
sg9
F160.84324200200001
sg10
(dp70
g12
I0
sg13
I3
sg14
I3
sg15
I0
sg16
I0
sg17
I0
sg18
I0
sg19
I0
sg20
I17
sg21
I0
ssg22
g23
sg24
g43
sg26
I0
sg27
I0
sg28
Nsg29
F2.5422000021535496e-05
sba(iandrea.events
WeatherEvent
p71
(dp72
g4
I0
sg5
F170.844318939
sg6
I0
sg7
Nsg8
I00
sg9
F170.84433357200001
sg10
(dp73
g12
I0
sg13
I3
sg14
I3
sg15
I0
sg16
I0
sg17
I0
sg18
I0
sg19
I0
sg20
I17
sg21
I0
ssg22
g23
sg24
g43
sg26
I0
sg27
I0
sg28
Nsg29
F1.4633000006369912e-05
sba(iandrea.events
WeatherEvent
p74
(dp75
g4
I0
sg5
F180.84511978
sg6
I0
sg7
Nsg8
I00
sg9
F180.84512945399999
sg10
(dp76
g12
I0
sg13
I3
sg14
I3
sg15
I0
sg16
I0
sg17
I0
sg18
I0
sg19
I0
sg20
I17
sg21
I0
ssg22
g23
sg24
g43
sg26
I0
sg27
I0
sg28
Nsg29
F9.6739999833062029e-06
sba(iandrea.events
WeatherEvent
p77
(dp78
g4
I0
sg5
F190.84596434599999
sg6
I0
sg7
Nsg8
I00
sg9
F190.845974238
sg10
(dp79
g12
I0
sg13
I3
sg14
I3
sg15
I0
sg16
I0
sg17
I0
sg18
I0
sg19
I0
sg20
I17
sg21
I0
ssg22
g23
sg24
g43
sg26
I0
sg27
I0
sg28
Nsg29
F9.8920000084490312e-06
sba(iandrea.events
WeatherEvent
p80
(dp81
g4
I0
sg5
F200.84757163500001
sg6
I0
sg7
Nsg8
I00
sg9
F200.847581324
sg10
(dp82
g12
I0
sg13
I3
sg14
I3
sg15
I0
sg16
I0
sg17
I0
sg18
I0
sg19
I0
sg20
I17
sg21
I0
ssg22
g23
sg24
g43
sg26
I0
sg27
I0
sg28
Nsg29
F9.6889999952054495e-06
sba(iandrea.events
WeatherEvent
p83
(dp84
g4
I0
sg5
F210.84825882999999
sg6
I0
sg7
Nsg8
I00
sg9
F210.84826949800001
sg10
(dp85
g12
I0
sg13
I3
sg14
I3
sg15
I0
sg16
I0
sg17
I0
sg18
I0
sg19
I0
sg20
I17
sg21
I0
ssg22
g23
sg24
g43
sg26
I0
sg27
I0
sg28
Nsg29
F1.066800001581214e-05
sba(iandrea.events
WeatherEvent
p86
(dp87
g4
I0
sg5
F220.849014036
sg6
I0
sg7
Nsg8
I00
sg9
F220.84902353699999
sg10
(dp88
g12
I0
sg13
I3
sg14
I3
sg15
I0
sg16
I0
sg17
I0
sg18
I0
sg19
I0
sg20
I17
sg21
I0
ssg22
g23
sg24
g43
sg26
I0
sg27
I0
sg28
Nsg29
F9.5009999938611145e-06
sba(iandrea.events
WeatherEvent
p89
(dp90
g4
I0
sg5
F230.849712547
sg6
I0
sg7
Nsg8
I00
sg9
F230.84972801000001
sg10
(dp91
g12
I0
sg13
I3
sg14
I3
sg15
I0
sg16
I0
sg17
I0
sg18
I0
sg19
I0
sg20
I17
sg21
I0
ssg22
g23
sg24
g43
sg26
I0
sg27
I0
sg28
Nsg29
F1.5463000011095573e-05
sba(iandrea.events
WeatherEvent
p92
(dp93
g4
I0
sg5
F240.85107698900001
sg6
I0
sg7
Nsg8
I00
sg9
F240.85108607500001
sg10
(dp94
g12
I0
sg13
I3
sg14
I3
sg15
I0
sg16
I0
sg17
I0
sg18
I0
sg19
I0
sg20
I17
sg21
I0
ssg22
g23
sg24
g43
sg26
I0
sg27
I0
sg28
Nsg29
F9.0860000057091383e-06
sba.(lp1
(iandrea.events
WeatherEvent
p2
(dp3
S'src'
p4
I0
sS't_i'
p5
F250.852952837
sS'level'
p6
I0
sS'res'
p7
NsS'inv'
p8
I00
sS't_f'
p9
F250.85297413200001
sS'etc'
p10
(dp11
S'workers_idle'
p12
I0
sS'workers_busy'
p13
I3
sS'tasks_busy'
p14
I3
sS'MEMOUT'
p15
I0
sS'UNSAT'
p16
I0
sS'TIMEOUT'
p17
I0
sS'ERROR'
p18
I0
sS'tasks_done'
p19
I0
sS'tasks_idle'
p20
I17
sS'SAT'
p21
I0
ssS'gid'
p22
S'wrep'
p23
sS'eid'
p24
S'update'
p25
sS'timeout'
p26
I0
sS'max'
p27
I0
sS'tid'
p28
NsS'dur'
p29
F2.1295000010468357e-05
sba(iandrea.events
WeatherEvent
p30
(dp31
g4
I0
sg5
F260.854855375
sg6
I0
sg7
Nsg8
I00
sg9
F260.85487662600002
sg10
(dp32
g12
I0
sg13
I3
sg14
I3
sg15
I0
sg16
I0
sg17
I0
sg18
I0
sg19
I0
sg20
I17
sg21
I0
ssg22
g23
sg24
g25
sg26
I0
sg27
I0
sg28
Nsg29
F2.1251000021038635e-05
sba(iandrea.events
WeatherEvent
p33
(dp34
g4
I0
sg5
F270.85527219699998
sg6
I0
sg7
Nsg8
I00
sg9
F270.85529508299999
sg10
(dp35
g12
I0
sg13
I3
sg14
I3
sg15
I0
sg16
I0
sg17
I0
sg18
I0
sg19
I0
sg20
I17
sg21
I0
ssg22
g23
sg24
g25
sg26
I0
sg27
I0
sg28
Nsg29
F2.2886000010657881e-05
sba(iandrea.events
WeatherEvent
p36
(dp37
g4
I0
sg5
F280.85530565800002
sg6
I0
sg7
Nsg8
I00
sg9
F280.85532116799999
sg10
(dp38
g12
I0
sg13
I3
sg14
I3
sg15
I0
sg16
I0
sg17
I0
sg18
I0
sg19
I0
sg20
I17
sg21
I0
ssg22
g23
sg24
g25
sg26
I0
sg27
I0
sg28
Nsg29
F1.5509999968799093e-05
sba(iandrea.events
WeatherEvent
p39
(dp40
g4
I0
sg5
F290.85710956700001
sg6
I0
sg7
Nsg8
I00
sg9
F290.85711898
sg10
(dp41
g12
I0
sg13
I3
sg14
I3
sg15
I0
sg16
I0
sg17
I0
sg18
I0
sg19
I0
sg20
I17
sg21
I0
ssg22
g23
sg24
g25
sg26
I0
sg27
I0
sg28
Nsg29
F9.4129999865799618e-06
sba(iandrea.events
WeatherEvent
p42
(dp43
g4
I0
sg5
F300.85920698500001
sg6
I0
sg7
Nsg8
I00
sg9
F300.85921568600003
sg10
(dp44
g12
I0
sg13
I3
sg14
I3
sg15
I0
sg16
I0
sg17
I0
sg18
I0
sg19
I0
sg20
I17
sg21
I0
ssg22
g23
sg24
g25
sg26
I0
sg27
I0
sg28
Nsg29
F8.701000012933946e-06
sba(iandrea.events
WeatherEvent
p45
(dp46
g4
I0
sg5
F310.86053523599998
sg6
I0
sg7
Nsg8
I00
sg9
F310.860545489
sg10
(dp47
g12
I0
sg13
I3
sg14
I3
sg15
I0
sg16
I0
sg17
I0
sg18
I0
sg19
I0
sg20
I17
sg21
I0
ssg22
g23
sg24
g25
sg26
I0
sg27
I0
sg28
Nsg29
F1.0253000027660164e-05
sba(iandrea.events
WeatherEvent
p48
(dp49
g4
I0
sg5
F320.86187278400001
sg6
I0
sg7
Nsg8
I00
sg9
F320.86188487700002
sg10
(dp50
g12
I0
sg13
I3
sg14
I3
sg15
I0
sg16
I0
sg17
I0
sg18
I0
sg19
I0
sg20
I17
sg21
I0
ssg22
g23
sg24
g25
sg26
I0
sg27
I0
sg28
Nsg29
F1.209300000937219e-05
sba(iandrea.events
WeatherEvent
p51
(dp52
g4
I0
sg5
F330.863296822
sg6
I0
sg7
Nsg8
I00
sg9
F330.86331356300002
sg10
(dp53
g12
I0
sg13
I3
sg14
I3
sg15
I0
sg16
I0
sg17
I0
sg18
I0
sg19
I0
sg20
I17
sg21
I0
ssg22
g23
sg24
g25
sg26
I0
sg27
I0
sg28
Nsg29
F1.6741000024467212e-05
sba(iandrea.events
WeatherEvent
p54
(dp55
g4
I0
sg5
F340.86374725500002
sg6
I0
sg7
Nsg8
I00
sg9
F340.86375748799998
sg10
(dp56
g12
I0
sg13
I3
sg14
I3
sg15
I0
sg16
I0
sg17
I0
sg18
I0
sg19
I0
sg20
I17
sg21
I0
ssg22
g23
sg24
g25
sg26
I0
sg27
I0
sg28
Nsg29
F1.0232999954951083e-05
sba(iandrea.events
WeatherEvent
p57
(dp58
g4
I0
sg5
F350.86559638
sg6
I0
sg7
Nsg8
I00
sg9
F350.86561289899998
sg10
(dp59
g12
I0
sg13
I3
sg14
I3
sg15
I0
sg16
I0
sg17
I0
sg18
I0
sg19
I0
sg20
I17
sg21
I0
ssg22
g23
sg24
g25
sg26
I0
sg27
I0
sg28
Nsg29
F1.6518999984782567e-05
sba(iandrea.events
WeatherEvent
p60
(dp61
g4
I0
sg5
F360.86692429599998
sg6
I0
sg7
Nsg8
I00
sg9
F360.86693462699998
sg10
(dp62
g12
I0
sg13
I3
sg14
I3
sg15
I0
sg16
I0
sg17
I0
sg18
I0
sg19
I0
sg20
I17
sg21
I0
ssg22
g23
sg24
g25
sg26
I0
sg27
I0
sg28
Nsg29
F1.0330999998586776e-05
sba(iandrea.events
WeatherEvent
p63
(dp64
g4
I0
sg5
F370.86883286699998
sg6
I0
sg7
Nsg8
I00
sg9
F370.86884833300002
sg10
(dp65
g12
I0
sg13
I3
sg14
I3
sg15
I0
sg16
I0
sg17
I0
sg18
I0
sg19
I0
sg20
I17
sg21
I0
ssg22
g23
sg24
g25
sg26
I0
sg27
I0
sg28
Nsg29
F1.546600003621279e-05
sba(iandrea.events
WeatherEvent
p66
(dp67
g4
I0
sg5
F380.86899577299999
sg6
I0
sg7
Nsg8
I00
sg9
F380.86901141700002
sg10
(dp68
g12
I0
sg13
I3
sg14
I3
sg15
I0
sg16
I0
sg17
I0
sg18
I0
sg19
I0
sg20
I17
sg21
I0
ssg22
g23
sg24
g25
sg26
I0
sg27
I0
sg28
Nsg29
F1.5644000029624294e-05
sba(iandrea.events
WeatherEvent
p69
(dp70
g4
I0
sg5
F390.869321249
sg6
I0
sg7
Nsg8
I00
sg9
F390.86933225400003
sg10
(dp71
g12
I0
sg13
I3
sg14
I3
sg15
I0
sg16
I0
sg17
I0
sg18
I0
sg19
I0
sg20
I17
sg21
I0
ssg22
g23
sg24
g25
sg26
I0
sg27
I0
sg28
Nsg29
F1.1005000033037504e-05
sba(iandrea.events
WeatherEvent
p72
(dp73
g4
I0
sg5
F400.87017476699998
sg6
I0
sg7
Nsg8
I00
sg9
F400.87018439799999
sg10
(dp74
g12
I0
sg13
I3
sg14
I3
sg15
I0
sg16
I0
sg17
I0
sg18
I0
sg19
I0
sg20
I17
sg21
I0
ssg22
g23
sg24
g25
sg26
I0
sg27
I0
sg28
Nsg29
F9.6310000117227901e-06
sba(iandrea.events
WeatherEvent
p75
(dp76
g4
I0
sg5
F410.87226573599997
sg6
I0
sg7
Nsg8
I00
sg9
F410.87227944699998
sg10
(dp77
g12
I0
sg13
I3
sg14
I3
sg15
I0
sg16
I0
sg17
I0
sg18
I0
sg19
I0
sg20
I17
sg21
I0
ssg22
g23
sg24
g25
sg26
I0
sg27
I0
sg28
Nsg29
F1.3711000008242991e-05
sba(iandrea.events
WeatherEvent
p78
(dp79
g4
I0
sg5
F420.87242007499998
sg6
I0
sg7
Nsg8
I00
sg9
F420.872431979
sg10
(dp80
g12
I0
sg13
I3
sg14
I3
sg15
I0
sg16
I0
sg17
I0
sg18
I0
sg19
I0
sg20
I17
sg21
I0
ssg22
g23
sg24
g25
sg26
I0
sg27
I0
sg28
Nsg29
F1.1904000018603256e-05
sba(iandrea.events
WeatherEvent
p81
(dp82
g4
I0
sg5
F430.87328352899999
sg6
I0
sg7
Nsg8
I00
sg9
F430.87329321599998
sg10
(dp83
g12
I0
sg13
I3
sg14
I3
sg15
I0
sg16
I0
sg17
I0
sg18
I0
sg19
I0
sg20
I17
sg21
I0
ssg22
g23
sg24
g25
sg26
I0
sg27
I0
sg28
Nsg29
F9.6869999879345414e-06
sba(iandrea.events
WeatherEvent
p84
(dp85
g4
I0
sg5
F440.87376244299998
sg6
I0
sg7
Nsg8
I00
sg9
F440.87377371600002
sg10
(dp86
g12
I0
sg13
I3
sg14
I3
sg15
I0
sg16
I0
sg17
I0
sg18
I0
sg19
I0
sg20
I17
sg21
I0
ssg22
g23
sg24
g25
sg26
I0
sg27
I0
sg28
Nsg29
F1.1273000041001069e-05
sba(iandrea.events
WeatherEvent
p87
(dp88
g4
I0
sg5
F450.875264754
sg6
I0
sg7
Nsg8
I00
sg9
F450.87527645799997
sg10
(dp89
g12
I0
sg13
I3
sg14
I3
sg15
I0
sg16
I0
sg17
I0
sg18
I0
sg19
I0
sg20
I17
sg21
I0
ssg22
g23
sg24
g25
sg26
I0
sg27
I0
sg28
Nsg29
F1.1703999973633472e-05
sba.