(lp1
(iandrea.events
WeatherEvent
p2
(dp3
S'src'
p4
I0
sS't_i'
p5
F0.15150952339172363
sS'level'
p6
I0
sS'res'
p7
NsS'inv'
p8
I00
sS't_f'
p9
F0.15151810646057129
sS'etc'
p10
(dp11
S'workers_idle'
p12
I0
sS'workers_busy'
p13
I0
sS'tasks_busy'
p14
I0
sS'MEMOUT'
p15
I0
sS'UNSAT'
p16
I0
sS'TIMEOUT'
p17
I0
sS'ERROR'
p18
I0
sS'tasks_done'
p19
I0
sS'tasks_idle'
p20
I0
sS'SAT'
p21
I0
ssS'gid'
p22
S'wrep'
p23
sS'eid'
p24
S'preinit'
p25
sS'timeout'
p26
I0
sS'max'
p27
I0
sS'tid'
p28
NsS'dur'
p29
F8.58306884765625e-06
sba(iandrea.events
Event
p30
(dp31
g4
I0
sg5
F0.15169000625610352
sg6
I0
sg7
S'1 tasks'
p32
sg8
I00
sg9
F52.820794582366943
sg10
(dp33
sg22
S'main'
p34
sg24
S'queue.create'
p35
sg26
I0
sg27
I0
sg28
Nsg29
F52.66910457611084
sba(iandrea.events
WeatherEvent
p36
(dp37
g4
I0
sg5
F52.821008682250977
sg6
I0
sg7
Nsg8
I00
sg9
F52.821015596389771
sg10
(dp38
g12
I0
sg13
I0
sg14
I0
sg15
I0
sg16
I0
sg17
I0
sg18
I0
sg19
I0
sg20
I1
sg21
I0
ssg22
g23
sg24
S'initial'
p39
sg26
I0
sg27
I0
sg28
Nsg29
F6.9141387939453125e-06
sba(iandrea.events
WeatherEvent
p40
(dp41
g4
I0
sg5
F62.821887969970703
sg6
I0
sg7
Nsg8
I00
sg9
F62.821897745132446
sg10
(dp42
g12
I0
sg13
I3
sg14
I3
sg15
I0
sg16
I0
sg17
I0
sg18
I0
sg19
I0
sg20
I17
sg21
I0
ssg22
g23
sg24
S'update'
p43
sg26
I0
sg27
I0
sg28
Nsg29
F9.7751617431640625e-06
sba(iandrea.events
WeatherEvent
p44
(dp45
g4
I0
sg5
F72.822200536727905
sg6
I0
sg7
Nsg8
I00
sg9
F72.822207689285278
sg10
(dp46
g12
I0
sg13
I3
sg14
I3
sg15
I0
sg16
I0
sg17
I0
sg18
I0
sg19
I0
sg20
I17
sg21
I0
ssg22
g23
sg24
g43
sg26
I0
sg27
I0
sg28
Nsg29
F7.152557373046875e-06
sba(iandrea.events
WeatherEvent
p47
(dp48
g4
I0
sg5
F82.823748350143433
sg6
I0
sg7
Nsg8
I00
sg9
F82.823755741119385
sg10
(dp49
g12
I0
sg13
I3
sg14
I3
sg15
I0
sg16
I0
sg17
I0
sg18
I0
sg19
I0
sg20
I17
sg21
I0
ssg22
g23
sg24
g43
sg26
I0
sg27
I0
sg28
Nsg29
F7.3909759521484375e-06
sba(iandrea.events
WeatherEvent
p50
(dp51
g4
I0
sg5
F92.823871374130249
sg6
I0
sg7
Nsg8
I00
sg9
F92.82387900352478
sg10
(dp52
g12
I0
sg13
I3
sg14
I3
sg15
I0
sg16
I0
sg17
I0
sg18
I0
sg19
I0
sg20
I17
sg21
I0
ssg22
g23
sg24
g43
sg26
I0
sg27
I0
sg28
Nsg29
F7.62939453125e-06
sba(iandrea.events
WeatherEvent
p53
(dp54
g4
I0
sg5
F102.8252227306366
sg6
I0
sg7
Nsg8
I00
sg9
F102.82523083686829
sg10
(dp55
g12
I0
sg13
I3
sg14
I3
sg15
I0
sg16
I0
sg17
I0
sg18
I0
sg19
I0
sg20
I17
sg21
I0
ssg22
g23
sg24
g43
sg26
I0
sg27
I0
sg28
Nsg29
F8.106231689453125e-06
sba(iandrea.events
WeatherEvent
p56
(dp57
g4
I0
sg5
F112.82593536376953
sg6
I0
sg7
Nsg8
I00
sg9
F112.82594299316406
sg10
(dp58
g12
I0
sg13
I3
sg14
I3
sg15
I0
sg16
I0
sg17
I0
sg18
I0
sg19
I0
sg20
I17
sg21
I0
ssg22
g23
sg24
g43
sg26
I0
sg27
I0
sg28
Nsg29
F7.62939453125e-06
sba(iandrea.events
WeatherEvent
p59
(dp60
g4
I0
sg5
F122.82640767097473
sg6
I0
sg7
Nsg8
I00
sg9
F122.82641410827637
sg10
(dp61
g12
I0
sg13
I3
sg14
I3
sg15
I0
sg16
I0
sg17
I0
sg18
I0
sg19
I0
sg20
I17
sg21
I0
ssg22
g23
sg24
g43
sg26
I0
sg27
I0
sg28
Nsg29
F6.4373016357421875e-06
sba(iandrea.events
WeatherEvent
p62
(dp63
g4
I0
sg5
F132.82697868347168
sg6
I0
sg7
Nsg8
I00
sg9
F132.82698535919189
sg10
(dp64
g12
I0
sg13
I3
sg14
I3
sg15
I0
sg16
I0
sg17
I0
sg18
I0
sg19
I0
sg20
I17
sg21
I0
ssg22
g23
sg24
g43
sg26
I0
sg27
I0
sg28
Nsg29
F6.67572021484375e-06
sba(iandrea.events
WeatherEvent
p65
(dp66
g4
I0
sg5
F142.82770586013794
sg6
I0
sg7
Nsg8
I00
sg9
F142.82771229743958
sg10
(dp67
g12
I0
sg13
I3
sg14
I3
sg15
I0
sg16
I0
sg17
I0
sg18
I0
sg19
I0
sg20
I17
sg21
I0
ssg22
g23
sg24
g43
sg26
I0
sg27
I0
sg28
Nsg29
F6.4373016357421875e-06
sba(iandrea.events
WeatherEvent
p68
(dp69
g4
I0
sg5
F152.82976222038269
sg6
I0
sg7
Nsg8
I00
sg9
F152.82976865768433
sg10
(dp70
g12
I0
sg13
I3
sg14
I3
sg15
I0
sg16
I0
sg17
I0
sg18
I0
sg19
I0
sg20
I17
sg21
I0
ssg22
g23
sg24
g43
sg26
I0
sg27
I0
sg28
Nsg29
F6.4373016357421875e-06
sba(iandrea.events
WeatherEvent
p71
(dp72
g4
I0
sg5
F162.8298487663269
sg6
I0
sg7
Nsg8
I00
sg9
F162.8298556804657
sg10
(dp73
g12
I0
sg13
I3
sg14
I3
sg15
I0
sg16
I0
sg17
I0
sg18
I0
sg19
I0
sg20
I17
sg21
I0
ssg22
g23
sg24
g43
sg26
I0
sg27
I0
sg28
Nsg29
F6.9141387939453125e-06
sba(iandrea.events
WeatherEvent
p74
(dp75
g4
I0
sg5
F172.83133721351624
sg6
I0
sg7
Nsg8
I00
sg9
F172.83134388923645
sg10
(dp76
g12
I0
sg13
I3
sg14
I3
sg15
I0
sg16
I0
sg17
I0
sg18
I0
sg19
I0
sg20
I17
sg21
I0
ssg22
g23
sg24
g43
sg26
I0
sg27
I0
sg28
Nsg29
F6.67572021484375e-06
sba(iandrea.events
WeatherEvent
p77
(dp78
g4
I0
sg5
F182.831698179245
sg6
I0
sg7
Nsg8
I00
sg9
F182.83170557022095
sg10
(dp79
g12
I0
sg13
I3
sg14
I3
sg15
I0
sg16
I0
sg17
I0
sg18
I0
sg19
I0
sg20
I17
sg21
I0
ssg22
g23
sg24
g43
sg26
I0
sg27
I0
sg28
Nsg29
F7.3909759521484375e-06
sba(iandrea.events
WeatherEvent
p80
(dp81
g4
I0
sg5
F192.83197808265686
sg6
I0
sg7
Nsg8
I00
sg9
F192.83198523521423
sg10
(dp82
g12
I0
sg13
I3
sg14
I3
sg15
I0
sg16
I0
sg17
I0
sg18
I0
sg19
I0
sg20
I17
sg21
I0
ssg22
g23
sg24
g43
sg26
I0
sg27
I0
sg28
Nsg29
F7.152557373046875e-06
sba(iandrea.events
WeatherEvent
p83
(dp84
g4
I0
sg5
F202.83405089378357
sg6
I0
sg7
Nsg8
I00
sg9
F202.83405780792236
sg10
(dp85
g12
I0
sg13
I3
sg14
I3
sg15
I0
sg16
I0
sg17
I0
sg18
I0
sg19
I0
sg20
I17
sg21
I0
ssg22
g23
sg24
g43
sg26
I0
sg27
I0
sg28
Nsg29
F6.9141387939453125e-06
sba(iandrea.events
WeatherEvent
p86
(dp87
g4
I0
sg5
F212.83575654029846
sg6
I0
sg7
Nsg8
I00
sg9
F212.83576273918152
sg10
(dp88
g12
I0
sg13
I3
sg14
I3
sg15
I0
sg16
I0
sg17
I0
sg18
I0
sg19
I0
sg20
I17
sg21
I0
ssg22
g23
sg24
g43
sg26
I0
sg27
I0
sg28
Nsg29
F6.198883056640625e-06
sba(iandrea.events
WeatherEvent
p89
(dp90
g4
I0
sg5
F222.83738088607788
sg6
I0
sg7
Nsg8
I00
sg9
F222.83738732337952
sg10
(dp91
g12
I0
sg13
I3
sg14
I3
sg15
I0
sg16
I0
sg17
I0
sg18
I0
sg19
I0
sg20
I17
sg21
I0
ssg22
g23
sg24
g43
sg26
I0
sg27
I0
sg28
Nsg29
F6.4373016357421875e-06
sba(iandrea.events
WeatherEvent
p92
(dp93
g4
I0
sg5
F232.83837628364563
sg6
I0
sg7
Nsg8
I00
sg9
F232.8383846282959
sg10
(dp94
g12
I0
sg13
I3
sg14
I3
sg15
I0
sg16
I0
sg17
I0
sg18
I0
sg19
I0
sg20
I17
sg21
I0
ssg22
g23
sg24
g43
sg26
I0
sg27
I0
sg28
Nsg29
F8.3446502685546875e-06
sba.(lp1
(iandrea.events
WeatherEvent
p2
(dp3
S'src'
p4
I0
sS't_i'
p5
F242.83981394767761
sS'level'
p6
I0
sS'res'
p7
NsS'inv'
p8
I00
sS't_f'
p9
F242.83982062339783
sS'etc'
p10
(dp11
S'workers_idle'
p12
I0
sS'workers_busy'
p13
I3
sS'tasks_busy'
p14
I3
sS'MEMOUT'
p15
I0
sS'UNSAT'
p16
I0
sS'TIMEOUT'
p17
I0
sS'ERROR'
p18
I0
sS'tasks_done'
p19
I0
sS'tasks_idle'
p20
I17
sS'SAT'
p21
I0
ssS'gid'
p22
S'wrep'
p23
sS'eid'
p24
S'update'
p25
sS'timeout'
p26
I0
sS'max'
p27
I0
sS'tid'
p28
NsS'dur'
p29
F6.67572021484375e-06
sba(iandrea.events
WeatherEvent
p30
(dp31
g4
I0
sg5
F252.84133267402649
sg6
I0
sg7
Nsg8
I00
sg9
F252.84133887290955
sg10
(dp32
g12
I0
sg13
I3
sg14
I3
sg15
I0
sg16
I0
sg17
I0
sg18
I0
sg19
I0
sg20
I17
sg21
I0
ssg22
g23
sg24
g25
sg26
I0
sg27
I0
sg28
Nsg29
F6.198883056640625e-06
sba(iandrea.events
WeatherEvent
p33
(dp34
g4
I0
sg5
F262.8422520160675
sg6
I0
sg7
Nsg8
I00
sg9
F262.84225869178772
sg10
(dp35
g12
I0
sg13
I3
sg14
I3
sg15
I0
sg16
I0
sg17
I0
sg18
I0
sg19
I0
sg20
I17
sg21
I0
ssg22
g23
sg24
g25
sg26
I0
sg27
I0
sg28
Nsg29
F6.67572021484375e-06
sba(iandrea.events
WeatherEvent
p36
(dp37
g4
I0
sg5
F272.84419965744019
sg6
I0
sg7
Nsg8
I00
sg9
F272.84420680999756
sg10
(dp38
g12
I0
sg13
I3
sg14
I3
sg15
I0
sg16
I0
sg17
I0
sg18
I0
sg19
I0
sg20
I17
sg21
I0
ssg22
g23
sg24
g25
sg26
I0
sg27
I0
sg28
Nsg29
F7.152557373046875e-06
sba(iandrea.events
WeatherEvent
p39
(dp40
g4
I0
sg5
F282.84620356559753
sg6
I0
sg7
Nsg8
I00
sg9
F282.84621047973633
sg10
(dp41
g12
I0
sg13
I3
sg14
I3
sg15
I0
sg16
I0
sg17
I0
sg18
I0
sg19
I0
sg20
I17
sg21
I0
ssg22
g23
sg24
g25
sg26
I0
sg27
I0
sg28
Nsg29
F6.9141387939453125e-06
sba(iandrea.events
WeatherEvent
p42
(dp43
g4
I0
sg5
F292.84773063659668
sg6
I0
sg7
Nsg8
I00
sg9
F292.84773826599121
sg10
(dp44
g12
I0
sg13
I3
sg14
I3
sg15
I0
sg16
I0
sg17
I0
sg18
I0
sg19
I0
sg20
I17
sg21
I0
ssg22
g23
sg24
g25
sg26
I0
sg27
I0
sg28
Nsg29
F7.62939453125e-06
sba(iandrea.events
WeatherEvent
p45
(dp46
g4
I0
sg5
F302.84919381141663
sg6
I0
sg7
Nsg8
I00
sg9
F302.84920048713684
sg10
(dp47
g12
I0
sg13
I3
sg14
I3
sg15
I0
sg16
I0
sg17
I0
sg18
I0
sg19
I0
sg20
I17
sg21
I0
ssg22
g23
sg24
g25
sg26
I0
sg27
I0
sg28
Nsg29
F6.67572021484375e-06
sba(iandrea.events
WeatherEvent
p48
(dp49
g4
I0
sg5
F312.8494930267334
sg6
I0
sg7
Nsg8
I00
sg9
F312.84949970245361
sg10
(dp50
g12
I0
sg13
I3
sg14
I3
sg15
I0
sg16
I0
sg17
I0
sg18
I0
sg19
I0
sg20
I17
sg21
I0
ssg22
g23
sg24
g25
sg26
I0
sg27
I0
sg28
Nsg29
F6.67572021484375e-06
sba(iandrea.events
WeatherEvent
p51
(dp52
g4
I0
sg5
F322.85027241706848
sg6
I0
sg7
Nsg8
I00
sg9
F322.85027885437012
sg10
(dp53
g12
I0
sg13
I3
sg14
I3
sg15
I0
sg16
I0
sg17
I0
sg18
I0
sg19
I0
sg20
I17
sg21
I0
ssg22
g23
sg24
g25
sg26
I0
sg27
I0
sg28
Nsg29
F6.4373016357421875e-06
sba(iandrea.events
WeatherEvent
p54
(dp55
g4
I0
sg5
F332.85187864303589
sg6
I0
sg7
Nsg8
I00
sg9
F332.85188555717468
sg10
(dp56
g12
I0
sg13
I3
sg14
I3
sg15
I0
sg16
I0
sg17
I0
sg18
I0
sg19
I0
sg20
I17
sg21
I0
ssg22
g23
sg24
g25
sg26
I0
sg27
I0
sg28
Nsg29
F6.9141387939453125e-06
sba(iandrea.events
WeatherEvent
p57
(dp58
g4
I0
sg5
F342.85296773910522
sg6
I0
sg7
Nsg8
I00
sg9
F342.85297560691833
sg10
(dp59
g12
I0
sg13
I3
sg14
I3
sg15
I0
sg16
I0
sg17
I0
sg18
I0
sg19
I0
sg20
I17
sg21
I0
ssg22
g23
sg24
g25
sg26
I0
sg27
I0
sg28
Nsg29
F7.8678131103515625e-06
sba(iandrea.events
WeatherEvent
p60
(dp61
g4
I0
sg5
F352.85312795639038
sg6
I0
sg7
Nsg8
I00
sg9
F352.8531346321106
sg10
(dp62
g12
I0
sg13
I3
sg14
I3
sg15
I0
sg16
I0
sg17
I0
sg18
I0
sg19
I0
sg20
I17
sg21
I0
ssg22
g23
sg24
g25
sg26
I0
sg27
I0
sg28
Nsg29
F6.67572021484375e-06
sba(iandrea.events
WeatherEvent
p63
(dp64
g4
I0
sg5
F362.85450148582458
sg6
I0
sg7
Nsg8
I00
sg9
F362.85450768470764
sg10
(dp65
g12
I0
sg13
I3
sg14
I3
sg15
I0
sg16
I0
sg17
I0
sg18
I0
sg19
I0
sg20
I17
sg21
I0
ssg22
g23
sg24
g25
sg26
I0
sg27
I0
sg28
Nsg29
F6.198883056640625e-06
sba(iandrea.events
WeatherEvent
p66
(dp67
g4
I0
sg5
F372.85457468032837
sg6
I0
sg7
Nsg8
I00
sg9
F372.85458183288574
sg10
(dp68
g12
I0
sg13
I3
sg14
I3
sg15
I0
sg16
I0
sg17
I0
sg18
I0
sg19
I0
sg20
I17
sg21
I0
ssg22
g23
sg24
g25
sg26
I0
sg27
I0
sg28
Nsg29
F7.152557373046875e-06
sba(iandrea.events
WeatherEvent
p69
(dp70
g4
I0
sg5
F382.8549656867981
sg6
I0
sg7
Nsg8
I00
sg9
F382.85497260093689
sg10
(dp71
g12
I0
sg13
I3
sg14
I3
sg15
I0
sg16
I0
sg17
I0
sg18
I0
sg19
I0
sg20
I17
sg21
I0
ssg22
g23
sg24
g25
sg26
I0
sg27
I0
sg28
Nsg29
F6.9141387939453125e-06
sba(iandrea.events
WeatherEvent
p72
(dp73
g4
I0
sg5
F392.85584259033203
sg6
I0
sg7
Nsg8
I00
sg9
F392.85584926605225
sg10
(dp74
g12
I0
sg13
I3
sg14
I3
sg15
I0
sg16
I0
sg17
I0
sg18
I0
sg19
I0
sg20
I17
sg21
I0
ssg22
g23
sg24
g25
sg26
I0
sg27
I0
sg28
Nsg29
F6.67572021484375e-06
sba(iandrea.events
WeatherEvent
p75
(dp76
g4
I0
sg5
F402.8569233417511
sg6
I0
sg7
Nsg8
I00
sg9
F402.85693144798279
sg10
(dp77
g12
I0
sg13
I3
sg14
I3
sg15
I0
sg16
I0
sg17
I0
sg18
I0
sg19
I0
sg20
I17
sg21
I0
ssg22
g23
sg24
g25
sg26
I0
sg27
I0
sg28
Nsg29
F8.106231689453125e-06
sba(iandrea.events
WeatherEvent
p78
(dp79
g4
I0
sg5
F412.8587634563446
sg6
I0
sg7
Nsg8
I00
sg9
F412.85877203941345
sg10
(dp80
g12
I0
sg13
I3
sg14
I3
sg15
I0
sg16
I0
sg17
I0
sg18
I0
sg19
I0
sg20
I17
sg21
I0
ssg22
g23
sg24
g25
sg26
I0
sg27
I0
sg28
Nsg29
F8.58306884765625e-06
sba(iandrea.events
WeatherEvent
p81
(dp82
g4
I0
sg5
F422.85905838012695
sg6
I0
sg7
Nsg8
I00
sg9
F422.85906505584717
sg10
(dp83
g12
I0
sg13
I3
sg14
I3
sg15
I0
sg16
I0
sg17
I0
sg18
I0
sg19
I0
sg20
I17
sg21
I0
ssg22
g23
sg24
g25
sg26
I0
sg27
I0
sg28
Nsg29
F6.67572021484375e-06
sba(iandrea.events
WeatherEvent
p84
(dp85
g4
I0
sg5
F432.86038446426392
sg6
I0
sg7
Nsg8
I00
sg9
F432.86039113998413
sg10
(dp86
g12
I0
sg13
I3
sg14
I3
sg15
I0
sg16
I0
sg17
I0
sg18
I0
sg19
I0
sg20
I17
sg21
I0
ssg22
g23
sg24
g25
sg26
I0
sg27
I0
sg28
Nsg29
F6.67572021484375e-06
sba(iandrea.events
WeatherEvent
p87
(dp88
g4
I0
sg5
F442.86114859580994
sg6
I0
sg7
Nsg8
I00
sg9
F442.86115837097168
sg10
(dp89
g12
I0
sg13
I3
sg14
I3
sg15
I0
sg16
I0
sg17
I0
sg18
I0
sg19
I0
sg20
I17
sg21
I0
ssg22
g23
sg24
g25
sg26
I0
sg27
I0
sg28
Nsg29
F9.7751617431640625e-06
sba.